
node_template_runtime.wasm:	file format wasm 0x1

Section Details:

Type[47]:
 - type[0] (i32) -> i32
 - type[1] (i32) -> nil
 - type[2] (i32, i32, i32, i32) -> nil
 - type[3] (i32, i32, i32) -> i32
 - type[4] (i32, i32) -> i32
 - type[5] (i32) -> i64
 - type[6] (i32, i32, i32) -> nil
 - type[7] (i32, i32) -> nil
 - type[8] (i32, i32, i32, i32, i32, i32) -> nil
 - type[9] (i32, i32, i32, i32) -> i32
 - type[10] () -> nil
 - type[11] (i32, i32, i32, i32, i32) -> nil
 - type[12] () -> i32
 - type[13] (i32, i32, i64, i64) -> nil
 - type[14] (i32, i64) -> i32
 - type[15] (i32, i64, i32) -> i32
 - type[16] (i32, i32) -> i64
 - type[17] (i32, i64, i64) -> nil
 - type[18] (i64) -> i32
 - type[19] (i64, i32) -> i32
 - type[20] (i64) -> nil
 - type[21] (i64) -> i64
 - type[22] (i64, i64) -> nil
 - type[23] (i64, i64) -> i64
 - type[24] (i64, i64, i32) -> i64
 - type[25] (i32, i32, i32, i32, i32, i32, i32) -> nil
 - type[26] (i32, i32, i32, i32, i32) -> i32
 - type[27] (i64, i32, i32) -> nil
 - type[28] (i64, i64, i32, i32) -> i32
 - type[29] (i32, i32, i32, i32, i32, i32) -> i32
 - type[30] (i32, i32, i32, i32, i32, i32, i32) -> i32
 - type[31] (i64, i32, i32) -> i32
 - type[32] (i32, i32, i32, i64, i32) -> nil
 - type[33] (i32, i64, i64, i32) -> nil
 - type[34] (i32, i32, i32, i64, i64, i64, i64, i64, i64, i64) -> i32
 - type[35] () -> i64
 - type[36] (i64, i64) -> i32
 - type[37] (i32, i64, i64, i32, i32, i32, i32) -> nil
 - type[38] (i32, i32, i64, i64, i32, i64, i64) -> nil
 - type[39] (i32, i32, i32, i64, i64, i32) -> nil
 - type[40] (i32, i32, i64, i64, i32, i32) -> nil
 - type[41] (i32, i32, i64, i64, i64, i64, i32, i32) -> nil
 - type[42] (i32, i32, i64, i32) -> nil
 - type[43] (i32, i32, i64) -> nil
 - type[44] (i32, i64, i64, i64, i64, i64, i64) -> nil
 - type[45] (i32, i64) -> nil
 - type[46] (i32, i64, i64, i64, i64) -> nil
Import[31]:
 - memory[0] pages: initial=17 <- env.memory
 - func[0] sig=14 <ext_crypto_ed25519_generate_version_1> <- env.ext_crypto_ed25519_generate_version_1
 - func[1] sig=15 <ext_crypto_ed25519_verify_version_1> <- env.ext_crypto_ed25519_verify_version_1
 - func[2] sig=12 <ext_crypto_finish_batch_verify_version_1> <- env.ext_crypto_finish_batch_verify_version_1
 - func[3] sig=16 <ext_crypto_secp256k1_ecdsa_recover_compressed_version_2> <- env.ext_crypto_secp256k1_ecdsa_recover_compressed_version_2
 - func[4] sig=14 <ext_crypto_sr25519_generate_version_1> <- env.ext_crypto_sr25519_generate_version_1
 - func[5] sig=15 <ext_crypto_sr25519_verify_version_2> <- env.ext_crypto_sr25519_verify_version_2
 - func[6] sig=10 <ext_crypto_start_batch_verify_version_1> <- env.ext_crypto_start_batch_verify_version_1
 - func[7] sig=17 <ext_logging_log_version_1> <- env.ext_logging_log_version_1
 - func[8] sig=12 <ext_logging_max_level_version_1> <- env.ext_logging_max_level_version_1
 - func[9] sig=18 <ext_hashing_blake2_128_version_1> <- env.ext_hashing_blake2_128_version_1
 - func[10] sig=18 <ext_hashing_blake2_256_version_1> <- env.ext_hashing_blake2_256_version_1
 - func[11] sig=18 <ext_hashing_twox_128_version_1> <- env.ext_hashing_twox_128_version_1
 - func[12] sig=18 <ext_hashing_twox_64_version_1> <- env.ext_hashing_twox_64_version_1
 - func[13] sig=19 <ext_trie_blake2_256_ordered_root_version_2> <- env.ext_trie_blake2_256_ordered_root_version_2
 - func[14] sig=20 <ext_misc_print_hex_version_1> <- env.ext_misc_print_hex_version_1
 - func[15] sig=20 <ext_misc_print_utf8_version_1> <- env.ext_misc_print_utf8_version_1
 - func[16] sig=21 <ext_misc_runtime_version_version_1> <- env.ext_misc_runtime_version_version_1
 - func[17] sig=1 <ext_allocator_free_version_1> <- env.ext_allocator_free_version_1
 - func[18] sig=0 <ext_allocator_malloc_version_1> <- env.ext_allocator_malloc_version_1
 - func[19] sig=22 <ext_storage_append_version_1> <- env.ext_storage_append_version_1
 - func[20] sig=20 <ext_storage_clear_version_1> <- env.ext_storage_clear_version_1
 - func[21] sig=23 <ext_storage_clear_prefix_version_2> <- env.ext_storage_clear_prefix_version_2
 - func[22] sig=10 <ext_storage_commit_transaction_version_1> <- env.ext_storage_commit_transaction_version_1
 - func[23] sig=18 <ext_storage_exists_version_1> <- env.ext_storage_exists_version_1
 - func[24] sig=21 <ext_storage_get_version_1> <- env.ext_storage_get_version_1
 - func[25] sig=24 <ext_storage_read_version_1> <- env.ext_storage_read_version_1
 - func[26] sig=10 <ext_storage_rollback_transaction_version_1> <- env.ext_storage_rollback_transaction_version_1
 - func[27] sig=5 <ext_storage_root_version_2> <- env.ext_storage_root_version_2
 - func[28] sig=22 <ext_storage_set_version_1> <- env.ext_storage_set_version_1
 - func[29] sig=10 <ext_storage_start_transaction_version_1> <- env.ext_storage_start_transaction_version_1
Function[1220]:
 - func[30] sig=7 <__rust_alloc_error_handler>
 - func[31] sig=1 <_ZN4core3ptr27drop_in_place$LT$$RF$u8$GT$17h9448f6182a5fd865E>
 - func[32] sig=4 <_ZN50_$LT$$RF$mut$u20$W$u20$as$u20$core..fmt..Write$GT$10write_char17hfdb02e10cec8e82bE>
 - func[33] sig=7 <_ZN5alloc7raw_vec19RawVec$LT$T$C$A$GT$16reserve_for_push17h6cba132680cf9e1dE>
 - func[34] sig=6 <_ZN5alloc7raw_vec19RawVec$LT$T$C$A$GT$7reserve21do_reserve_and_handle17hafdb7414e5081fabE>
 - func[35] sig=4 <_ZN50_$LT$$RF$mut$u20$W$u20$as$u20$core..fmt..Write$GT$9write_fmt17h100e6f4fd3267bb6E>
 - func[36] sig=3 <_ZN50_$LT$$RF$mut$u20$W$u20$as$u20$core..fmt..Write$GT$9write_str17hd0c2a8eaeeddab3dE>
 - func[37] sig=2 <_ZN5alloc7raw_vec11finish_grow17he4bf1711e4ba9673E>
 - func[38] sig=7 <_ZN5alloc5alloc18handle_alloc_error17h0bf0d323d54b1383E>
 - func[39] sig=10 <_ZN5alloc7raw_vec17capacity_overflow17h1f5480f819d5701aE>
 - func[40] sig=7 <_ZN5alloc5alloc18handle_alloc_error8rt_error17h9ff2aa5ed7fadc6fE>
 - func[41] sig=7 <_ZN5alloc3fmt6format12format_inner17hca5976ad0b599831E>
 - func[42] sig=6 <_ZN5alloc3vec16Vec$LT$T$C$A$GT$6remove13assert_failed17h74280c5b7ff5456eE>
 - func[43] sig=4 <_ZN4core3fmt3num52_$LT$impl$u20$core..fmt..Debug$u20$for$u20$usize$GT$3fmt17ha5102538a7a70669E.llvm.10834399843330865155>
 - func[44] sig=1 <_ZN4core3ptr53drop_in_place$LT$core..alloc..layout..LayoutError$GT$17h0e591857b12de8ddE.llvm.10834399843330865155>
 - func[45] sig=6 <_ZN5bytes5bytes5Bytes8split_to17h451dbf06ab509088E>
 - func[46] sig=7 <_ZN92_$LT$bytes..bytes..Bytes$u20$as$u20$core..convert..From$LT$alloc..vec..Vec$LT$u8$GT$$GT$$GT$4from17h11573dad7310e97eE>
 - func[47] sig=2 <_ZN5bytes5bytes12static_clone17h217775431286f23aE>
 - func[48] sig=2 <_ZN5bytes5bytes13static_to_vec17hd136dd6ae2867917E>
 - func[49] sig=6 <_ZN5bytes5bytes11static_drop17h37138406e6eb9e9eE>
 - func[50] sig=2 <_ZN5bytes5bytes21promotable_even_clone17h58af06bed6305901E.llvm.10834399843330865155>
 - func[51] sig=8 <_ZN5bytes5bytes17shallow_clone_vec17h8d828b5b0a0b542eE>
 - func[52] sig=2 <_ZN5bytes5bytes22promotable_even_to_vec17h4cd97915572f2b96E.llvm.10834399843330865155>
 - func[53] sig=2 <_ZN5bytes5bytes18shared_to_vec_impl17h9a81bb3d9ba5d35fE>
 - func[54] sig=6 <_ZN5bytes5bytes20promotable_even_drop17h162c12f0650fbeeaE.llvm.10834399843330865155>
 - func[55] sig=2 <_ZN5bytes5bytes20promotable_odd_clone17h3e5d6d080b42d4a3E.llvm.10834399843330865155>
 - func[56] sig=2 <_ZN5bytes5bytes21promotable_odd_to_vec17hfcb3c5391185dbb1E.llvm.10834399843330865155>
 - func[57] sig=6 <_ZN5bytes5bytes19promotable_odd_drop17h4b55c188319c8260E.llvm.10834399843330865155>
 - func[58] sig=2 <_ZN5bytes5bytes12shared_clone17hfb10a34be2f911beE.llvm.10834399843330865155>
 - func[59] sig=2 <_ZN5bytes5bytes13shared_to_vec17h1333feb5e8e805d9E.llvm.10834399843330865155>
 - func[60] sig=6 <_ZN5bytes5bytes11shared_drop17h10d22da2b27154aeE.llvm.10834399843330865155>
 - func[61] sig=10 <_ZN5bytes5abort17h7faf4bd751085123E>
 - func[62] sig=4 <_ZN4core3ops8function6FnOnce9call_once17h459bc610e5f9b8b8E>
 - func[63] sig=1 <_ZN4core3ptr102drop_in_place$LT$$RF$core..iter..adapters..copied..Copied$LT$core..slice..iter..Iter$LT$u8$GT$$GT$$GT$17h7faf8882ba1bccd6E>
 - func[64] sig=4 <_ZN71_$LT$core..ops..range..Range$LT$Idx$GT$$u20$as$u20$core..fmt..Debug$GT$3fmt17h9a974dea53ae7393E>
 - func[65] sig=4 <_ZN4core3fmt3num50_$LT$impl$u20$core..fmt..Debug$u20$for$u20$u32$GT$3fmt17h37f0322cef62a07eE>
 - func[66] sig=3 <_ZN4core3fmt5write17hf1322ecd41b5383dE>
 - func[67] sig=5 <_ZN36_$LT$T$u20$as$u20$core..any..Any$GT$7type_id17hb6f80db3209e99bbE>
 - func[68] sig=4 <_ZN60_$LT$core..cell..BorrowError$u20$as$u20$core..fmt..Debug$GT$3fmt17hb50357089429856eE>
 - func[69] sig=4 <_ZN63_$LT$core..cell..BorrowMutError$u20$as$u20$core..fmt..Debug$GT$3fmt17hac0c7009eb5b932fE>
 - func[70] sig=6 <_ZN4core6option13expect_failed17h32470bf53a55960aE>
 - func[71] sig=6 <_ZN4core9panicking9panic_str17h8f5dc573828feb22E>
 - func[72] sig=4 <_ZN73_$LT$core..panic..panic_info..PanicInfo$u20$as$u20$core..fmt..Display$GT$3fmt17h6f9f9f617d71dd09E>
 - func[73] sig=4 <_ZN44_$LT$$RF$T$u20$as$u20$core..fmt..Display$GT$3fmt17hc85008c31f0a440eE>
 - func[74] sig=4 <_ZN44_$LT$$RF$T$u20$as$u20$core..fmt..Display$GT$3fmt17h78161ef84d09e156E>
 - func[75] sig=4 <_ZN4core3fmt3num3imp52_$LT$impl$u20$core..fmt..Display$u20$for$u20$u32$GT$3fmt17h4415472ad0848b36E>
 - func[76] sig=4 <_ZN44_$LT$$RF$T$u20$as$u20$core..fmt..Display$GT$3fmt17ha96c0a0aa7a9d0b7E>
 - func[77] sig=7 <_ZN4core9panicking9panic_fmt17hca80ede79c2b9c5bE>
 - func[78] sig=6 <_ZN4core9panicking5panic17hed93247151462affE>
 - func[79] sig=7 <_ZN4core9panicking13panic_display17h9a3b8ea867220babE>
 - func[80] sig=6 <_ZN4core9panicking18panic_bounds_check17hcf9bf795e269a3b3E>
 - func[81] sig=25 <_ZN4core9panicking19assert_failed_inner17h9fbd77a6c9ed370eE>
 - func[82] sig=4 <_ZN42_$LT$$RF$T$u20$as$u20$core..fmt..Debug$GT$3fmt17h4aacf16e052bac2dE>
 - func[83] sig=4 <_ZN59_$LT$core..fmt..Arguments$u20$as$u20$core..fmt..Display$GT$3fmt17h19734391c82bb232E>
 - func[84] sig=11 <_ZN4core6result13unwrap_failed17h31489b714202bf4cE>
 - func[85] sig=3 <_ZN68_$LT$core..fmt..builders..PadAdapter$u20$as$u20$core..fmt..Write$GT$9write_str17h50349cf2bda46db4E>
 - func[86] sig=2 <_ZN4core5slice6memchr14memchr_aligned17h52586b21e53065ddE>
 - func[87] sig=26 <_ZN4core3fmt8builders11DebugStruct5field17hdfa32b474c007a4aE>
 - func[88] sig=3 <_ZN4core3fmt8builders10DebugTuple5field17h162e8b24db952dbfE>
 - func[89] sig=6 <_ZN4core3fmt8builders10DebugInner5entry17h73547940386ca670E.llvm.5436869090389016920>
 - func[90] sig=27 <_ZN4core3fmt3num14parse_u64_into17h2d2062312e1726f7E.llvm.5436869090389016920>
 - func[91] sig=28 <_ZN4core3fmt3num8fmt_u12817h1e2267f7ec692d3dE.llvm.5436869090389016920>
 - func[92] sig=29 <_ZN4core3fmt9Formatter12pad_integral17hedd0845afe31de07E>
 - func[93] sig=4 <_ZN4core3fmt5Write10write_char17h3c32ac3adb31eb60E>
 - func[94] sig=4 <_ZN4core3fmt5Write9write_fmt17hdf054b36a602b4d1E>
 - func[95] sig=3 <_ZN50_$LT$$RF$mut$u20$W$u20$as$u20$core..fmt..Write$GT$9write_str17hb5cff55d43d4b82aE>
 - func[96] sig=4 <_ZN50_$LT$$RF$mut$u20$W$u20$as$u20$core..fmt..Write$GT$10write_char17h03a5389408cae820E>
 - func[97] sig=4 <_ZN50_$LT$$RF$mut$u20$W$u20$as$u20$core..fmt..Write$GT$9write_fmt17h060b3bedde1ee2ceE>
 - func[98] sig=4 <_ZN4core3str5count14do_count_chars17h28d93540a626ff8eE>
 - func[99] sig=26 <_ZN4core3fmt9Formatter12pad_integral12write_prefix17h30d44c10b973ca4eE>
 - func[100] sig=3 <_ZN4core3fmt9Formatter3pad17h5af1b351d2bb71f6E>
 - func[101] sig=30 <_ZN4core3fmt9Formatter25debug_tuple_field2_finish17ha652d43fe946a009E>
 - func[102] sig=3 <_ZN40_$LT$str$u20$as$u20$core..fmt..Debug$GT$3fmt17hf4eea33c72c90c41E>
 - func[103] sig=0 <_ZN4core7unicode12unicode_data15grapheme_extend6lookup17hfe9c1b5f6f99d043E>
 - func[104] sig=0 <_ZN4core7unicode9printable12is_printable17h1e64e70cffe62170E>
 - func[105] sig=11 <_ZN4core3str16slice_error_fail17h2ccdd39d6212ac49E>
 - func[106] sig=4 <_ZN41_$LT$char$u20$as$u20$core..fmt..Debug$GT$3fmt17h65b6e42937bad7acE>
 - func[107] sig=6 <_ZN4core5slice5index26slice_start_index_len_fail17h8ba599f2f2e7178cE>
 - func[108] sig=6 <_ZN4core5slice5index29slice_start_index_len_fail_rt17he9527c6c31b48eb4E>
 - func[109] sig=6 <_ZN4core5slice5index24slice_end_index_len_fail17h77f080b3919acda4E>
 - func[110] sig=6 <_ZN4core5slice5index27slice_end_index_len_fail_rt17h35077c92b7580e41E>
 - func[111] sig=6 <_ZN4core5slice5index22slice_index_order_fail17h9978901de3aace10E>
 - func[112] sig=6 <_ZN4core5slice5index25slice_index_order_fail_rt17hd711940b67bd7f0aE>
 - func[113] sig=11 <_ZN4core3str7pattern11StrSearcher3new17h1348fb959bf4f7beE>
 - func[114] sig=11 <_ZN4core3str19slice_error_fail_rt17h644abfc60b148bc9E>
 - func[115] sig=30 <_ZN4core7unicode9printable5check17h3de90991e2e33c8aE>
 - func[116] sig=31 <_ZN4core3fmt3num3imp7fmt_u6417h0d43ff48ffd885e3E.llvm.5436869090389016920>
 - func[117] sig=4 <_ZN4core3fmt3num3imp51_$LT$impl$u20$core..fmt..Display$u20$for$u20$u8$GT$3fmt17h3313d8ff2039e423E>
 - func[118] sig=4 <_ZN4core3fmt3num3imp52_$LT$impl$u20$core..fmt..Display$u20$for$u20$u64$GT$3fmt17h06bf73c976b587fbE>
 - func[119] sig=4 <_ZN53_$LT$core..fmt..Error$u20$as$u20$core..fmt..Debug$GT$3fmt17ha2d94044358bcb4dE>
 - func[120] sig=4 <_ZN69_$LT$core..alloc..layout..LayoutError$u20$as$u20$core..fmt..Debug$GT$3fmt17h8db04cf97114555cE>
 - func[121] sig=7 <_ZN10scale_info2ty7variant1_105_$LT$impl$u20$parity_scale_codec..codec..Encode$u20$for$u20$scale_info..ty..variant..Variant$LT$T$GT$$GT$9encode_to17ha2028a1e19dd7346E>
 - func[122] sig=7 <_ZN10scale_info2ty6fields1_102_$LT$impl$u20$parity_scale_codec..codec..Encode$u20$for$u20$scale_info..ty..fields..Field$LT$T$GT$$GT$9encode_to17h031be12fd93f90e0E>
 - func[123] sig=1 <_ZN70_$LT$alloc..vec..Vec$LT$T$C$A$GT$$u20$as$u20$core..ops..drop..Drop$GT$4drop17h2eee77fdb91b74c8E>
 - func[124] sig=1 <_ZN70_$LT$alloc..vec..Vec$LT$T$C$A$GT$$u20$as$u20$core..ops..drop..Drop$GT$4drop17ha3e72542ebda8191E>
 - func[125] sig=1 <_ZN86_$LT$alloc..vec..into_iter..IntoIter$LT$T$C$A$GT$$u20$as$u20$core..ops..drop..Drop$GT$4drop17h186abf359571661dE>
 - func[126] sig=7 <_ZN14frame_metadata3v141_116_$LT$impl$u20$parity_scale_codec..codec..Encode$u20$for$u20$frame_metadata..v14..PalletConstantMetadata$LT$T$GT$$GT$9encode_to17hbde475bb07cf3474E>
 - func[127] sig=6 <_ZN65_$LT$$u5b$T$u5d$$u20$as$u20$parity_scale_codec..codec..Encode$GT$9encode_to17h9a96e4dec7c3abdfE>
 - func[128] sig=7 <_ZN14frame_metadata3v141_114_$LT$impl$u20$parity_scale_codec..codec..Encode$u20$for$u20$frame_metadata..v14..StorageEntryMetadata$LT$T$GT$$GT$9encode_to17hb544d3e811f9be9cE>
 - func[129] sig=7 <_ZN14frame_metadata3v141_108_$LT$impl$u20$parity_scale_codec..codec..Encode$u20$for$u20$frame_metadata..v14..PalletMetadata$LT$T$GT$$GT$9encode_to17h22e58d2eef4015e8E>
 - func[130] sig=32 <_ZN14frame_metadata3v1418RuntimeMetadataV143new17ha8fc5f480ee83313E>
 - func[131] sig=6 <_ZN90_$LT$frame_metadata..v14..PalletMetadata$u20$as$u20$scale_info..registry..IntoPortable$GT$13into_portable17h8580b681bb2d7cdeE>
 - func[132] sig=7 <_ZN14frame_metadata3v141_103_$LT$impl$u20$parity_scale_codec..codec..Encode$u20$for$u20$frame_metadata..v14..RuntimeMetadataV14$GT$9encode_to17h71d5ce7e9b6e5e45E>
 - func[133] sig=7 <_ZN14frame_metadata3v141_115_$LT$impl$u20$parity_scale_codec..codec..Encode$u20$for$u20$frame_metadata..v14..PalletStorageMetadata$LT$T$GT$$GT$9encode_to17h8826bb29ef8238f4E>
 - func[134] sig=7 <_ZN10scale_info2ty1_102_$LT$impl$u20$parity_scale_codec..codec..Encode$u20$for$u20$scale_info..ty..TypeParameter$LT$T$GT$$GT$9encode_to17h89d60f8e0ae65d7aE>
 - func[135] sig=7 <_ZN10scale_info2ty1_93_$LT$impl$u20$parity_scale_codec..codec..Encode$u20$for$u20$scale_info..ty..Type$LT$T$GT$$GT$9encode_to17hc446c147a159751cE>
 - func[136] sig=7 <_ZN112_$LT$frame_metadata..RuntimeMetadataPrefixed$u20$as$u20$core..convert..Into$LT$alloc..vec..Vec$LT$u8$GT$$GT$$GT$4into17h5c7d737ada9d3c32E>
 - func[137] sig=7 <_ZN102_$LT$core..iter..adapters..map..Map$LT$I$C$F$GT$$u20$as$u20$core..iter..traits..iterator..Iterator$GT$4fold17h26af149d591f36e8E>
 - func[138] sig=7 <_ZN102_$LT$core..iter..adapters..map..Map$LT$I$C$F$GT$$u20$as$u20$core..iter..traits..iterator..Iterator$GT$4fold17h4a8a2fe0792b1338E>
 - func[139] sig=7 <_ZN102_$LT$core..iter..adapters..map..Map$LT$I$C$F$GT$$u20$as$u20$core..iter..traits..iterator..Iterator$GT$4fold17h8729ade6e59a49c5E>
 - func[140] sig=7 <_ZN102_$LT$core..iter..adapters..map..Map$LT$I$C$F$GT$$u20$as$u20$core..iter..traits..iterator..Iterator$GT$4fold17hb88aae9cbef9327eE>
 - func[141] sig=7 <_ZN83_$LT$core..option..Option$LT$T$GT$$u20$as$u20$parity_scale_codec..codec..Encode$GT$9encode_to17h827c98db057af752E>
 - func[142] sig=7 <_ZN104_$LT$parity_scale_codec..compact..CompactRef$LT$u32$GT$$u20$as$u20$parity_scale_codec..codec..Encode$GT$9encode_to17hd6d7745dda2f743aE>
 - func[143] sig=7 <_ZN99_$LT$parity_scale_codec..compact..Compact$LT$T$GT$$u20$as$u20$parity_scale_codec..codec..Encode$GT$9encode_to17hfa284afd6d0ecc55E>
 - func[144] sig=2 <_ZN5alloc7raw_vec11finish_grow17h32ccbef0e59f5989E.llvm.6877057420281360662>
 - func[145] sig=7 <_ZN5alloc7raw_vec19RawVec$LT$T$C$A$GT$16reserve_for_push17h17f16fd828c07247E>
 - func[146] sig=7 <_ZN5alloc7raw_vec19RawVec$LT$T$C$A$GT$16reserve_for_push17h8a920b53a6ce7ec8E>
 - func[147] sig=6 <_ZN5alloc7raw_vec19RawVec$LT$T$C$A$GT$7reserve21do_reserve_and_handle17h2503d7bbe6d4f77bE>
 - func[148] sig=6 <_ZN5alloc7raw_vec19RawVec$LT$T$C$A$GT$7reserve21do_reserve_and_handle17h2959931affab4f12E>
 - func[149] sig=6 <_ZN5alloc7raw_vec19RawVec$LT$T$C$A$GT$7reserve21do_reserve_and_handle17hc9cbbc8f5be131b2E>
 - func[150] sig=7 <_ZN137_$LT$alloc..vec..Vec$LT$T$GT$$u20$as$u20$alloc..vec..spec_from_iter..SpecFromIter$LT$T$C$alloc..vec..into_iter..IntoIter$LT$T$GT$$GT$$GT$9from_iter17h2abb4b866188efe2E>
 - func[151] sig=7 <_ZN137_$LT$alloc..vec..Vec$LT$T$GT$$u20$as$u20$alloc..vec..spec_from_iter..SpecFromIter$LT$T$C$alloc..vec..into_iter..IntoIter$LT$T$GT$$GT$$GT$9from_iter17h709e30781c814cc3E>
 - func[152] sig=7 <_ZN98_$LT$alloc..vec..Vec$LT$T$GT$$u20$as$u20$alloc..vec..spec_from_iter..SpecFromIter$LT$T$C$I$GT$$GT$9from_iter17h818f866873e1237eE>
 - func[153] sig=1 <_ZN4core3ptr27drop_in_place$LT$$RF$u8$GT$17h1cca76bb84ec293fE.llvm.1649256116416137565>
 - func[154] sig=4 <_ZN13frame_support7storage8unhashed14get_or_default17h7e6922c9e08ad11bE>
 - func[155] sig=1 <_ZN13frame_support8dispatch1_80_$LT$impl$u20$scale_info..TypeInfo$u20$for$u20$frame_support..dispatch..Pays$GT$9type_info17h5b5bdd212510a372E>
 - func[156] sig=1 <_ZN13frame_support8dispatch1_89_$LT$impl$u20$scale_info..TypeInfo$u20$for$u20$frame_support..dispatch..DispatchClass$GT$9type_info17h9f3893a1f2353432E>
 - func[157] sig=1 <_ZN13frame_support8dispatch1_88_$LT$impl$u20$scale_info..TypeInfo$u20$for$u20$frame_support..dispatch..DispatchInfo$GT$9type_info17haff61faafeb458a3E>
 - func[158] sig=7 <_ZN106_$LT$core..iter..adapters..chain..Chain$LT$A$C$B$GT$$u20$as$u20$core..iter..traits..iterator..Iterator$GT$4fold17h1430d885f0942165E>
 - func[159] sig=1 <_ZN13frame_support16dispatch_context6GLOBAL6__init17hcbc8f33399875c95E>
 - func[160] sig=4 <_ZN42_$LT$$RF$T$u20$as$u20$core..fmt..Debug$GT$3fmt17h4cd94d938c6dc054E>
 - func[161] sig=4 <_ZN42_$LT$$RF$T$u20$as$u20$core..fmt..Debug$GT$3fmt17haab563c08de90afbE>
 - func[162] sig=1 <_ZN13frame_support6traits6tokens4misc1_101_$LT$impl$u20$scale_info..TypeInfo$u20$for$u20$frame_support..traits..tokens..misc..BalanceStatus$GT$9type_info17ha1ada78dab260cf3E>
 - func[163] sig=2 <_ZN5alloc7raw_vec11finish_grow17h36c5660fb2a3b7aaE.llvm.3438874305905738647>
 - func[164] sig=7 <_ZN5alloc7raw_vec19RawVec$LT$T$C$A$GT$16reserve_for_push17h52acfb1ddeb7fe78E>
 - func[165] sig=7 <_ZN5alloc7raw_vec19RawVec$LT$T$C$A$GT$16reserve_for_push17h5cbd8d12228a4f8eE>
 - func[166] sig=6 <_ZN5alloc7raw_vec19RawVec$LT$T$C$A$GT$7reserve21do_reserve_and_handle17h493620ac537bf410E>
 - func[167] sig=6 <_ZN5alloc7raw_vec19RawVec$LT$T$C$A$GT$7reserve21do_reserve_and_handle17h5b9d865a90ed0c93E>
 - func[168] sig=2 <_ZN10scale_info5build17Variants$LT$F$GT$7variant17h5c74b042d386481dE>
 - func[169] sig=2 <_ZN10scale_info5build17Variants$LT$F$GT$7variant17hb808acc92183112bE>
 - func[170] sig=1 <_ZN10scale_info5impls80_$LT$impl$u20$scale_info..TypeInfo$u20$for$u20$core..option..Option$LT$T$GT$$GT$9type_info17hbc31321a0bd6d550E>
 - func[171] sig=1 <_ZN10scale_info5impls96_$LT$impl$u20$scale_info..TypeInfo$u20$for$u20$parity_scale_codec..compact..Compact$LT$T$GT$$GT$9type_info17h39a66922b072e181E>
 - func[172] sig=7 <_ZN137_$LT$alloc..vec..Vec$LT$T$GT$$u20$as$u20$alloc..vec..spec_from_iter..SpecFromIter$LT$T$C$alloc..vec..into_iter..IntoIter$LT$T$GT$$GT$$GT$9from_iter17h2c3a998df1882e33E>
 - func[173] sig=7 <_ZN137_$LT$alloc..vec..Vec$LT$T$GT$$u20$as$u20$alloc..vec..spec_from_iter..SpecFromIter$LT$T$C$alloc..vec..into_iter..IntoIter$LT$T$GT$$GT$$GT$9from_iter17h2fd37fb6ec4e5cd9E>
 - func[174] sig=1 <_ZN4core3ptr59drop_in_place$LT$frame_system..limits..ValidationErrors$GT$17he225af7d3cb54ac5E.llvm.13291181191807716821>
 - func[175] sig=7 <_ZN12frame_system6limits12BlockWeights8validate17h2732dd53c145fa98E>
 - func[176] sig=33 <_ZN12frame_system6limits12BlockWeights22with_sensible_defaults17hd2d47f3c97ed7278E>
 - func[177] sig=7 <_ZN12frame_system6limits19BlockWeightsBuilder5build17h1f52c3a4a30f43f7E>
 - func[178] sig=1 <_ZN12frame_system6limits1_84_$LT$impl$u20$scale_info..TypeInfo$u20$for$u20$frame_system..limits..BlockLength$GT$9type_info17hf4c1bc5cbda69aa3E>
 - func[179] sig=4 <_ZN75_$LT$frame_system..limits..ValidationErrors$u20$as$u20$core..fmt..Debug$GT$3fmt17h1bbf1cadae77cb4bE>
 - func[180] sig=1 <_ZN12frame_system6limits1_88_$LT$impl$u20$scale_info..TypeInfo$u20$for$u20$frame_system..limits..WeightsPerClass$GT$9type_info17he3d0fea46c21deb0E>
 - func[181] sig=1 <_ZN12frame_system6limits1_85_$LT$impl$u20$scale_info..TypeInfo$u20$for$u20$frame_system..limits..BlockWeights$GT$9type_info17hcf7d4941bbf06594E>
 - func[182] sig=1 <_ZN13frame_support8dispatch1_101_$LT$impl$u20$scale_info..TypeInfo$u20$for$u20$frame_support..dispatch..PerDispatchClass$LT$T$GT$$GT$9type_info17h5173e746d47a91e9E>
 - func[183] sig=1 <_ZN13frame_support8dispatch1_101_$LT$impl$u20$scale_info..TypeInfo$u20$for$u20$frame_support..dispatch..PerDispatchClass$LT$T$GT$$GT$9type_info17h9add06eac3679ee2E>
 - func[184] sig=7 <_ZN55_$LT$X$u20$as$u20$parity_scale_codec..codec..Encode$GT$6encode17h6c8fd6ae46ee99b1E>
 - func[185] sig=1 <_ZN12frame_system1_70_$LT$impl$u20$scale_info..TypeInfo$u20$for$u20$frame_system..Phase$GT$9type_info17h11595b8b00e60cdaE>
 - func[186] sig=1 <_ZN12frame_system1_87_$LT$impl$u20$scale_info..TypeInfo$u20$for$u20$frame_system..LastRuntimeUpgradeInfo$GT$9type_info17h5be8a228d2817660E>
 - func[187] sig=4 <_ZN85_$LT$sp_arithmetic..per_things..Perbill$u20$as$u20$core..ops..arith..Mul$LT$N$GT$$GT$3mul17h23f64e739f7b994aE>
 - func[188] sig=1 <_ZN4core3ptr35drop_in_place$LT$log..NopLogger$GT$17h5b34479dd1d8b94cE.llvm.765246861957232611>
 - func[189] sig=4 <_ZN43_$LT$log..NopLogger$u20$as$u20$log..Log$GT$7enabled17h557ef0e1e8f2b53eE>
 - func[190] sig=7 <_ZN43_$LT$log..NopLogger$u20$as$u20$log..Log$GT$3log17h67624d27cdde799eE>
 - func[191] sig=1 <_ZN43_$LT$log..NopLogger$u20$as$u20$log..Log$GT$5flush17h75a71356521b2677E>
 - func[192] sig=11 <_ZN3log17__private_api_log17h5be3d38ab6e37a21E>
 - func[193] sig=6 <_ZN18parity_scale_codec5codec19decode_vec_with_len17h151a35b63336b58dE>
 - func[194] sig=6 <_ZN18parity_scale_codec5codec19decode_vec_with_len17h5069278c8f092553E>
 - func[195] sig=6 <_ZN18parity_scale_codec5codec19decode_vec_with_len17h76abfd9ef23fa706E>
 - func[196] sig=6 <_ZN18parity_scale_codec5codec19decode_vec_with_len17h926ef208355ecc15E>
 - func[197] sig=6 <_ZN18parity_scale_codec5codec19decode_vec_with_len17ha1298edd09300a2aE>
 - func[198] sig=6 <_ZN18parity_scale_codec5codec19decode_vec_with_len17hc35b486e0f4e2983E>
 - func[199] sig=6 <_ZN18parity_scale_codec5codec19decode_vec_with_len17hc4a5273f9c5c031aE>
 - func[200] sig=6 <_ZN18parity_scale_codec5codec19decode_vec_with_len17hc78f94de48a05a32E>
 - func[201] sig=6 <_ZN18parity_scale_codec5codec19decode_vec_with_len17hce29ab4d3b0483d8E>
 - func[202] sig=6 <_ZN18parity_scale_codec5codec19decode_vec_with_len17hde2719e146f23e8cE>
 - func[203] sig=6 <_ZN18parity_scale_codec5codec19encode_slice_no_len17hfdfcb4863d739ed3E>
 - func[204] sig=2 <_ZN18parity_scale_codec5codec6Encode13using_encoded17h253d5a0649c9a36fE>
 - func[205] sig=0 <_ZN55_$LT$X$u20$as$u20$parity_scale_codec..codec..Encode$GT$13using_encoded17hb5387a0bafbb70b6E>
 - func[206] sig=2 <_ZN5alloc7raw_vec11finish_grow17hea2eb890627b8cc3E.llvm.7107296659269267214>
 - func[207] sig=7 <_ZN5alloc7raw_vec19RawVec$LT$T$C$A$GT$16reserve_for_push17h40c1ea72fd272ab7E>
 - func[208] sig=7 <_ZN5alloc7raw_vec19RawVec$LT$T$C$A$GT$16reserve_for_push17h4951112804389933E>
 - func[209] sig=7 <_ZN5alloc7raw_vec19RawVec$LT$T$C$A$GT$16reserve_for_push17h56fcc1010812324dE>
 - func[210] sig=7 <_ZN5alloc7raw_vec19RawVec$LT$T$C$A$GT$16reserve_for_push17h65697bdaa18df861E>
 - func[211] sig=7 <_ZN5alloc7raw_vec19RawVec$LT$T$C$A$GT$16reserve_for_push17h7d6e1b25506d9fdcE>
 - func[212] sig=7 <_ZN5alloc7raw_vec19RawVec$LT$T$C$A$GT$16reserve_for_push17h844cc6910f8fce1fE>
 - func[213] sig=7 <_ZN5alloc7raw_vec19RawVec$LT$T$C$A$GT$16reserve_for_push17h9bdce92e6fb390bfE>
 - func[214] sig=7 <_ZN5alloc7raw_vec19RawVec$LT$T$C$A$GT$16reserve_for_push17hb05279cce7573048E>
 - func[215] sig=7 <_ZN5alloc7raw_vec19RawVec$LT$T$C$A$GT$16reserve_for_push17hc21cfcb862ced6d9E>
 - func[216] sig=7 <_ZN5alloc7raw_vec19RawVec$LT$T$C$A$GT$16reserve_for_push17hc2406fcad8cc7680E>
 - func[217] sig=7 <_ZN5alloc7raw_vec19RawVec$LT$T$C$A$GT$16reserve_for_push17he17f151176c92dd4E>
 - func[218] sig=7 <_ZN5alloc7raw_vec19RawVec$LT$T$C$A$GT$16reserve_for_push17hfc0cc7a9807dac76E>
 - func[219] sig=6 <_ZN5alloc7raw_vec19RawVec$LT$T$C$A$GT$7reserve21do_reserve_and_handle17h2698607530d6ab45E>
 - func[220] sig=6 <_ZN5alloc7raw_vec19RawVec$LT$T$C$A$GT$7reserve21do_reserve_and_handle17h5e2e46a4dded97c3E>
 - func[221] sig=6 <_ZN5alloc7raw_vec19RawVec$LT$T$C$A$GT$7reserve21do_reserve_and_handle17ha7507ea0cf841871E>
 - func[222] sig=6 <_ZN5alloc7raw_vec19RawVec$LT$T$C$A$GT$7reserve21do_reserve_and_handle17hee3fe016847d6c32E>
 - func[223] sig=6 <_ZN5alloc7raw_vec19RawVec$LT$T$C$A$GT$7reserve21do_reserve_and_handle17heeeb75d44646eea0E>
 - func[224] sig=7 <_ZN101_$LT$parity_scale_codec..compact..Compact$LT$u32$GT$$u20$as$u20$parity_scale_codec..codec..Decode$GT$6decode17h218601b37f0d9c70E>
 - func[225] sig=7 <_ZN101_$LT$parity_scale_codec..compact..Compact$LT$u32$GT$$u20$as$u20$parity_scale_codec..codec..Decode$GT$6decode17h66ff4f7752c6d8caE>
 - func[226] sig=7 <_ZN101_$LT$parity_scale_codec..compact..Compact$LT$u64$GT$$u20$as$u20$parity_scale_codec..codec..Decode$GT$6decode17h9e7ec1a19ed7dc8fE>
 - func[227] sig=7 <_ZN101_$LT$parity_scale_codec..compact..Compact$LT$u64$GT$$u20$as$u20$parity_scale_codec..codec..Decode$GT$6decode17hdf21abd13bd7b6a7E.llvm.8771510674240836652>
 - func[228] sig=7 <_ZN102_$LT$parity_scale_codec..compact..Compact$LT$u128$GT$$u20$as$u20$parity_scale_codec..codec..Decode$GT$6decode17hc9d23212a3309ba7E>
 - func[229] sig=7 <_ZN104_$LT$parity_scale_codec..compact..CompactRef$LT$u32$GT$$u20$as$u20$parity_scale_codec..codec..Encode$GT$9encode_to17hcb2fd939b742aa20E>
 - func[230] sig=7 <_ZN104_$LT$parity_scale_codec..compact..CompactRef$LT$u64$GT$$u20$as$u20$parity_scale_codec..codec..Encode$GT$9encode_to17h0a6f748ab23435f9E>
 - func[231] sig=7 <_ZN105_$LT$parity_scale_codec..compact..CompactRef$LT$u128$GT$$u20$as$u20$parity_scale_codec..codec..Encode$GT$9encode_to17h956d9b80c960e97cE>
 - func[232] sig=1 <_ZN10scale_info5impls96_$LT$impl$u20$scale_info..TypeInfo$u20$for$u20$parity_scale_codec..compact..Compact$LT$T$GT$$GT$9type_info17h11141a559861ebeaE>
 - func[233] sig=1 <_ZN10scale_info5impls96_$LT$impl$u20$scale_info..TypeInfo$u20$for$u20$parity_scale_codec..compact..Compact$LT$T$GT$$GT$9type_info17h4a23172c9155ca33E>
 - func[234] sig=1 <_ZN10scale_info5impls96_$LT$impl$u20$scale_info..TypeInfo$u20$for$u20$parity_scale_codec..compact..Compact$LT$T$GT$$GT$9type_info17h61b1f3e49ed34d16E>
 - func[235] sig=1 <_ZN10scale_info5impls96_$LT$impl$u20$scale_info..TypeInfo$u20$for$u20$parity_scale_codec..compact..Compact$LT$T$GT$$GT$9type_info17h8d7122fc84462605E>
 - func[236] sig=34 <_ZN152_$LT$pallet_transaction_payment..payment..CurrencyAdapter$LT$C$C$OU$GT$$u20$as$u20$pallet_transaction_payment..payment..OnChargeTransaction$LT$T$GT$$GT$23correct_and_deposit_fee17h0985dbc3a2bdab35E>
 - func[237] sig=1 <_ZN15pallet_template6pallet1_89_$LT$impl$u20$scale_info..TypeInfo$u20$for$u20$pallet_template..pallet..Call$LT$T$GT$$GT$9type_info17hfa1c296f650bebb2E>
 - func[238] sig=1 <_ZN15pallet_template6pallet1_90_$LT$impl$u20$scale_info..TypeInfo$u20$for$u20$pallet_template..pallet..Error$LT$T$GT$$GT$9type_info17h5b9eb5a8a4e92bf8E>
 - func[239] sig=7 <_ZN15pallet_template6pallet1_102_$LT$impl$u20$parity_scale_codec..codec..Encode$u20$for$u20$pallet_template..pallet..Call$LT$T$GT$$GT$9encode_to17hc2ca3168890235e0E>
 - func[240] sig=7 <_ZN15pallet_template6pallet1_103_$LT$impl$u20$parity_scale_codec..codec..Encode$u20$for$u20$pallet_template..pallet..Event$LT$T$GT$$GT$9encode_to17h991cde8ecf877904E>
 - func[241] sig=1 <_ZN15pallet_template6pallet1_90_$LT$impl$u20$scale_info..TypeInfo$u20$for$u20$pallet_template..pallet..Event$LT$T$GT$$GT$9type_info17h8f91fe99d5fef1e5E>
 - func[242] sig=13 <_ZN167_$LT$pallet_template..pallet..Pallet$LT$T$GT$$u20$as$u20$frame_support..traits..hooks..OnIdle$LT$$LT$T$u20$as$u20$frame_system..pallet..Config$GT$..BlockNumber$GT$$GT$7on_idle17hc24857aa0ba93c81E>
 - func[243] sig=7 <_ZN18parity_scale_codec5codec6Encode6encode17h32bef1d39111d903E>
 - func[244] sig=7 <_ZN18parity_scale_codec5codec6Encode6encode17h4b5637bd6f81d79bE>
 - func[245] sig=7 <_ZN26pallet_transaction_payment5types1_126_$LT$impl$u20$parity_scale_codec..codec..Encode$u20$for$u20$pallet_transaction_payment..types..InclusionFee$LT$Balance$GT$$GT$9encode_to17h86297e4664da18c0E>
 - func[246] sig=7 <_ZN18parity_scale_codec5codec6Encode6encode17hc8e3a49f90ae8e8dE>
 - func[247] sig=1 <_ZN20sp_consensus_grandpa1_103_$LT$impl$u20$scale_info..TypeInfo$u20$for$u20$sp_consensus_grandpa..EquivocationProof$LT$H$C$N$GT$$GT$9type_info17h73a4a90f9fe97b56E>
 - func[248] sig=1 <_ZN20sp_consensus_grandpa1_98_$LT$impl$u20$scale_info..TypeInfo$u20$for$u20$sp_consensus_grandpa..Equivocation$LT$H$C$N$GT$$GT$9type_info17h1c6a788cc4f4f71dE>
 - func[249] sig=7 <_ZN99_$LT$parity_scale_codec..compact..Compact$LT$T$GT$$u20$as$u20$parity_scale_codec..codec..Encode$GT$9encode_to17h79056b7e92960d6aE>
 - func[250] sig=4 <_ZN44_$LT$$RF$T$u20$as$u20$core..fmt..Display$GT$3fmt17h2ca9e037480cfd3aE>
 - func[251] sig=7 <_ZN55_$LT$X$u20$as$u20$parity_scale_codec..codec..Encode$GT$9encode_to17hbb152d9877affe46E>
 - func[252] sig=6 <_ZN66_$LT$T$u20$as$u20$parity_scale_codec..depth_limit..DecodeLimit$GT$27decode_all_with_depth_limit17ha270cd60bfd4b603E>
 - func[253] sig=7 <_ZN81_$LT$alloc..borrow..Cow$LT$T$GT$$u20$as$u20$parity_scale_codec..codec..Decode$GT$6decode17hcba50b2e6b7b8b35E>
 - func[254] sig=7 <_ZN99_$LT$pallet_template..pallet..Call$LT$T$GT$$u20$as$u20$frame_support..dispatch..GetDispatchInfo$GT$17get_dispatch_info17hf235e6ca721187b0E>
 - func[255] sig=1 <_ZN13frame_support7storage5types5value56StorageValue$LT$Prefix$C$Value$C$QueryKind$C$OnEmpty$GT$10decode_len17he180fb6b7237b59fE>
 - func[256] sig=35 <_ZN13frame_support7storage5types5value56StorageValue$LT$Prefix$C$Value$C$QueryKind$C$OnEmpty$GT$3get17hc50f805ccd3c55c1E>
 - func[257] sig=20 <_ZN13frame_support7storage5types5value56StorageValue$LT$Prefix$C$Value$C$QueryKind$C$OnEmpty$GT$3put17h8eb9fdc1ae7a74ffE>
 - func[258] sig=7 <_ZN13frame_support7storage5types5value56StorageValue$LT$Prefix$C$Value$C$QueryKind$C$OnEmpty$GT$3put17hf421e92b8d1161d6E>
 - func[259] sig=1 <_ZN13frame_support7storage5types5value56StorageValue$LT$Prefix$C$Value$C$QueryKind$C$OnEmpty$GT$6append17h0e7f781c4c6b8271E>
 - func[260] sig=1 <_ZN13frame_support7storage5types5value56StorageValue$LT$Prefix$C$Value$C$QueryKind$C$OnEmpty$GT$6append17h210a8c03fc56a734E>
 - func[261] sig=7 <_ZN13frame_support7storage5types5value56StorageValue$LT$Prefix$C$Value$C$QueryKind$C$OnEmpty$GT$6mutate17hb233e1c9da61666cE>
 - func[262] sig=7 <_ZN13frame_support7storage5types5value56StorageValue$LT$Prefix$C$Value$C$QueryKind$C$OnEmpty$GT$6mutate17hce64c488b4238e81E>
 - func[263] sig=10 <_ZN13frame_support7storage5types5value56StorageValue$LT$Prefix$C$Value$C$QueryKind$C$OnEmpty$GT$6mutate17hf95eaabcb22865afE>
 - func[264] sig=7 <_ZN173_$LT$frame_support..storage..types..value..StorageValue$LT$Prefix$C$Value$C$QueryKind$C$OnEmpty$GT$$u20$as$u20$frame_support..storage..types..StorageEntryMetadataBuilder$GT$14build_metadata17h9a3856280adadf68E>
 - func[265] sig=7 <_ZN173_$LT$frame_support..storage..types..value..StorageValue$LT$Prefix$C$Value$C$QueryKind$C$OnEmpty$GT$$u20$as$u20$frame_support..storage..types..StorageEntryMetadataBuilder$GT$14build_metadata17hb8679391156f5dd4E>
 - func[266] sig=1 <_ZN4core3ptr55drop_in_place$LT$node_template_runtime..RuntimeCall$GT$17h1a652cb8af7ee3fdE.llvm.16815759223583224368>
 - func[267] sig=4 <_ZN44_$LT$$RF$T$u20$as$u20$core..fmt..Display$GT$3fmt17hca80dc17a9a37fbcE>
 - func[268] sig=1 <_ZN12frame_system10extensions12check_weight1_111_$LT$impl$u20$scale_info..TypeInfo$u20$for$u20$frame_system..extensions..check_weight..CheckWeight$LT$T$GT$$GT$9type_info17h5d153acc0cce666eE>
 - func[269] sig=4 <_ZN12frame_system10extensions12check_weight20CheckWeight$LT$T$GT$15do_pre_dispatch17h0e7a8b360a24b0c6E.llvm.2314689094233035969>
 - func[270] sig=26 <_ZN116_$LT$frame_system..extensions..check_weight..CheckWeight$LT$T$GT$$u20$as$u20$sp_runtime..traits..SignedExtension$GT$13post_dispatch17h4edf3df1ec137c5cE>
 - func[271] sig=6 <_ZN12frame_system10extensions12check_weight20CheckWeight$LT$T$GT$11do_validate17h14ff8c4be7655cf6E.llvm.2314689094233035969>
 - func[272] sig=1 <_ZN11pallet_sudo6pallet1_85_$LT$impl$u20$scale_info..TypeInfo$u20$for$u20$pallet_sudo..pallet..Call$LT$T$GT$$GT$9type_info17h1b79dd2467687958E>
 - func[273] sig=1 <_ZN11pallet_sudo6pallet1_86_$LT$impl$u20$scale_info..TypeInfo$u20$for$u20$pallet_sudo..pallet..Error$LT$T$GT$$GT$9type_info17h67e3519cbd2d46aeE>
 - func[274] sig=1 <_ZN11pallet_sudo6pallet15Pallet$LT$T$GT$16storage_metadata17h9c4bacd8b23e295aE>
 - func[275] sig=1 <_ZN11pallet_sudo6pallet1_86_$LT$impl$u20$scale_info..TypeInfo$u20$for$u20$pallet_sudo..pallet..Event$LT$T$GT$$GT$9type_info17h355424c55e7073feE>
 - func[276] sig=7 <_ZN11pallet_sudo6pallet1_98_$LT$impl$u20$parity_scale_codec..codec..Decode$u20$for$u20$pallet_sudo..pallet..Call$LT$T$GT$$GT$6decode17h82c93de81fb0dbd3E>
 - func[277] sig=1 <_ZN4core3ptr80drop_in_place$LT$alloc..boxed..Box$LT$node_template_runtime..RuntimeCall$GT$$GT$17h5538b4edb8cd00f4E>
 - func[278] sig=7 <_ZN11pallet_sudo6pallet1_98_$LT$impl$u20$parity_scale_codec..codec..Encode$u20$for$u20$pallet_sudo..pallet..Call$LT$T$GT$$GT$9encode_to17hf68f30bdc3cf69e9E>
 - func[279] sig=7 <_ZN11pallet_sudo6pallet1_99_$LT$impl$u20$parity_scale_codec..codec..Encode$u20$for$u20$pallet_sudo..pallet..Event$LT$T$GT$$GT$9encode_to17hc9add6ab3f0490f3E>
 - func[280] sig=36 <_ZN13sp_arithmetic10per_things7Percent13from_rational17h0976353a60d7d2e3E>
 - func[281] sig=13 <_ZN163_$LT$pallet_sudo..pallet..Pallet$LT$T$GT$$u20$as$u20$frame_support..traits..hooks..OnIdle$LT$$LT$T$u20$as$u20$frame_system..pallet..Config$GT$..BlockNumber$GT$$GT$7on_idle17hfa753ec3a3ecce05E>
 - func[282] sig=1 <_ZN19bounded_collections11bounded_vec1_108_$LT$impl$u20$scale_info..TypeInfo$u20$for$u20$bounded_collections..bounded_vec..BoundedVec$LT$T$C$S$GT$$GT$9type_info17h4c27b6d55963cb47E>
 - func[283] sig=1 <_ZN19bounded_collections11bounded_vec1_108_$LT$impl$u20$scale_info..TypeInfo$u20$for$u20$bounded_collections..bounded_vec..BoundedVec$LT$T$C$S$GT$$GT$9type_info17h7e13a521e013ac99E>
 - func[284] sig=1 <_ZN19bounded_collections11bounded_vec1_108_$LT$impl$u20$scale_info..TypeInfo$u20$for$u20$bounded_collections..bounded_vec..BoundedVec$LT$T$C$S$GT$$GT$9type_info17hfd3dee54f4b88b2bE>
 - func[285] sig=4 <_ZN42_$LT$$RF$T$u20$as$u20$core..fmt..Debug$GT$3fmt17h461223056f9a88c7E>
 - func[286] sig=4 <_ZN42_$LT$$RF$T$u20$as$u20$core..fmt..Debug$GT$3fmt17h8132ebf943b9d58cE>
 - func[287] sig=4 <_ZN42_$LT$$RF$T$u20$as$u20$core..fmt..Debug$GT$3fmt17h83344b0bcecf5a62E>
 - func[288] sig=4 <_ZN42_$LT$$RF$T$u20$as$u20$core..fmt..Debug$GT$3fmt17h9b14aa2c65e52cd3E>
 - func[289] sig=4 <_ZN42_$LT$$RF$T$u20$as$u20$core..fmt..Debug$GT$3fmt17ha0ab1c76edc08a49E.llvm.2314689094233035969>
 - func[290] sig=4 <_ZN42_$LT$$RF$T$u20$as$u20$core..fmt..Debug$GT$3fmt17hd94f9dcaaca9901dE>
 - func[291] sig=1 <_ZN4core3ptr28drop_in_place$LT$$RF$str$GT$17hd8bf2e923ada5034E.llvm.2314689094233035969>
 - func[292] sig=7 <_ZN55_$LT$X$u20$as$u20$parity_scale_codec..codec..Encode$GT$13using_encoded17h5d9c07a896bf68daE>
 - func[293] sig=6 <_ZN5alloc5slice10merge_sort17hde616fd2d0697673E>
 - func[294] sig=7 <_ZN95_$LT$pallet_sudo..pallet..Call$LT$T$GT$$u20$as$u20$frame_support..dispatch..GetDispatchInfo$GT$17get_dispatch_info17h52288317e59ed97eE>
 - func[295] sig=7 <_ZN21node_template_runtime6opaque11SessionKeys8generate17hce58381ad4211549E>
 - func[296] sig=6 <_ZN21node_template_runtime6opaque11SessionKeys27decode_into_raw_public_keys17hb876ce0a1adca990E>
 - func[297] sig=3 <_ZN18parity_scale_codec5codec6Encode13using_encoded17h801fcea52399b27fE>
 - func[298] sig=7 <_ZN21node_template_runtime1_98_$LT$impl$u20$parity_scale_codec..codec..Encode$u20$for$u20$node_template_runtime..RuntimeCall$GT$9encode_to17h96c4d3b1ee984045E>
 - func[299] sig=4 <_ZN4core3ops8function2Fn4call17h809592978d1d343aE.llvm.9960300954485291629>
 - func[300] sig=4 <_ZN4core3ops8function5FnMut8call_mut17h8e9e4b62a87674e4E.llvm.9960300954485291629>
 - func[301] sig=4 <_ZN4core3ops8function6FnOnce40call_once$u7b$$u7b$vtable.shim$u7d$$u7d$17h738cbcabf21f87b5E.llvm.9960300954485291629>
 - func[302] sig=4 <_ZN4core3ops8function6FnOnce40call_once$u7b$$u7b$vtable.shim$u7d$$u7d$17h9b5050b15a384180E.llvm.9960300954485291629>
 - func[303] sig=1 <_ZN4core3ptr174drop_in_place$LT$$LT$node_template_runtime..RuntimeOrigin$u20$as$u20$core..convert..From$LT$node_template_runtime..OriginCaller$GT$$GT$..from..$u7b$$u7b$closure$u7d$$u7d$$GT$17h4450ab14ab77e630E.llvm.9960300954485291629>
 - func[304] sig=1 <_ZN4core3ptr55drop_in_place$LT$node_template_runtime..RuntimeCall$GT$17h1a652cb8af7ee3fdE.llvm.9960300954485291629>
 - func[305] sig=7 <_ZN21node_template_runtime1_98_$LT$impl$u20$parity_scale_codec..codec..Decode$u20$for$u20$node_template_runtime..RuntimeCall$GT$6decode17hd0c4f55e202e8fbaE>
 - func[306] sig=7 <_ZN215_$LT$node_template_runtime..RuntimeOrigin$u20$as$u20$core..convert..From$LT$frame_support..dispatch..RawOrigin$LT$$LT$node_template_runtime..Runtime$u20$as$u20$frame_system..pallet..Config$GT$..AccountId$GT$$GT$$GT$4from17h49ae9573e4d52841E>
 - func[307] sig=4 <_ZN119_$LT$node_template_runtime..RuntimeOrigin$u20$as$u20$core..convert..From$LT$node_template_runtime..OriginCaller$GT$$GT$4from28_$u7b$$u7b$closure$u7d$$u7d$17h459c50511027ca5fE.llvm.9960300954485291629>
 - func[308] sig=1 <_ZN97_$LT$node_template_runtime..PalletInfo$u20$as$u20$frame_support..traits..metadata..PalletInfo$GT$4name17h1f88f077ba79c576E>
 - func[309] sig=1 <_ZN97_$LT$node_template_runtime..PalletInfo$u20$as$u20$frame_support..traits..metadata..PalletInfo$GT$4name17h80ad74595934b99eE>
 - func[310] sig=7 <_ZN95_$LT$node_template_runtime..RuntimeCall$u20$as$u20$frame_support..dispatch..GetDispatchInfo$GT$17get_dispatch_info17h73c82f218656cc4dE>
 - func[311] sig=6 <_ZN87_$LT$node_template_runtime..RuntimeCall$u20$as$u20$sp_runtime..traits..Dispatchable$GT$8dispatch17h1fcc165d6f9ed04aE>
 - func[312] sig=6 <_ZN110_$LT$node_template_runtime..RuntimeCall$u20$as$u20$frame_support..traits..dispatch..UnfilteredDispatchable$GT$22dispatch_bypass_filter17h3fdf7958f2937decE>
 - func[313] sig=1 <_ZN21node_template_runtime7Runtime8metadata17ha07c7d804ae441c1E>
 - func[314] sig=1 <_ZN21node_template_runtime1_81_$LT$impl$u20$scale_info..TypeInfo$u20$for$u20$node_template_runtime..Runtime$GT$9type_info17h48fa29a0ce13fee3E>
 - func[315] sig=7 <_ZN21node_template_runtime1_99_$LT$impl$u20$parity_scale_codec..codec..Encode$u20$for$u20$node_template_runtime..RuntimeEvent$GT$9encode_to17h2020af706242d897E>
 - func[316] sig=1 <_ZN21node_template_runtime1_86_$LT$impl$u20$scale_info..TypeInfo$u20$for$u20$node_template_runtime..RuntimeEvent$GT$9type_info17h22ddd9e9196404d9E>
 - func[317] sig=1 <_ZN21node_template_runtime1_85_$LT$impl$u20$scale_info..TypeInfo$u20$for$u20$node_template_runtime..RuntimeCall$GT$9type_info17hff87ea685372bd6fE>
 - func[318] sig=6 <_ZN1369_$LT$node_template_runtime..Runtime$u20$as$u20$sp_block_builder..runtime_decl_for_block_builder..BlockBuilderV6$LT$sp_runtime..generic..block..Block$LT$sp_runtime..generic..header..Header$LT$u32$C$sp_runtime..traits..BlakeTwo256$GT$$C$sp_runtime..generic..unchecked_extrinsic..UncheckedExtrinsic$LT$sp_runtime..multiaddress..MultiAddress$LT$$LT$$LT$sp_runtime..MultiSignature$u20$as$u20$sp_runtime..traits..Verify$GT$..Signer$u20$as$u20$sp_runtime..traits..IdentifyAccount$GT$..AccountId$C$$LP$$RP$$GT$$C$node_template_runtime..RuntimeCall$C$sp_runtime..MultiSignature$C$$LP$frame_system..extensions..check_non_zero_sender..CheckNonZeroSender$LT$node_template_runtime..Runtime$GT$$C$frame_system..extensions..check_spec_version..CheckSpecVersion$LT$node_template_runtime..Runtime$GT$$C$frame_system..extensions..check_tx_version..CheckTxVersion$LT$node_template_runtime..Runtime$GT$$C$frame_system..extensions..check_genesis..CheckGenesis$LT$node_template_runtime..Runtime$GT$$C$frame_system..extensions..check_mortality..CheckMortality$LT$node_template_runtime..Runtime$GT$$C$frame_system..extensions..check_nonce..CheckNonce$LT$node_template_runtime..Runtime$GT$$C$frame_system..extensions..check_weight..CheckWeight$LT$node_template_runtime..Runtime$GT$$C$pallet_transaction_payment..ChargeTransactionPayment$LT$node_template_runtime..Runtime$GT$$RP$$GT$$GT$$GT$$GT$15check_inherents17h4ba7a8f595d370e4E>
 - func[319] sig=1 <_ZN101_$LT$pallet_balances..imbalances..NegativeImbalance$LT$T$C$I$GT$$u20$as$u20$core..ops..drop..Drop$GT$4drop17h50f83df9af5a7acfE>
 - func[320] sig=1 <_ZN10scale_info5impls80_$LT$impl$u20$scale_info..TypeInfo$u20$for$u20$core..option..Option$LT$T$GT$$GT$9type_info17hc132929710f58b2eE>
 - func[321] sig=1 <_ZN10scale_info5impls80_$LT$impl$u20$scale_info..TypeInfo$u20$for$u20$core..option..Option$LT$T$GT$$GT$9type_info17hcef7e66449cf2cd0E>
 - func[322] sig=7 <_ZN18parity_scale_codec5codec6Encode13using_encoded17h6adf7d48ed9c662bE>
 - func[323] sig=7 <_ZN10sp_runtime7generic6header1_120_$LT$impl$u20$parity_scale_codec..codec..Decode$u20$for$u20$sp_runtime..generic..header..Header$LT$Number$C$Hash$GT$$GT$6decode17h21777f51c9442031E>
 - func[324] sig=7 <_ZN13frame_support7storage9generator3map10StorageMap21storage_map_final_key17h7fbbab8446d541ffE.llvm.1166637917870734857>
 - func[325] sig=7 <_ZN13frame_support7storage9generator3map10StorageMap21storage_map_final_key17h060bd247405995a9E.llvm.1166637917870734857>
 - func[326] sig=6 <_ZN13frame_support7storage5types3map81StorageMap$LT$Prefix$C$Hasher$C$Key$C$Value$C$QueryKind$C$OnEmpty$C$MaxValues$GT$17try_mutate_exists17h1f4619255f128a8aE>
 - func[327] sig=7 <_ZN13frame_support7storage9generator3map10StorageMap21storage_map_final_key17h7eac9ddf0a688ac3E.llvm.1166637917870734857>
 - func[328] sig=7 <_ZN13frame_support7storage5types3map81StorageMap$LT$Prefix$C$Hasher$C$Key$C$Value$C$QueryKind$C$OnEmpty$C$MaxValues$GT$3get17hfeaee37eaf6f6f53E>
 - func[329] sig=7 <_ZN13frame_support7storage9generator3map10StorageMap21storage_map_final_key17ha76557e115d3b34dE.llvm.1166637917870734857>
 - func[330] sig=7 <_ZN13frame_support7storage5types3map81StorageMap$LT$Prefix$C$Hasher$C$Key$C$Value$C$QueryKind$C$OnEmpty$C$MaxValues$GT$6insert17h6f989df155c92ef7E>
 - func[331] sig=4 <_ZN13frame_support7storage5types3map81StorageMap$LT$Prefix$C$Hasher$C$Key$C$Value$C$QueryKind$C$OnEmpty$C$MaxValues$GT$6mutate17h89d568b54bd273a9E>
 - func[332] sig=7 <_ZN18parity_scale_codec5codec6Encode6encode17h5e94f9124d997f4cE>
 - func[333] sig=7 <_ZN18parity_scale_codec5codec6Encode6encode17h9a52ec66f093eaa9E>
 - func[334] sig=7 <_ZN196_$LT$frame_support..storage..types..map..StorageMap$LT$Prefix$C$Hasher$C$Key$C$Value$C$QueryKind$C$OnEmpty$C$MaxValues$GT$$u20$as$u20$frame_support..storage..types..StorageEntryMetadataBuilder$GT$14build_metadata17h04b0931ea2b7b360E>
 - func[335] sig=7 <_ZN196_$LT$frame_support..storage..types..map..StorageMap$LT$Prefix$C$Hasher$C$Key$C$Value$C$QueryKind$C$OnEmpty$C$MaxValues$GT$$u20$as$u20$frame_support..storage..types..StorageEntryMetadataBuilder$GT$14build_metadata17h632457328bc683f6E>
 - func[336] sig=7 <_ZN196_$LT$frame_support..storage..types..map..StorageMap$LT$Prefix$C$Hasher$C$Key$C$Value$C$QueryKind$C$OnEmpty$C$MaxValues$GT$$u20$as$u20$frame_support..storage..types..StorageEntryMetadataBuilder$GT$14build_metadata17h709b34e772111879E>
 - func[337] sig=7 <_ZN196_$LT$frame_support..storage..types..map..StorageMap$LT$Prefix$C$Hasher$C$Key$C$Value$C$QueryKind$C$OnEmpty$C$MaxValues$GT$$u20$as$u20$frame_support..storage..types..StorageEntryMetadataBuilder$GT$14build_metadata17h925420acbbc33229E>
 - func[338] sig=7 <_ZN196_$LT$frame_support..storage..types..map..StorageMap$LT$Prefix$C$Hasher$C$Key$C$Value$C$QueryKind$C$OnEmpty$C$MaxValues$GT$$u20$as$u20$frame_support..storage..types..StorageEntryMetadataBuilder$GT$14build_metadata17ha94987e724919600E>
 - func[339] sig=7 <_ZN196_$LT$frame_support..storage..types..map..StorageMap$LT$Prefix$C$Hasher$C$Key$C$Value$C$QueryKind$C$OnEmpty$C$MaxValues$GT$$u20$as$u20$frame_support..storage..types..StorageEntryMetadataBuilder$GT$14build_metadata17hf57309e8ef70b36bE>
 - func[340] sig=7 <_ZN83_$LT$core..option..Option$LT$T$GT$$u20$as$u20$parity_scale_codec..codec..Encode$GT$9encode_to17h9ebddb9303f71d27E>
 - func[341] sig=7 <_ZN83_$LT$core..option..Option$LT$T$GT$$u20$as$u20$parity_scale_codec..codec..Encode$GT$9encode_to17he355f2e03aa83828E>
 - func[342] sig=1 <_ZN10pallet_poe6pallet1_84_$LT$impl$u20$scale_info..TypeInfo$u20$for$u20$pallet_poe..pallet..Call$LT$T$GT$$GT$9type_info17h4ffc6d0714c4621bE>
 - func[343] sig=1 <_ZN10pallet_poe6pallet1_85_$LT$impl$u20$scale_info..TypeInfo$u20$for$u20$pallet_poe..pallet..Error$LT$T$GT$$GT$9type_info17h82ec1927457989d3E>
 - func[344] sig=1 <_ZN10pallet_poe6pallet1_85_$LT$impl$u20$scale_info..TypeInfo$u20$for$u20$pallet_poe..pallet..Event$LT$T$GT$$GT$9type_info17h8b211a93efb4b869E>
 - func[345] sig=7 <_ZN10pallet_poe6pallet1_97_$LT$impl$u20$parity_scale_codec..codec..Decode$u20$for$u20$pallet_poe..pallet..Call$LT$T$GT$$GT$6decode17hd813eef04ecda87cE>
 - func[346] sig=7 <_ZN10pallet_poe6pallet1_97_$LT$impl$u20$parity_scale_codec..codec..Encode$u20$for$u20$pallet_poe..pallet..Call$LT$T$GT$$GT$9encode_to17h1204409d25d3d3b1E>
 - func[347] sig=7 <_ZN10pallet_poe6pallet1_98_$LT$impl$u20$parity_scale_codec..codec..Encode$u20$for$u20$pallet_poe..pallet..Event$LT$T$GT$$GT$9encode_to17hcc8c23d6be85f5eeE>
 - func[348] sig=1 <_ZN15pallet_balances1_94_$LT$impl$u20$scale_info..TypeInfo$u20$for$u20$pallet_balances..BalanceLock$LT$Balance$GT$$GT$9type_info17he477f0d13c39344eE>
 - func[349] sig=1 <_ZN10scale_info5impls64_$LT$impl$u20$scale_info..TypeInfo$u20$for$u20$$LP$A$C$B$RP$$GT$9type_info17hfaa16196c12d7495E>
 - func[350] sig=1 <_ZN15pallet_balances1_114_$LT$impl$u20$scale_info..TypeInfo$u20$for$u20$pallet_balances..ReserveData$LT$ReserveIdentifier$C$Balance$GT$$GT$9type_info17h60df027d7aeb802eE>
 - func[351] sig=1 <_ZN10scale_info5impls84_$LT$impl$u20$scale_info..TypeInfo$u20$for$u20$core..result..Result$LT$T$C$E$GT$$GT$9type_info17habb519cd1348a101E>
 - func[352] sig=1 <_ZN12frame_system10extensions13check_genesis1_113_$LT$impl$u20$scale_info..TypeInfo$u20$for$u20$frame_system..extensions..check_genesis..CheckGenesis$LT$T$GT$$GT$9type_info17h73cab2889fb2c257E>
 - func[353] sig=1 <_ZN12frame_system10extensions16check_tx_version1_118_$LT$impl$u20$scale_info..TypeInfo$u20$for$u20$frame_system..extensions..check_tx_version..CheckTxVersion$LT$T$GT$$GT$9type_info17h280c95ee76230e9cE>
 - func[354] sig=1 <_ZN12frame_system10extensions11check_nonce1_109_$LT$impl$u20$scale_info..TypeInfo$u20$for$u20$frame_system..extensions..check_nonce..CheckNonce$LT$T$GT$$GT$9type_info17hdfb548a9fe01db0aE>
 - func[355] sig=1 <_ZN26pallet_transaction_payment1_112_$LT$impl$u20$scale_info..TypeInfo$u20$for$u20$pallet_transaction_payment..ChargeTransactionPayment$LT$T$GT$$GT$9type_info17hc283b643e77d466bE>
 - func[356] sig=1 <_ZN12frame_system10extensions18check_spec_version1_122_$LT$impl$u20$scale_info..TypeInfo$u20$for$u20$frame_system..extensions..check_spec_version..CheckSpecVersion$LT$T$GT$$GT$9type_info17hbd53065b5c4d64cbE>
 - func[357] sig=26 <_ZN114_$LT$frame_system..extensions..check_nonce..CheckNonce$LT$T$GT$$u20$as$u20$sp_runtime..traits..SignedExtension$GT$12pre_dispatch17h37cc8e247b24de3eE>
 - func[358] sig=8 <_ZN114_$LT$frame_system..extensions..check_nonce..CheckNonce$LT$T$GT$$u20$as$u20$sp_runtime..traits..SignedExtension$GT$8validate17hb0e8fa02f23967fdE>
 - func[359] sig=37 <_ZN117_$LT$pallet_transaction_payment..ChargeTransactionPayment$LT$T$GT$$u20$as$u20$sp_runtime..traits..SignedExtension$GT$12pre_dispatch17h9478ffc89a3be63cE>
 - func[360] sig=26 <_ZN117_$LT$pallet_transaction_payment..ChargeTransactionPayment$LT$T$GT$$u20$as$u20$sp_runtime..traits..SignedExtension$GT$13post_dispatch17h08060d1cf0e795ddE>
 - func[361] sig=8 <_ZN117_$LT$pallet_transaction_payment..ChargeTransactionPayment$LT$T$GT$$u20$as$u20$sp_runtime..traits..SignedExtension$GT$8validate17he613381adac6e1ceE>
 - func[362] sig=1 <_ZN11pallet_aura6pallet15Pallet$LT$T$GT$16storage_metadata17h5dfb78a143349033E>
 - func[363] sig=7 <_ZN13frame_support8dispatch1_101_$LT$impl$u20$parity_scale_codec..codec..Encode$u20$for$u20$frame_support..dispatch..DispatchInfo$GT$9encode_to17h817178069d65ca17E>
 - func[364] sig=1 <_ZN13frame_support8dispatch1_101_$LT$impl$u20$scale_info..TypeInfo$u20$for$u20$frame_support..dispatch..PerDispatchClass$LT$T$GT$$GT$9type_info17hfd417b4946c1496aE>
 - func[365] sig=7 <_ZN13frame_support8dispatch1_114_$LT$impl$u20$parity_scale_codec..codec..Decode$u20$for$u20$frame_support..dispatch..PerDispatchClass$LT$T$GT$$GT$6decode17hac666280addca3ebE>
 - func[366] sig=7 <_ZN13frame_support8dispatch1_114_$LT$impl$u20$parity_scale_codec..codec..Encode$u20$for$u20$frame_support..dispatch..PerDispatchClass$LT$T$GT$$GT$9encode_to17hef3606b5716f05baE>
 - func[367] sig=1 <_ZN143_$LT$sp_runtime..generic..unchecked_extrinsic..UncheckedExtrinsic$LT$Address$C$Call$C$Signature$C$Extra$GT$$u20$as$u20$scale_info..TypeInfo$GT$9type_info17h08775cd9eb5bef5bE>
 - func[368] sig=1 <_ZN14pallet_grandpa1_103_$LT$impl$u20$scale_info..TypeInfo$u20$for$u20$pallet_grandpa..StoredPendingChange$LT$N$C$Limit$GT$$GT$9type_info17had3c5d5adee012afE>
 - func[369] sig=1 <_ZN14pallet_grandpa1_87_$LT$impl$u20$scale_info..TypeInfo$u20$for$u20$pallet_grandpa..StoredState$LT$N$GT$$GT$9type_info17h81144a81f9790aa6E>
 - func[370] sig=7 <_ZN156_$LT$sp_runtime..generic..unchecked_extrinsic..UncheckedExtrinsic$LT$Address$C$Call$C$Signature$C$Extra$GT$$u20$as$u20$parity_scale_codec..codec..Decode$GT$6decode17ha5e77d2b677516a1E>
 - func[371] sig=1 <_ZN4core3ptr55drop_in_place$LT$node_template_runtime..RuntimeCall$GT$17h1a652cb8af7ee3fdE.llvm.7247773951996875002>
 - func[372] sig=7 <_ZN156_$LT$sp_runtime..generic..unchecked_extrinsic..UncheckedExtrinsic$LT$Address$C$Call$C$Signature$C$Extra$GT$$u20$as$u20$parity_scale_codec..codec..Encode$GT$6encode17h2bc651c2e4071776E>
 - func[373] sig=7 <_ZN15pallet_balances1_107_$LT$impl$u20$parity_scale_codec..codec..Encode$u20$for$u20$pallet_balances..AccountData$LT$Balance$GT$$GT$9encode_to17h3d40ff629d7b9161E>
 - func[374] sig=1 <_ZN15pallet_balances1_94_$LT$impl$u20$scale_info..TypeInfo$u20$for$u20$pallet_balances..AccountData$LT$Balance$GT$$GT$9type_info17hd08f5992de5c0636E>
 - func[375] sig=13 <_ZN162_$LT$pallet_poe..pallet..Pallet$LT$T$GT$$u20$as$u20$frame_support..traits..hooks..OnIdle$LT$$LT$T$u20$as$u20$frame_system..pallet..Config$GT$..BlockNumber$GT$$GT$7on_idle17h66c07bc9811c1725E>
 - func[376] sig=6 <_ZN166_$LT$sp_runtime..generic..unchecked_extrinsic..UncheckedExtrinsic$LT$Address$C$Call$C$Signature$C$Extra$GT$$u20$as$u20$sp_runtime..traits..Checkable$LT$Lookup$GT$$GT$5check17hd2f081410eb268afE>
 - func[377] sig=7 <_ZN169_$LT$pallet_aura..pallet..Pallet$LT$T$GT$$u20$as$u20$frame_support..traits..hooks..OnInitialize$LT$$LT$T$u20$as$u20$frame_system..pallet..Config$GT$..BlockNumber$GT$$GT$13on_initialize17h3294d6a450e2a04fE>
 - func[378] sig=7 <_ZN18parity_scale_codec5codec16inner_tuple_impl109_$LT$impl$u20$parity_scale_codec..codec..Encode$u20$for$u20$$LP$K0$C$L0$C$M0$C$N0$C$O0$C$P0$C$Q0$C$R0$RP$$GT$9encode_to17haf63059b052e29f1E>
 - func[379] sig=7 <_ZN18parity_scale_codec5codec6Encode6encode17h31d7b7bf3a004eb3E>
 - func[380] sig=6 <_ZN18parity_scale_codec5codec6Encode13using_encoded17hf00447839a67a170E>
 - func[381] sig=6 <_ZN18parity_scale_codec5codec6Encode6encode17h2950dd20a8c1c42dE>
 - func[382] sig=7 <_ZN18parity_scale_codec5codec6Encode6encode17h6ab6855639ced3c1E>
 - func[383] sig=6 <_ZN18parity_scale_codec5codec6Encode6encode17ha7a96f51fa4a478dE>
 - func[384] sig=7 <_ZN18parity_scale_codec5codec6Encode6encode17hbdb97dd2822f7547E>
 - func[385] sig=1 <_ZN4core3ptr27drop_in_place$LT$$RF$u8$GT$17h66785c9f884b0a05E.llvm.7247773951996875002>
 - func[386] sig=6 <_ZN55_$LT$X$u20$as$u20$parity_scale_codec..codec..Encode$GT$13using_encoded17h06cefc5fb5d135fbE>
 - func[387] sig=6 <_ZN66_$LT$T$u20$as$u20$parity_scale_codec..depth_limit..DecodeLimit$GT$27decode_all_with_depth_limit17hb4507d1e3f7683a4E>
 - func[388] sig=6 <_ZN85_$LT$sp_inherents..InherentData$u20$as$u20$node_template_runtime..InherentDataExt$GT$16check_extrinsics17h0739650e378114f3E>
 - func[389] sig=7 <_ZN10pallet_poe6pallet117_$LT$impl$u20$core..convert..From$LT$pallet_poe..pallet..Error$LT$T$GT$$GT$$u20$for$u20$sp_runtime..DispatchError$GT$4from17h0999a131287e60afE>
 - func[390] sig=1 <_ZN10sp_runtime12multiaddress1_121_$LT$impl$u20$scale_info..TypeInfo$u20$for$u20$sp_runtime..multiaddress..MultiAddress$LT$AccountId$C$AccountIndex$GT$$GT$9type_info17hd1edd4b78f061857E>
 - func[391] sig=7 <_ZN10sp_runtime12multiaddress1_134_$LT$impl$u20$parity_scale_codec..codec..Decode$u20$for$u20$sp_runtime..multiaddress..MultiAddress$LT$AccountId$C$AccountIndex$GT$$GT$6decode17h51e7818f9282379aE>
 - func[392] sig=7 <_ZN10sp_runtime12multiaddress1_134_$LT$impl$u20$parity_scale_codec..codec..Encode$u20$for$u20$sp_runtime..multiaddress..MultiAddress$LT$AccountId$C$AccountIndex$GT$$GT$9encode_to17h0f327c2b8e3c7aadE>
 - func[393] sig=7 <_ZN10sp_runtime1_89_$LT$impl$u20$parity_scale_codec..codec..Encode$u20$for$u20$sp_runtime..DispatchError$GT$9encode_to17h37de12ac0d7f6b4cE>
 - func[394] sig=7 <_ZN10sp_runtime20transaction_validity1_114_$LT$impl$u20$parity_scale_codec..codec..Encode$u20$for$u20$sp_runtime..transaction_validity..ValidTransaction$GT$9encode_to17hda26007a3c1fb407E>
 - func[395] sig=7 <_ZN10sp_runtime20transaction_validity1_122_$LT$impl$u20$parity_scale_codec..codec..Encode$u20$for$u20$sp_runtime..transaction_validity..TransactionValidityError$GT$9encode_to17he8fbf07e7c054a34E>
 - func[396] sig=1 <_ZN12frame_system10extensions15check_mortality1_117_$LT$impl$u20$scale_info..TypeInfo$u20$for$u20$frame_system..extensions..check_mortality..CheckMortality$LT$T$GT$$GT$9type_info17hfc8152590038d071E>
 - func[397] sig=7 <_ZN10sp_runtime7generic5block1_123_$LT$impl$u20$parity_scale_codec..codec..Decode$u20$for$u20$sp_runtime..generic..block..Block$LT$Header$C$Extrinsic$GT$$GT$6decode17h734764eab75c1041E.llvm.3307198572981677325>
 - func[398] sig=1 <_ZN11pallet_sudo6pallet118_$LT$impl$u20$core..convert..From$LT$pallet_sudo..pallet..Error$LT$T$GT$$GT$$u20$for$u20$sp_runtime..DispatchError$GT$4from17hf9bbbc25b4e2a22aE>
 - func[399] sig=7 <_ZN122_$LT$frame_system..extensions..check_mortality..CheckMortality$LT$T$GT$$u20$as$u20$sp_runtime..traits..SignedExtension$GT$17additional_signed17h00685ae31bd1caf5E>
 - func[400] sig=7 <_ZN12frame_system6pallet119_$LT$impl$u20$core..convert..From$LT$frame_system..pallet..Error$LT$T$GT$$GT$$u20$for$u20$sp_runtime..DispatchError$GT$4from17hc04b03e4a2304fe7E>
 - func[401] sig=7 <_ZN13frame_support7storage13transactional18with_storage_layer17h0868385d72c9ed8fE>
 - func[402] sig=7 <_ZN13frame_support7storage13transactional18with_storage_layer17h0a7a3617a8a04549E>
 - func[403] sig=1 <_ZN4core3ptr80drop_in_place$LT$alloc..boxed..Box$LT$node_template_runtime..RuntimeCall$GT$$GT$17h5538b4edb8cd00f4E.llvm.3307198572981677325>
 - func[404] sig=7 <_ZN13frame_support7storage13transactional18with_storage_layer17h0c53bb77cd6d1270E>
 - func[405] sig=7 <_ZN13frame_support7storage13transactional18with_storage_layer17h24a4a7215861a38fE>
 - func[406] sig=7 <_ZN13frame_support7storage13transactional18with_storage_layer17h31316f83472d384cE>
 - func[407] sig=7 <_ZN13frame_support7storage13transactional18with_storage_layer17h3c555a5134b14d2aE>
 - func[408] sig=7 <_ZN13frame_support7storage13transactional18with_storage_layer17h3f6e175f591a69d7E>
 - func[409] sig=7 <_ZN13frame_support7storage13transactional18with_storage_layer17h410e98e66b9d0ce4E>
 - func[410] sig=7 <_ZN13frame_support7storage13transactional18with_storage_layer17h52371e344aa89fe3E>
 - func[411] sig=7 <_ZN13frame_support7storage13transactional18with_storage_layer17h56b65708606826fbE>
 - func[412] sig=7 <_ZN13frame_support7storage13transactional18with_storage_layer17h5fef495689e8c833E>
 - func[413] sig=7 <_ZN13frame_support7storage13transactional18with_storage_layer17h61a5e76cd380afa2E>
 - func[414] sig=7 <_ZN13frame_support7storage13transactional18with_storage_layer17h633825f8fdaa8adcE>
 - func[415] sig=7 <_ZN13frame_support7storage13transactional18with_storage_layer17h72320d69c669ebf3E>
 - func[416] sig=7 <_ZN13frame_support7storage13transactional18with_storage_layer17h8d14fefe235109f1E>
 - func[417] sig=7 <_ZN13frame_support7storage13transactional18with_storage_layer17h9d534ae21c367c96E>
 - func[418] sig=7 <_ZN15pallet_template6pallet122_$LT$impl$u20$core..convert..From$LT$pallet_template..pallet..Error$LT$T$GT$$GT$$u20$for$u20$sp_runtime..DispatchError$GT$4from17h126319474ccac44fE>
 - func[419] sig=7 <_ZN13frame_support7storage13transactional18with_storage_layer17hab57b2035bcba907E>
 - func[420] sig=7 <_ZN13frame_support7storage13transactional18with_storage_layer17hac48d3e2f4be854aE>
 - func[421] sig=7 <_ZN13frame_support7storage13transactional18with_storage_layer17hcc2067ea6a79c040E>
 - func[422] sig=7 <_ZN13frame_support7storage13transactional18with_storage_layer17hda81a78088ee54fbE>
 - func[423] sig=7 <_ZN13frame_support7storage13transactional18with_storage_layer17he23bf0df2053969aE>
 - func[424] sig=7 <_ZN13frame_support7storage13transactional18with_storage_layer17hf6c6f836fa169d31E>
 - func[425] sig=7 <_ZN13frame_support7storage13transactional18with_storage_layer17hfd453539fb9c3f71E>
 - func[426] sig=2 <_ZN14pallet_grandpa6pallet15Pallet$LT$T$GT$12note_stalled17h8718d5a607dc506eE>
 - func[427] sig=1 <_ZN14pallet_grandpa6pallet1_88_$LT$impl$u20$scale_info..TypeInfo$u20$for$u20$pallet_grandpa..pallet..Call$LT$T$GT$$GT$9type_info17hee05a610c0e2cc9eE>
 - func[428] sig=1 <_ZN14pallet_grandpa6pallet1_89_$LT$impl$u20$scale_info..TypeInfo$u20$for$u20$pallet_grandpa..pallet..Error$LT$T$GT$$GT$9type_info17h826fe84a47105598E>
 - func[429] sig=1 <_ZN14pallet_grandpa6pallet15Pallet$LT$T$GT$16storage_metadata17h602da9fb1a8ff7a1E>
 - func[430] sig=1 <_ZN14pallet_grandpa6pallet15Pallet$LT$T$GT$25pallet_constants_metadata17h4d2838a12a410c88E>
 - func[431] sig=7 <_ZN14pallet_grandpa6pallet1_101_$LT$impl$u20$parity_scale_codec..codec..Decode$u20$for$u20$pallet_grandpa..pallet..Call$LT$T$GT$$GT$6decode17h04c2fbd4c1cf7e39E>
 - func[432] sig=7 <_ZN14pallet_grandpa6pallet1_101_$LT$impl$u20$parity_scale_codec..codec..Encode$u20$for$u20$pallet_grandpa..pallet..Call$LT$T$GT$$GT$9encode_to17hff63e2e21dee4a91E>
 - func[433] sig=7 <_ZN14pallet_grandpa6pallet1_93_$LT$impl$u20$parity_scale_codec..codec..Encode$u20$for$u20$pallet_grandpa..pallet..Event$GT$9encode_to17h2a411a21c7c2f1ceE>
 - func[434] sig=1 <_ZN15frame_executive104Executive$LT$System$C$Block$C$Context$C$UnsignedValidator$C$AllPalletsWithSystem$C$COnRuntimeUpgrade$GT$13execute_block17h2bb064922718a508E>
 - func[435] sig=1 <_ZN15frame_executive104Executive$LT$System$C$Block$C$Context$C$UnsignedValidator$C$AllPalletsWithSystem$C$COnRuntimeUpgrade$GT$16initialize_block17hdd11b5fa0ee57ea4E>
 - func[436] sig=7 <_ZN15frame_executive104Executive$LT$System$C$Block$C$Context$C$UnsignedValidator$C$AllPalletsWithSystem$C$COnRuntimeUpgrade$GT$15apply_extrinsic17h4357386cebfa0d37E>
 - func[437] sig=1 <_ZN15frame_executive104Executive$LT$System$C$Block$C$Context$C$UnsignedValidator$C$AllPalletsWithSystem$C$COnRuntimeUpgrade$GT$22idle_and_finalize_hook17hea56de7e09d37ec3E.llvm.3307198572981677325>
 - func[438] sig=7 <_ZN50_$LT$T$u20$as$u20$core..convert..Into$LT$U$GT$$GT$4into17h6cf1909587180d0dE>
 - func[439] sig=1 <_ZN4core9panicking13panic_display17hd79cb534dbf6058fE>
 - func[440] sig=1 <_ZN15frame_executive104Executive$LT$System$C$Block$C$Context$C$UnsignedValidator$C$AllPalletsWithSystem$C$COnRuntimeUpgrade$GT$14finalize_block17h04b0eab124af296eE>
 - func[441] sig=1 <_ZN15frame_executive104Executive$LT$System$C$Block$C$Context$C$UnsignedValidator$C$AllPalletsWithSystem$C$COnRuntimeUpgrade$GT$15offchain_worker17hdac9fa2d63a738d7E>
 - func[442] sig=2 <_ZN15frame_executive104Executive$LT$System$C$Block$C$Context$C$UnsignedValidator$C$AllPalletsWithSystem$C$COnRuntimeUpgrade$GT$20validate_transaction17hf965f5a16fc3e51eE>
 - func[443] sig=1 <_ZN4core3ptr85drop_in_place$LT$frame_system..pallet..Call$LT$node_template_runtime..Runtime$GT$$GT$17hc1388f8efd1102c7E.llvm.3307198572981677325>
 - func[444] sig=1 <_ZN170_$LT$pallet_grandpa..pallet..Pallet$LT$T$GT$$u20$as$u20$frame_support..traits..hooks..OnFinalize$LT$$LT$T$u20$as$u20$frame_system..pallet..Config$GT$..BlockNumber$GT$$GT$11on_finalize17h02ffd2e12c3fe798E>
 - func[445] sig=7 <_ZN15pallet_balances6pallet126_$LT$impl$u20$core..convert..From$LT$pallet_balances..pallet..Error$LT$T$C$I$GT$$GT$$u20$for$u20$sp_runtime..DispatchError$GT$4from17h88398d88277c3b54E>
 - func[446] sig=13 <_ZN166_$LT$pallet_grandpa..pallet..Pallet$LT$T$GT$$u20$as$u20$frame_support..traits..hooks..OnIdle$LT$$LT$T$u20$as$u20$frame_system..pallet..Config$GT$..BlockNumber$GT$$GT$7on_idle17h583664b44404c2caE>
 - func[447] sig=7 <_ZN18parity_scale_codec5codec16inner_tuple_impl84_$LT$impl$u20$parity_scale_codec..codec..Decode$u20$for$u20$$LP$P0$C$Q0$C$R0$RP$$GT$6decode17hc77124852fc3167fE>
 - func[448] sig=7 <_ZN18parity_scale_codec5codec16inner_tuple_impl84_$LT$impl$u20$parity_scale_codec..codec..Encode$u20$for$u20$$LP$P0$C$Q0$C$R0$RP$$GT$9encode_to17hecb49fc1263f9d4eE>
 - func[449] sig=7 <_ZN18parity_scale_codec5codec6Encode6encode17h235f335602bef0ffE>
 - func[450] sig=4 <_ZN42_$LT$$RF$T$u20$as$u20$core..fmt..Debug$GT$3fmt17hf3f2abbd85e6e120E>
 - func[451] sig=1 <_ZN4core3ptr1025drop_in_place$LT$sp_runtime..generic..unchecked_extrinsic..UncheckedExtrinsic$LT$sp_runtime..multiaddress..MultiAddress$LT$sp_core..crypto..AccountId32$C$$LP$$RP$$GT$$C$node_template_runtime..RuntimeCall$C$sp_runtime..MultiSignature$C$$LP$frame_system..extensions..check_non_zero_sender..CheckNonZeroSender$LT$node_template_runtime..Runtime$GT$$C$frame_system..extensions..check_spec_version..CheckSpecVersion$LT$node_template_runtime..Runtime$GT$$C$frame_system..extensions..check_tx_version..CheckTxVersion$LT$node_template_runtime..Runtime$GT$$C$frame_system..extensions..check_genesis..CheckGenesis$LT$node_template_runtime..Runtime$GT$$C$frame_system..extensions..check_mortality..CheckMortality$LT$node_template_runtime..Runtime$GT$$C$frame_system..extensions..check_nonce..CheckNonce$LT$node_template_runtime..Runtime$GT$$C$frame_system..extensions..check_weight..CheckWeight$LT$node_template_runtime..Runtime$GT$$C$pallet_transaction_payment..ChargeTransactionPayment$LT$node_template_runtime..Runtime$GT$$RP$$GT$$GT$17h8c78544513789368E.llvm.3307198572981677325>
 - func[452] sig=1 <_ZN4core3ptr46drop_in_place$LT$alloc..vec..Vec$LT$u8$GT$$GT$17h843db23956c47db8E.llvm.3307198572981677325>
 - func[453] sig=6 <_ZN66_$LT$T$u20$as$u20$parity_scale_codec..depth_limit..DecodeLimit$GT$27decode_all_with_depth_limit17h28fd8bf5547add85E>
 - func[454] sig=6 <_ZN66_$LT$T$u20$as$u20$parity_scale_codec..depth_limit..DecodeLimit$GT$27decode_all_with_depth_limit17h8674561c3df1cf52E>
 - func[455] sig=6 <_ZN66_$LT$T$u20$as$u20$parity_scale_codec..depth_limit..DecodeLimit$GT$27decode_all_with_depth_limit17h9120fd8c32d36fb5E>
 - func[456] sig=7 <_ZN80_$LT$sp_version..RuntimeVersion$u20$as$u20$parity_scale_codec..codec..Decode$GT$6decode17hc5cd82755fa0b00dE>
 - func[457] sig=1 <_ZN10scale_info5impls64_$LT$impl$u20$scale_info..TypeInfo$u20$for$u20$$LP$A$C$B$RP$$GT$9type_info17hc68b93e3f9a4c191E>
 - func[458] sig=1 <_ZN10scale_info5impls75_$LT$impl$u20$scale_info..TypeInfo$u20$for$u20$alloc..vec..Vec$LT$T$GT$$GT$9type_info17h3590b34cc35955e5E>
 - func[459] sig=1 <_ZN10scale_info5impls75_$LT$impl$u20$scale_info..TypeInfo$u20$for$u20$alloc..vec..Vec$LT$T$GT$$GT$9type_info17h01bd8a4ee56be878E>
 - func[460] sig=1 <_ZN10scale_info5impls75_$LT$impl$u20$scale_info..TypeInfo$u20$for$u20$alloc..vec..Vec$LT$T$GT$$GT$9type_info17h05f2e2ea4802f26bE>
 - func[461] sig=1 <_ZN10scale_info5impls75_$LT$impl$u20$scale_info..TypeInfo$u20$for$u20$alloc..vec..Vec$LT$T$GT$$GT$9type_info17h154ddf6ca4af8779E>
 - func[462] sig=1 <_ZN10scale_info5impls75_$LT$impl$u20$scale_info..TypeInfo$u20$for$u20$alloc..vec..Vec$LT$T$GT$$GT$9type_info17h16616dd981178087E>
 - func[463] sig=1 <_ZN10scale_info5impls75_$LT$impl$u20$scale_info..TypeInfo$u20$for$u20$alloc..vec..Vec$LT$T$GT$$GT$9type_info17hb1b457869876c2f4E>
 - func[464] sig=1 <_ZN10scale_info5impls75_$LT$impl$u20$scale_info..TypeInfo$u20$for$u20$alloc..vec..Vec$LT$T$GT$$GT$9type_info17hbc60590d8d29936cE>
 - func[465] sig=1 <_ZN10scale_info5impls75_$LT$impl$u20$scale_info..TypeInfo$u20$for$u20$alloc..vec..Vec$LT$T$GT$$GT$9type_info17hd72aa60f568ccf0cE>
 - func[466] sig=1 <_ZN10scale_info5impls75_$LT$impl$u20$scale_info..TypeInfo$u20$for$u20$alloc..vec..Vec$LT$T$GT$$GT$9type_info17hdd6ce63adc41aaf2E>
 - func[467] sig=1 <_ZN10scale_info5impls75_$LT$impl$u20$scale_info..TypeInfo$u20$for$u20$alloc..vec..Vec$LT$T$GT$$GT$9type_info17hf6a1bb1b7c7834f7E>
 - func[468] sig=7 <_ZN137_$LT$alloc..vec..Vec$LT$T$GT$$u20$as$u20$alloc..vec..spec_from_iter..SpecFromIter$LT$T$C$alloc..vec..into_iter..IntoIter$LT$T$GT$$GT$$GT$9from_iter17hc356c49e3304f2e2E>
 - func[469] sig=7 <_ZN137_$LT$alloc..vec..Vec$LT$T$GT$$u20$as$u20$alloc..vec..spec_from_iter..SpecFromIter$LT$T$C$alloc..vec..into_iter..IntoIter$LT$T$GT$$GT$$GT$9from_iter17hfe8f9a98f95479adE>
 - func[470] sig=7 <_ZN18parity_scale_codec5codec16inner_tuple_impl79_$LT$impl$u20$parity_scale_codec..codec..Decode$u20$for$u20$$LP$Q0$C$R0$RP$$GT$6decode17h1afdfbf570ebb8afE>
 - func[471] sig=7 <_ZN18parity_scale_codec5codec16inner_tuple_impl79_$LT$impl$u20$parity_scale_codec..codec..Decode$u20$for$u20$$LP$Q0$C$R0$RP$$GT$6decode17hcb008403b47c6af3E>
 - func[472] sig=7 <_ZN18parity_scale_codec5codec16inner_tuple_impl79_$LT$impl$u20$parity_scale_codec..codec..Encode$u20$for$u20$$LP$Q0$C$R0$RP$$GT$9encode_to17h7fb116f6fcced552E>
 - func[473] sig=6 <_ZN18parity_scale_codec5codec6Encode13using_encoded17h42fafb5aee58cb54E>
 - func[474] sig=1 <_ZN4core3ptr55drop_in_place$LT$node_template_runtime..RuntimeCall$GT$17h1a652cb8af7ee3fdE.llvm.602467795807004753>
 - func[475] sig=7 <_ZN55_$LT$X$u20$as$u20$parity_scale_codec..codec..Encode$GT$6encode17h4e6dce4d36b77f69E>
 - func[476] sig=7 <_ZN55_$LT$X$u20$as$u20$parity_scale_codec..codec..Encode$GT$9encode_to17h40524c738b339c63E>
 - func[477] sig=7 <_ZN55_$LT$X$u20$as$u20$parity_scale_codec..codec..Encode$GT$9encode_to17hc45fd244d501c952E>
 - func[478] sig=4 <_ZN65_$LT$alloc..vec..Vec$LT$T$C$A$GT$$u20$as$u20$core..fmt..Debug$GT$3fmt17hfdc2083485896fddE>
 - func[479] sig=7 <_ZN67_$LT$alloc..vec..Vec$LT$T$C$A$GT$$u20$as$u20$core..clone..Clone$GT$5clone17hc490a10cd8a46655E>
 - func[480] sig=1 <_ZN70_$LT$alloc..vec..Vec$LT$T$C$A$GT$$u20$as$u20$core..ops..drop..Drop$GT$4drop17h0f7c2d60261ef7dfE>
 - func[481] sig=1 <_ZN70_$LT$alloc..vec..Vec$LT$T$C$A$GT$$u20$as$u20$core..ops..drop..Drop$GT$4drop17h3e1d63ad3113d755E>
 - func[482] sig=7 <_ZN98_$LT$alloc..vec..Vec$LT$T$GT$$u20$as$u20$alloc..vec..spec_from_iter..SpecFromIter$LT$T$C$I$GT$$GT$9from_iter17h65bc064adb7e6ec5E>
 - func[483] sig=6 <_ZN98_$LT$alloc..vec..Vec$LT$T$GT$$u20$as$u20$alloc..vec..spec_from_iter..SpecFromIter$LT$T$C$I$GT$$GT$9from_iter17hda4fe466356e0d20E>
 - func[484] sig=2 <_ZN10scale_info5build17Variants$LT$F$GT$7variant17h07a281ace06aefb5E>
 - func[485] sig=2 <_ZN10scale_info5build17Variants$LT$F$GT$7variant17h0967e9e3b9995a6bE>
 - func[486] sig=2 <_ZN10scale_info5build17Variants$LT$F$GT$7variant17h0aaa73636e15d21dE>
 - func[487] sig=2 <_ZN10scale_info5build17Variants$LT$F$GT$7variant17h0c3874839ac5fe1fE>
 - func[488] sig=2 <_ZN10scale_info5build17Variants$LT$F$GT$7variant17h0e970f9a95173d2eE>
 - func[489] sig=2 <_ZN10scale_info5build17Variants$LT$F$GT$7variant17h0efe198c11a9daf8E>
 - func[490] sig=2 <_ZN10scale_info5build17Variants$LT$F$GT$7variant17h15c88685c154a180E>
 - func[491] sig=2 <_ZN10scale_info5build17Variants$LT$F$GT$7variant17h168378171b458ed6E>
 - func[492] sig=2 <_ZN10scale_info5build17Variants$LT$F$GT$7variant17h168c0b68cef4239bE>
 - func[493] sig=2 <_ZN10scale_info5build17Variants$LT$F$GT$7variant17h1831161c96d1b85aE>
 - func[494] sig=2 <_ZN10scale_info5build17Variants$LT$F$GT$7variant17h1980cc5b469ab79bE>
 - func[495] sig=2 <_ZN10scale_info5build17Variants$LT$F$GT$7variant17h19c684e7ebdef932E>
 - func[496] sig=2 <_ZN10scale_info5build17Variants$LT$F$GT$7variant17h23d4b0a4557456fdE>
 - func[497] sig=2 <_ZN10scale_info5build17Variants$LT$F$GT$7variant17h2cbe79413579e15cE>
 - func[498] sig=2 <_ZN10scale_info5build17Variants$LT$F$GT$7variant17h2f2eab4eaa2fed69E>
 - func[499] sig=2 <_ZN10scale_info5build17Variants$LT$F$GT$7variant17h304a1daba90ca8e1E>
 - func[500] sig=2 <_ZN10scale_info5build17Variants$LT$F$GT$7variant17h32183b1f9437a424E>
 - func[501] sig=2 <_ZN10scale_info5build17Variants$LT$F$GT$7variant17h34609ced804b33f4E>
 - func[502] sig=2 <_ZN10scale_info5build17Variants$LT$F$GT$7variant17h35ea005a4a84378aE>
 - func[503] sig=2 <_ZN10scale_info5build17Variants$LT$F$GT$7variant17h39ccf77f584bfc01E>
 - func[504] sig=2 <_ZN10scale_info5build17Variants$LT$F$GT$7variant17h44377ff2d761710aE>
 - func[505] sig=2 <_ZN10scale_info5build17Variants$LT$F$GT$7variant17h4925805f51739818E>
 - func[506] sig=2 <_ZN10scale_info5build17Variants$LT$F$GT$7variant17h4d23fcd2968c6af8E>
 - func[507] sig=2 <_ZN10scale_info5build17Variants$LT$F$GT$7variant17h4f0a0e1dc4d6d3d5E>
 - func[508] sig=2 <_ZN10scale_info5build17Variants$LT$F$GT$7variant17h54180bd2f42b8b44E>
 - func[509] sig=2 <_ZN10scale_info5build17Variants$LT$F$GT$7variant17h5755766ec84a873cE>
 - func[510] sig=2 <_ZN10scale_info5build17Variants$LT$F$GT$7variant17h5c5db28c145ff050E>
 - func[511] sig=2 <_ZN10scale_info5build17Variants$LT$F$GT$7variant17h5fc663d78de02922E>
 - func[512] sig=2 <_ZN10scale_info5build17Variants$LT$F$GT$7variant17h6971c8ef90eba5edE>
 - func[513] sig=2 <_ZN10scale_info5build17Variants$LT$F$GT$7variant17h6cdc67967653a91aE>
 - func[514] sig=2 <_ZN10scale_info5build17Variants$LT$F$GT$7variant17h707394ec7791c417E>
 - func[515] sig=2 <_ZN10scale_info5build17Variants$LT$F$GT$7variant17h785b82c61e41e04cE>
 - func[516] sig=2 <_ZN10scale_info5build17Variants$LT$F$GT$7variant17h7c7718c93b537c79E>
 - func[517] sig=2 <_ZN10scale_info5build17Variants$LT$F$GT$7variant17h7d97ef19d0188fb4E>
 - func[518] sig=2 <_ZN10scale_info5build17Variants$LT$F$GT$7variant17h7fb5222047cfd266E>
 - func[519] sig=2 <_ZN10scale_info5build17Variants$LT$F$GT$7variant17h81120af395ce9048E>
 - func[520] sig=2 <_ZN10scale_info5build17Variants$LT$F$GT$7variant17h84ef133bf91a6d44E>
 - func[521] sig=2 <_ZN10scale_info5build17Variants$LT$F$GT$7variant17h88b079f2d6bb09f3E>
 - func[522] sig=2 <_ZN10scale_info5build17Variants$LT$F$GT$7variant17h8ba6f7fd790ed5a9E>
 - func[523] sig=2 <_ZN10scale_info5build17Variants$LT$F$GT$7variant17h8f801c0adb61e4b1E>
 - func[524] sig=2 <_ZN10scale_info5build17Variants$LT$F$GT$7variant17h92b2d5fb388b6400E>
 - func[525] sig=2 <_ZN10scale_info5build17Variants$LT$F$GT$7variant17h9338c3a32d0ff8faE>
 - func[526] sig=2 <_ZN10scale_info5build17Variants$LT$F$GT$7variant17h9749434e8623feb4E>
 - func[527] sig=2 <_ZN10scale_info5build17Variants$LT$F$GT$7variant17h9938892ae756aa70E>
 - func[528] sig=2 <_ZN10scale_info5build17Variants$LT$F$GT$7variant17h9e296626ff39f842E>
 - func[529] sig=2 <_ZN10scale_info5build17Variants$LT$F$GT$7variant17h9e7e6f0d834a66a9E>
 - func[530] sig=2 <_ZN10scale_info5build17Variants$LT$F$GT$7variant17h9ef5a529857a2487E>
 - func[531] sig=2 <_ZN10scale_info5build17Variants$LT$F$GT$7variant17ha740cd2612e301ddE>
 - func[532] sig=2 <_ZN10scale_info5build17Variants$LT$F$GT$7variant17ha7512b1fb4b7762aE>
 - func[533] sig=2 <_ZN10scale_info5build17Variants$LT$F$GT$7variant17ha89a0381826eea8eE>
 - func[534] sig=2 <_ZN10scale_info5build17Variants$LT$F$GT$7variant17hb3ea97f805ef12f5E>
 - func[535] sig=2 <_ZN10scale_info5build17Variants$LT$F$GT$7variant17hb4eb8523d4b6dd86E>
 - func[536] sig=2 <_ZN10scale_info5build17Variants$LT$F$GT$7variant17hbbf3d059c2d2d81dE>
 - func[537] sig=2 <_ZN10scale_info5build17Variants$LT$F$GT$7variant17hc1e56f34fbcc47f1E>
 - func[538] sig=2 <_ZN10scale_info5build17Variants$LT$F$GT$7variant17hc529be33e616e69fE>
 - func[539] sig=2 <_ZN10scale_info5build17Variants$LT$F$GT$7variant17hca9216042682e726E>
 - func[540] sig=2 <_ZN10scale_info5build17Variants$LT$F$GT$7variant17hcabe24ff928f41ddE>
 - func[541] sig=2 <_ZN10scale_info5build17Variants$LT$F$GT$7variant17hcbfeec5d5e468e85E>
 - func[542] sig=2 <_ZN10scale_info5build17Variants$LT$F$GT$7variant17hcc38eca89ed27503E>
 - func[543] sig=2 <_ZN10scale_info5build17Variants$LT$F$GT$7variant17hd21ec3a7a4ab949cE>
 - func[544] sig=2 <_ZN10scale_info5build17Variants$LT$F$GT$7variant17hd3e3f6c171d64bc8E>
 - func[545] sig=2 <_ZN10scale_info5build17Variants$LT$F$GT$7variant17hd558d516902cfa99E>
 - func[546] sig=2 <_ZN10scale_info5build17Variants$LT$F$GT$7variant17hda0a91acf18769d1E>
 - func[547] sig=2 <_ZN10scale_info5build17Variants$LT$F$GT$7variant17hdae2c6c7cb623a6dE>
 - func[548] sig=2 <_ZN10scale_info5build17Variants$LT$F$GT$7variant17hdcfb75f92fcb1131E>
 - func[549] sig=2 <_ZN10scale_info5build17Variants$LT$F$GT$7variant17hdeb2b50c74312369E>
 - func[550] sig=2 <_ZN10scale_info5build17Variants$LT$F$GT$7variant17he24324e8a0f8c1c4E>
 - func[551] sig=2 <_ZN10scale_info5build17Variants$LT$F$GT$7variant17he47c5050b114dcddE>
 - func[552] sig=2 <_ZN10scale_info5build17Variants$LT$F$GT$7variant17he50ecc22e627218eE>
 - func[553] sig=2 <_ZN10scale_info5build17Variants$LT$F$GT$7variant17he6698408b6b777daE>
 - func[554] sig=2 <_ZN10scale_info5build17Variants$LT$F$GT$7variant17he75d5559dbe525d7E>
 - func[555] sig=2 <_ZN10scale_info5build17Variants$LT$F$GT$7variant17hea8e6ff54a53f2e5E>
 - func[556] sig=2 <_ZN10scale_info5build17Variants$LT$F$GT$7variant17hed3ce16f968ad273E>
 - func[557] sig=2 <_ZN10scale_info5build17Variants$LT$F$GT$7variant17hf69108543b8ea194E>
 - func[558] sig=2 <_ZN10scale_info5build17Variants$LT$F$GT$7variant17hf75e931be0a24772E>
 - func[559] sig=2 <_ZN10scale_info5build17Variants$LT$F$GT$7variant17hf84bf39c82c0925eE>
 - func[560] sig=2 <_ZN10scale_info5build17Variants$LT$F$GT$7variant17hf8f1b7edae0bc790E>
 - func[561] sig=4 <_ZN102_$LT$pallet_timestamp..pallet..Pallet$LT$T$GT$$u20$as$u20$frame_support..inherent..ProvideInherent$GT$14check_inherent17h21f97858591975aeE>
 - func[562] sig=6 <_ZN13frame_support7storage8unhashed3get17ha9967ffdd7709b13E>
 - func[563] sig=7 <_ZN102_$LT$pallet_timestamp..pallet..Pallet$LT$T$GT$$u20$as$u20$frame_support..inherent..ProvideInherent$GT$15create_inherent17h62e0b93b69863652E>
 - func[564] sig=7 <_ZN136_$LT$alloc..collections..btree..map..BTreeMap$LT$K$C$V$GT$$u20$as$u20$core..iter..traits..collect..FromIterator$LT$$LP$K$C$V$RP$$GT$$GT$9from_iter17hd294c21c1cb35cdcE>
 - func[565] sig=1 <_ZN99_$LT$alloc..collections..btree..map..BTreeMap$LT$K$C$V$C$A$GT$$u20$as$u20$core..ops..drop..Drop$GT$4drop17h4c66447527c22524E>
 - func[566] sig=7 <_ZN109_$LT$pallet_poe..pallet..Call$LT$T$GT$$u20$as$u20$frame_support..traits..dispatch..UnfilteredDispatchable$GT$22dispatch_bypass_filter28_$u7b$$u7b$closure$u7d$$u7d$17h87f481ee0af84222E>
 - func[567] sig=1 <_ZN10scale_info5impls64_$LT$impl$u20$scale_info..TypeInfo$u20$for$u20$$LP$A$C$B$RP$$GT$9type_info17hcbc424f0dab1806eE>
 - func[568] sig=1 <_ZN10scale_info5impls64_$LT$impl$u20$scale_info..TypeInfo$u20$for$u20$$LP$A$C$B$RP$$GT$9type_info17h171e608ea12a8ab0E>
 - func[569] sig=1 <_ZN10scale_info5impls73_$LT$impl$u20$scale_info..TypeInfo$u20$for$u20$$u5b$T$u3b$$u20$N$u5d$$GT$9type_info17h2ea5b21f337b8ff4E>
 - func[570] sig=1 <_ZN10scale_info5impls73_$LT$impl$u20$scale_info..TypeInfo$u20$for$u20$$u5b$T$u3b$$u20$N$u5d$$GT$9type_info17h8ceac68c4e889712E>
 - func[571] sig=1 <_ZN10scale_info5impls73_$LT$impl$u20$scale_info..TypeInfo$u20$for$u20$$u5b$T$u3b$$u20$N$u5d$$GT$9type_info17ha7abfab335f9e48dE>
 - func[572] sig=1 <_ZN12frame_system1_103_$LT$impl$u20$scale_info..TypeInfo$u20$for$u20$frame_system..AccountInfo$LT$Index$C$AccountData$GT$$GT$9type_info17ha32825fc19630af3E>
 - func[573] sig=7 <_ZN18parity_scale_codec5codec6Encode9encode_to17hca8157978a60cb7dE>
 - func[574] sig=7 <_ZN110_$LT$pallet_sudo..pallet..Call$LT$T$GT$$u20$as$u20$frame_support..traits..dispatch..UnfilteredDispatchable$GT$22dispatch_bypass_filter28_$u7b$$u7b$closure$u7d$$u7d$17haebe749bf446002eE>
 - func[575] sig=7 <_ZN111_$LT$frame_system..pallet..Call$LT$T$GT$$u20$as$u20$frame_support..traits..dispatch..UnfilteredDispatchable$GT$22dispatch_bypass_filter28_$u7b$$u7b$closure$u7d$$u7d$17hc33b6284f31cb52cE>
 - func[576] sig=6 <_ZN13environmental9local_key17LocalKey$LT$T$GT$4with17h5e8354173dc6b9adE>
 - func[577] sig=1 <_ZN99_$LT$alloc..collections..btree..map..BTreeMap$LT$K$C$V$C$A$GT$$u20$as$u20$core..ops..drop..Drop$GT$4drop17h30c64241cbc72d37E>
 - func[578] sig=7 <_ZN118_$LT$pallet_balances..pallet..Call$LT$T$C$I$GT$$u20$as$u20$frame_support..traits..dispatch..UnfilteredDispatchable$GT$22dispatch_bypass_filter28_$u7b$$u7b$closure$u7d$$u7d$17hada0fd398e26f42bE>
 - func[579] sig=1 <_ZN12frame_system1_89_$LT$impl$u20$scale_info..TypeInfo$u20$for$u20$frame_system..EventRecord$LT$E$C$T$GT$$GT$9type_info17h52ff2d7685b5e6c0E>
 - func[580] sig=6 <_ZN13environmental9local_key17LocalKey$LT$T$GT$4with17h41a42d5f4307b1b7E>
 - func[581] sig=6 <_ZN13environmental9local_key17LocalKey$LT$T$GT$4with17h464d058c2fe16e7fE>
 - func[582] sig=6 <_ZN13environmental9local_key17LocalKey$LT$T$GT$4with17ha2ff441dc26a1417E>
 - func[583] sig=6 <_ZN13environmental9local_key17LocalKey$LT$T$GT$4with17had33cc48e64c6d06E>
 - func[584] sig=6 <_ZN13environmental9local_key17LocalKey$LT$T$GT$4with17hcec7119a9314daa2E>
 - func[585] sig=6 <_ZN13environmental9local_key17LocalKey$LT$T$GT$4with17hd3bbc2b532e3fa2eE>
 - func[586] sig=6 <_ZN13frame_support7storage8unhashed14get_or_default17hd9ef84b709aee69bE>
 - func[587] sig=6 <_ZN13frame_support7storage8unhashed3get17h03adcddd373f735eE>
 - func[588] sig=6 <_ZN13frame_support7storage8unhashed3get17h12bbe81fee40f24eE>
 - func[589] sig=6 <_ZN13frame_support7storage8unhashed3get17h24a4bfc790b76a5eE>
 - func[590] sig=6 <_ZN13frame_support7storage8unhashed3get17h3ac64b530b11db84E>
 - func[591] sig=6 <_ZN13frame_support7storage8unhashed3get17h43b7e4791cbe0ff3E>
 - func[592] sig=6 <_ZN13frame_support7storage8unhashed3get17h53cc240bd470b6c9E>
 - func[593] sig=6 <_ZN13frame_support7storage8unhashed3get17h5595bf671fb2b204E>
 - func[594] sig=6 <_ZN13frame_support7storage8unhashed3get17h5be8e9a912794645E>
 - func[595] sig=6 <_ZN13frame_support7storage8unhashed3get17h6c5bed966319e621E>
 - func[596] sig=4 <_ZN13frame_support7storage8unhashed3get17h7eb17769f4b69b33E>
 - func[597] sig=6 <_ZN13frame_support7storage8unhashed3get17h8ecc82f3de54f5faE>
 - func[598] sig=6 <_ZN13frame_support7storage8unhashed3get17hb9c5c2700d9a4b45E>
 - func[599] sig=6 <_ZN13frame_support7storage8unhashed3get17heee4e55cc94b085cE>
 - func[600] sig=6 <_ZN13frame_support7storage8unhashed3put17h22c579c19c5b35bfE>
 - func[601] sig=6 <_ZN13frame_support7storage8unhashed3put17h25edffcf15eee5f5E>
 - func[602] sig=6 <_ZN13frame_support7storage8unhashed3put17h48572a4874dd11d6E>
 - func[603] sig=6 <_ZN13frame_support7storage8unhashed3put17h83c9159189698079E>
 - func[604] sig=6 <_ZN13frame_support7storage8unhashed3put17ha3902214d7df8b4aE>
 - func[605] sig=2 <_ZN18parity_scale_codec5codec6Encode13using_encoded17hef48b39682af1c44E>
 - func[606] sig=6 <_ZN13frame_support7storage8unhashed3put17hfdaf0ae6009294e0E>
 - func[607] sig=6 <_ZN13frame_support7storage8unhashed4take17h04ad7f5fc6862b62E>
 - func[608] sig=13 <_ZN168_$LT$pallet_timestamp..pallet..Pallet$LT$T$GT$$u20$as$u20$frame_support..traits..hooks..OnIdle$LT$$LT$T$u20$as$u20$frame_system..pallet..Config$GT$..BlockNumber$GT$$GT$7on_idle17hcc498cc0207c3fe2E>
 - func[609] sig=1 <_ZN16pallet_timestamp6pallet1_90_$LT$impl$u20$scale_info..TypeInfo$u20$for$u20$pallet_timestamp..pallet..Call$LT$T$GT$$GT$9type_info17h6ab1c85642e9d01aE>
 - func[610] sig=1 <_ZN16pallet_timestamp6pallet15Pallet$LT$T$GT$16storage_metadata17h5236dbe880a41989E>
 - func[611] sig=1 <_ZN16pallet_timestamp6pallet15Pallet$LT$T$GT$25pallet_constants_metadata17h8247f24dacafe4dcE>
 - func[612] sig=7 <_ZN18parity_scale_codec5codec6Encode6encode17h6e34d9a19e841828E>
 - func[613] sig=7 <_ZN18parity_scale_codec5codec6Encode6encode17h92a4ac6258faecaeE>
 - func[614] sig=6 <_ZN18parity_scale_codec5codec6Encode6encode17hb3ef7a29ea8291a4E>
 - func[615] sig=1 <_ZN4core3ptr40drop_in_place$LT$sp_inherents..Error$GT$17h888a93527bd2070eE.llvm.16665248970420330041>
 - func[616] sig=11 <_ZN4core9panicking13assert_failed17h87a167ab80a421c6E>
 - func[617] sig=11 <_ZN4core9panicking13assert_failed17hf82ced36d403a0b8E>
 - func[618] sig=11 <_ZN4core9panicking13assert_failed17hf8acbac4d09bad4dE>
 - func[619] sig=7 <_ZN55_$LT$X$u20$as$u20$parity_scale_codec..codec..Encode$GT$9encode_to17h76f9923ce5a0c071E>
 - func[620] sig=7 <_ZN93_$LT$sp_runtime..generic..digest..DigestItem$u20$as$u20$parity_scale_codec..codec..Decode$GT$6decode17h3d43512524c4f8f2E>
 - func[621] sig=7 <_ZN93_$LT$sp_runtime..generic..digest..DigestItem$u20$as$u20$parity_scale_codec..codec..Decode$GT$6decode17he67649c8c0d24bbeE>
 - func[622] sig=6 <_ZN5alloc11collections5btree6append178_$LT$impl$u20$alloc..collections..btree..node..NodeRef$LT$alloc..collections..btree..node..marker..Owned$C$K$C$V$C$alloc..collections..btree..node..marker..LeafOrInternal$GT$$GT$9bulk_push17h3158b3c705220422E>
 - func[623] sig=1 <_ZN10scale_info5impls77_$LT$impl$u20$scale_info..TypeInfo$u20$for$u20$alloc..boxed..Box$LT$T$GT$$GT$9type_info17hc4c48011aca3dfbeE.llvm.2254544610208359308>
 - func[624] sig=1 <_ZN10scale_info5impls64_$LT$impl$u20$scale_info..TypeInfo$u20$for$u20$$LP$A$C$B$RP$$GT$9type_info17h753e8c6c0d3bb4e3E.llvm.2254544610208359308>
 - func[625] sig=1 <_ZN16finality_grandpa1_89_$LT$impl$u20$scale_info..TypeInfo$u20$for$u20$finality_grandpa..Prevote$LT$H$C$N$GT$$GT$9type_info17h31ec7555aa2b52a5E.llvm.2254544610208359308>
 - func[626] sig=1 <_ZN10scale_info5impls64_$LT$impl$u20$scale_info..TypeInfo$u20$for$u20$$LP$A$C$B$RP$$GT$9type_info17h91c792bf39de2403E.llvm.2254544610208359308>
 - func[627] sig=1 <_ZN16finality_grandpa1_91_$LT$impl$u20$scale_info..TypeInfo$u20$for$u20$finality_grandpa..Precommit$LT$H$C$N$GT$$GT$9type_info17hac65c4bbc25f6c33E.llvm.2254544610208359308>
 - func[628] sig=1 <_ZN10scale_info5impls77_$LT$impl$u20$scale_info..TypeInfo$u20$for$u20$alloc..boxed..Box$LT$T$GT$$GT$9type_info17h17ceea3968642450E.llvm.2254544610208359308>
 - func[629] sig=1 <_ZN10scale_info5impls77_$LT$impl$u20$scale_info..TypeInfo$u20$for$u20$alloc..boxed..Box$LT$T$GT$$GT$9type_info17h6bce882cb338a54cE.llvm.2254544610208359308>
 - func[630] sig=1 <_ZN10scale_info5impls88_$LT$impl$u20$scale_info..TypeInfo$u20$for$u20$$LP$A$C$B$C$C$C$D$C$E$C$F$C$G$C$H$RP$$GT$9type_info17h57ccb3e55fb4e7a8E.llvm.2254544610208359308>
 - func[631] sig=1 <_ZN12frame_system10extensions21check_non_zero_sender1_127_$LT$impl$u20$scale_info..TypeInfo$u20$for$u20$frame_system..extensions..check_non_zero_sender..CheckNonZeroSender$LT$T$GT$$GT$9type_info17h14d024ef834c2fb5E.llvm.2254544610208359308>
 - func[632] sig=1 <_ZN16finality_grandpa1_99_$LT$impl$u20$scale_info..TypeInfo$u20$for$u20$finality_grandpa..Equivocation$LT$Id$C$V$C$S$GT$$GT$9type_info17h45b9cf51c9477632E.llvm.2254544610208359308>
 - func[633] sig=1 <_ZN19bounded_collections16weak_bounded_vec1_117_$LT$impl$u20$scale_info..TypeInfo$u20$for$u20$bounded_collections..weak_bounded_vec..WeakBoundedVec$LT$T$C$S$GT$$GT$9type_info17ha0371d2f2d567b03E.llvm.2254544610208359308>
 - func[634] sig=1 <_ZN16finality_grandpa1_99_$LT$impl$u20$scale_info..TypeInfo$u20$for$u20$finality_grandpa..Equivocation$LT$Id$C$V$C$S$GT$$GT$9type_info17hbdb5cbb60c422864E.llvm.2254544610208359308>
 - func[635] sig=1 <_ZN19bounded_collections16weak_bounded_vec1_117_$LT$impl$u20$scale_info..TypeInfo$u20$for$u20$bounded_collections..weak_bounded_vec..WeakBoundedVec$LT$T$C$S$GT$$GT$9type_info17hb4d1b0b7688f25eaE.llvm.2254544610208359308>
 - func[636] sig=7 <_ZN120_$LT$bounded_collections..weak_bounded_vec..WeakBoundedVec$LT$T$C$S$GT$$u20$as$u20$parity_scale_codec..codec..Decode$GT$6decode17h5332eaa064ced1bfE>
 - func[637] sig=22 <_ZN13frame_support6traits6tokens9imbalance13on_unbalanced12OnUnbalanced13on_unbalanced17he0565babd8eb1cf4E>
 - func[638] sig=1 <_ZN13frame_support6traits6tokens9imbalance13on_unbalanced12OnUnbalanced14on_unbalanceds17h1d0f85873d5cbe19E>
 - func[639] sig=7 <_ZN16finality_grandpa1_112_$LT$impl$u20$parity_scale_codec..codec..Decode$u20$for$u20$finality_grandpa..Equivocation$LT$Id$C$V$C$S$GT$$GT$6decode17hd6f6543417b5e425E>
 - func[640] sig=8 <_ZN189_$LT$$LP$TupleElement0$C$TupleElement1$C$TupleElement2$C$TupleElement3$C$TupleElement4$C$TupleElement5$C$TupleElement6$C$TupleElement7$RP$$u20$as$u20$sp_runtime..traits..SignedExtension$GT$12pre_dispatch17hb6769ae1d725f8bfE>
 - func[641] sig=26 <_ZN189_$LT$$LP$TupleElement0$C$TupleElement1$C$TupleElement2$C$TupleElement3$C$TupleElement4$C$TupleElement5$C$TupleElement6$C$TupleElement7$RP$$u20$as$u20$sp_runtime..traits..SignedExtension$GT$13post_dispatch17hbdb0ca428178fac2E>
 - func[642] sig=7 <_ZN189_$LT$$LP$TupleElement0$C$TupleElement1$C$TupleElement2$C$TupleElement3$C$TupleElement4$C$TupleElement5$C$TupleElement6$C$TupleElement7$RP$$u20$as$u20$sp_runtime..traits..SignedExtension$GT$17additional_signed17h32f4167b090a82d9E>
 - func[643] sig=2 <_ZN189_$LT$$LP$TupleElement0$C$TupleElement1$C$TupleElement2$C$TupleElement3$C$TupleElement4$C$TupleElement5$C$TupleElement6$C$TupleElement7$RP$$u20$as$u20$sp_runtime..traits..SignedExtension$GT$17validate_unsigned17hcf067ddfbe155185E>
 - func[644] sig=1 <_ZN4core3ptr71drop_in_place$LT$sp_runtime..transaction_validity..ValidTransaction$GT$17h539e55e75fcc37b6E>
 - func[645] sig=1 <_ZN189_$LT$$LP$TupleElement0$C$TupleElement1$C$TupleElement2$C$TupleElement3$C$TupleElement4$C$TupleElement5$C$TupleElement6$C$TupleElement7$RP$$u20$as$u20$sp_runtime..traits..SignedExtension$GT$8metadata17h922321c8dc1d32c7E>
 - func[646] sig=8 <_ZN189_$LT$$LP$TupleElement0$C$TupleElement1$C$TupleElement2$C$TupleElement3$C$TupleElement4$C$TupleElement5$C$TupleElement6$C$TupleElement7$RP$$u20$as$u20$sp_runtime..traits..SignedExtension$GT$8validate17h56745c693f037c56E>
 - func[647] sig=7 <_ZN18parity_scale_codec5codec16inner_tuple_impl109_$LT$impl$u20$parity_scale_codec..codec..Encode$u20$for$u20$$LP$K0$C$L0$C$M0$C$N0$C$O0$C$P0$C$Q0$C$R0$RP$$GT$9encode_to17h4b069fcf8609289aE>
 - func[648] sig=1 <_ZN4core3ptr47drop_in_place$LT$core..cell..BorrowMutError$GT$17ha1da34791c0997e3E.llvm.2254544610208359308>
 - func[649] sig=0 <_ZN55_$LT$X$u20$as$u20$parity_scale_codec..codec..Decode$GT$6decode17hbcdf2cb99c8e1946E>
 - func[650] sig=7 <_ZN103_$LT$pallet_balances..pallet..Call$LT$T$C$I$GT$$u20$as$u20$frame_support..dispatch..GetDispatchInfo$GT$17get_dispatch_info17hfbffcfd0534a04dfE>
 - func[651] sig=2 <_ZN138_$LT$sp_runtime..generic..checked_extrinsic..CheckedExtrinsic$LT$AccountId$C$Call$C$Extra$GT$$u20$as$u20$sp_runtime..traits..Applyable$GT$5apply17hf5f9cdcb7abb1a82E>
 - func[652] sig=1 <_ZN4core3ptr55drop_in_place$LT$node_template_runtime..RuntimeCall$GT$17h1a652cb8af7ee3fdE.llvm.385722808160403130>
 - func[653] sig=11 <_ZN138_$LT$sp_runtime..generic..checked_extrinsic..CheckedExtrinsic$LT$AccountId$C$Call$C$Extra$GT$$u20$as$u20$sp_runtime..traits..Applyable$GT$8validate17h0abc583490631f5dE>
 - func[654] sig=6 <_ZN15pallet_balances191_$LT$impl$u20$frame_support..traits..tokens..fungible..Inspect$LT$$LT$T$u20$as$u20$frame_system..pallet..Config$GT$..AccountId$GT$$u20$for$u20$pallet_balances..pallet..Pallet$LT$T$C$I$GT$$GT$17reducible_balance17hb58f36236696372aE>
 - func[655] sig=38 <_ZN15pallet_balances192_$LT$impl$u20$frame_support..traits..tokens..currency..Currency$LT$$LT$T$u20$as$u20$frame_system..pallet..Config$GT$..AccountId$GT$$u20$for$u20$pallet_balances..pallet..Pallet$LT$T$C$I$GT$$GT$19ensure_can_withdraw17hec0501ed841b49c2E>
 - func[656] sig=13 <_ZN15pallet_balances192_$LT$impl$u20$frame_support..traits..tokens..currency..Currency$LT$$LT$T$u20$as$u20$frame_system..pallet..Config$GT$..AccountId$GT$$u20$for$u20$pallet_balances..pallet..Pallet$LT$T$C$I$GT$$GT$21deposit_into_existing17ha69ef487f896897fE>
 - func[657] sig=39 <_ZN15pallet_balances192_$LT$impl$u20$frame_support..traits..tokens..currency..Currency$LT$$LT$T$u20$as$u20$frame_system..pallet..Config$GT$..AccountId$GT$$u20$for$u20$pallet_balances..pallet..Pallet$LT$T$C$I$GT$$GT$8transfer17he6865b732b86201cE>
 - func[658] sig=40 <_ZN15pallet_balances192_$LT$impl$u20$frame_support..traits..tokens..currency..Currency$LT$$LT$T$u20$as$u20$frame_system..pallet..Config$GT$..AccountId$GT$$u20$for$u20$pallet_balances..pallet..Pallet$LT$T$C$I$GT$$GT$8withdraw17h2ac82412b09bfd00E>
 - func[659] sig=13 <_ZN15pallet_balances214_$LT$impl$u20$frame_support..traits..tokens..currency..reservable..ReservableCurrency$LT$$LT$T$u20$as$u20$frame_system..pallet..Config$GT$..AccountId$GT$$u20$for$u20$pallet_balances..pallet..Pallet$LT$T$C$I$GT$$GT$9unreserve17h52aa0c23bc938d4cE>
 - func[660] sig=2 <_ZN15pallet_balances62_$LT$impl$u20$pallet_balances..pallet..Pallet$LT$T$C$I$GT$$GT$14mutate_account17hf874c508e2df013fE>
 - func[661] sig=1 <_ZN15pallet_balances6pallet1_93_$LT$impl$u20$scale_info..TypeInfo$u20$for$u20$pallet_balances..pallet..Call$LT$T$C$I$GT$$GT$9type_info17hcb240acf9ebf0134E>
 - func[662] sig=1 <_ZN15pallet_balances6pallet1_94_$LT$impl$u20$scale_info..TypeInfo$u20$for$u20$pallet_balances..pallet..Error$LT$T$C$I$GT$$GT$9type_info17hcb30f636f756ed36E>
 - func[663] sig=1 <_ZN15pallet_balances6pallet19Pallet$LT$T$C$I$GT$16storage_metadata17h38fc2338acfa72edE>
 - func[664] sig=1 <_ZN15pallet_balances6pallet19Pallet$LT$T$C$I$GT$25pallet_constants_metadata17h90d44eb1b8d5bfd5E>
 - func[665] sig=7 <_ZN15pallet_balances6pallet1_106_$LT$impl$u20$parity_scale_codec..codec..Decode$u20$for$u20$pallet_balances..pallet..Call$LT$T$C$I$GT$$GT$6decode17h83567575bff3f013E>
 - func[666] sig=7 <_ZN15pallet_balances6pallet1_106_$LT$impl$u20$parity_scale_codec..codec..Encode$u20$for$u20$pallet_balances..pallet..Call$LT$T$C$I$GT$$GT$9encode_to17h47e30223414c9374E>
 - func[667] sig=7 <_ZN15pallet_balances6pallet1_107_$LT$impl$u20$parity_scale_codec..codec..Encode$u20$for$u20$pallet_balances..pallet..Event$LT$T$C$I$GT$$GT$9encode_to17hb55bd41af0740d30E>
 - func[668] sig=1 <_ZN15pallet_balances6pallet1_94_$LT$impl$u20$scale_info..TypeInfo$u20$for$u20$pallet_balances..pallet..Event$LT$T$C$I$GT$$GT$9type_info17h153ca85c0081a505E>
 - func[669] sig=13 <_ZN171_$LT$pallet_balances..pallet..Pallet$LT$T$C$I$GT$$u20$as$u20$frame_support..traits..hooks..OnIdle$LT$$LT$T$u20$as$u20$frame_system..pallet..Config$GT$..BlockNumber$GT$$GT$7on_idle17h3541dea036d26c97E>
 - func[670] sig=6 <_ZN26pallet_transaction_payment69_$LT$impl$u20$pallet_transaction_payment..pallet..Pallet$LT$T$GT$$GT$10query_info17hf03d200b6289150bE>
 - func[671] sig=41 <_ZN26pallet_transaction_payment69_$LT$impl$u20$pallet_transaction_payment..pallet..Pallet$LT$T$GT$$GT$15compute_fee_raw17hb4a4f280e74b5368E.llvm.385722808160403130>
 - func[672] sig=1 <_ZN26pallet_transaction_payment6pallet15Pallet$LT$T$GT$16storage_metadata17hf00958837325cfb3E>
 - func[673] sig=1 <_ZN26pallet_transaction_payment6pallet15Pallet$LT$T$GT$25pallet_constants_metadata17h6926dbba86e0dd5cE>
 - func[674] sig=1 <_ZN26pallet_transaction_payment6pallet1_101_$LT$impl$u20$scale_info..TypeInfo$u20$for$u20$pallet_transaction_payment..pallet..Event$LT$T$GT$$GT$9type_info17h464aed7897ba6963E>
 - func[675] sig=7 <_ZN26pallet_transaction_payment6pallet1_114_$LT$impl$u20$parity_scale_codec..codec..Encode$u20$for$u20$pallet_transaction_payment..pallet..Event$LT$T$GT$$GT$9encode_to17h682d55c1ce9ca358E>
 - func[676] sig=16 <Core_version>
 - func[677] sig=16 <Core_execute_block>
 - func[678] sig=16 <Core_initialize_block>
 - func[679] sig=16 <Metadata_metadata>
 - func[680] sig=16 <BlockBuilder_apply_extrinsic>
 - func[681] sig=16 <BlockBuilder_finalize_block>
 - func[682] sig=16 <BlockBuilder_inherent_extrinsics>
 - func[683] sig=16 <BlockBuilder_check_inherents>
 - func[684] sig=16 <TaggedTransactionQueue_validate_transaction>
 - func[685] sig=16 <OffchainWorkerApi_offchain_worker>
 - func[686] sig=16 <AuraApi_slot_duration>
 - func[687] sig=16 <AuraApi_authorities>
 - func[688] sig=16 <SessionKeys_generate_session_keys>
 - func[689] sig=16 <SessionKeys_decode_session_keys>
 - func[690] sig=16 <GrandpaApi_grandpa_authorities>
 - func[691] sig=16 <GrandpaApi_current_set_id>
 - func[692] sig=16 <GrandpaApi_submit_report_equivocation_unsigned_extrinsic>
 - func[693] sig=16 <GrandpaApi_generate_key_ownership_proof>
 - func[694] sig=16 <AccountNonceApi_account_nonce>
 - func[695] sig=16 <TransactionPaymentApi_query_info>
 - func[696] sig=16 <TransactionPaymentApi_query_fee_details>
 - func[697] sig=16 <TransactionPaymentApi_query_weight_to_fee>
 - func[698] sig=16 <TransactionPaymentApi_query_length_to_fee>
 - func[699] sig=16 <TransactionPaymentCallApi_query_call_info>
 - func[700] sig=16 <TransactionPaymentCallApi_query_call_fee_details>
 - func[701] sig=16 <TransactionPaymentCallApi_query_weight_to_fee>
 - func[702] sig=16 <TransactionPaymentCallApi_query_length_to_fee>
 - func[703] sig=1 <_ZN104_$LT$$LP$TupleElement0$C$TupleElement1$RP$$u20$as$u20$frame_support..traits..hooks..OnRuntimeUpgrade$GT$18on_runtime_upgrade17h22f33dbc7067d81aE>
 - func[704] sig=6 <_ZN12frame_system245_$LT$impl$u20$frame_support..traits..stored_map..StoredMap$LT$$LT$T$u20$as$u20$frame_system..pallet..Config$GT$..AccountId$C$$LT$T$u20$as$u20$frame_system..pallet..Config$GT$..AccountData$GT$$u20$for$u20$frame_system..pallet..Pallet$LT$T$GT$$GT$17try_mutate_exists17h2803963ebfeb0daeE>
 - func[705] sig=6 <_ZN12frame_system245_$LT$impl$u20$frame_support..traits..stored_map..StoredMap$LT$$LT$T$u20$as$u20$frame_system..pallet..Config$GT$..AccountId$C$$LT$T$u20$as$u20$frame_system..pallet..Config$GT$..AccountData$GT$$u20$for$u20$frame_system..pallet..Pallet$LT$T$GT$$GT$17try_mutate_exists17h7dbe0084bf4cd823E>
 - func[706] sig=1 <_ZN12frame_system55_$LT$impl$u20$frame_system..pallet..Pallet$LT$T$GT$$GT$21deposit_event_indexed17h6b33acf6e8230485E.llvm.7856937635361847341>
 - func[707] sig=2 <_ZN12frame_system245_$LT$impl$u20$frame_support..traits..stored_map..StoredMap$LT$$LT$T$u20$as$u20$frame_system..pallet..Config$GT$..AccountId$C$$LT$T$u20$as$u20$frame_system..pallet..Config$GT$..AccountData$GT$$u20$for$u20$frame_system..pallet..Pallet$LT$T$GT$$GT$17try_mutate_exists17h3c7bd8ee27746e79E>
 - func[708] sig=6 <_ZN12frame_system245_$LT$impl$u20$frame_support..traits..stored_map..StoredMap$LT$$LT$T$u20$as$u20$frame_system..pallet..Config$GT$..AccountId$C$$LT$T$u20$as$u20$frame_system..pallet..Config$GT$..AccountData$GT$$u20$for$u20$frame_system..pallet..Pallet$LT$T$GT$$GT$17try_mutate_exists17h7fcbd43155c0bccbE>
 - func[709] sig=6 <_ZN12frame_system245_$LT$impl$u20$frame_support..traits..stored_map..StoredMap$LT$$LT$T$u20$as$u20$frame_system..pallet..Config$GT$..AccountId$C$$LT$T$u20$as$u20$frame_system..pallet..Config$GT$..AccountData$GT$$u20$for$u20$frame_system..pallet..Pallet$LT$T$GT$$GT$17try_mutate_exists17hd97da999c0a83e7eE>
 - func[710] sig=6 <_ZN12frame_system245_$LT$impl$u20$frame_support..traits..stored_map..StoredMap$LT$$LT$T$u20$as$u20$frame_system..pallet..Config$GT$..AccountId$C$$LT$T$u20$as$u20$frame_system..pallet..Config$GT$..AccountData$GT$$u20$for$u20$frame_system..pallet..Pallet$LT$T$GT$$GT$17try_mutate_exists17hda00fb340a313c40E>
 - func[711] sig=6 <_ZN12frame_system55_$LT$impl$u20$frame_system..pallet..Pallet$LT$T$GT$$GT$10initialize17h55f32ea7c410734bE>
 - func[712] sig=6 <_ZN12frame_system55_$LT$impl$u20$frame_system..pallet..Pallet$LT$T$GT$$GT$12can_set_code17h9099cbe7b0740df3E>
 - func[713] sig=10 <_ZN12frame_system55_$LT$impl$u20$frame_system..pallet..Pallet$LT$T$GT$$GT$12reset_events17hf585f4b40dedcf6fE>
 - func[714] sig=7 <_ZN12frame_system55_$LT$impl$u20$frame_system..pallet..Pallet$LT$T$GT$$GT$22note_applied_extrinsic17h877250a4b6920f2bE>
 - func[715] sig=4 <_ZN4core3fmt3num50_$LT$impl$u20$core..fmt..Debug$u20$for$u20$u32$GT$3fmt17h37f0322cef62a07eE>
 - func[716] sig=6 <_ZN12frame_system55_$LT$impl$u20$frame_system..pallet..Pallet$LT$T$GT$$GT$22update_code_in_storage17h585b7f5b336696caE>
 - func[717] sig=10 <_ZN12frame_system55_$LT$impl$u20$frame_system..pallet..Pallet$LT$T$GT$$GT$24note_finished_extrinsics17hd0d3ebc5b0eccc74E>
 - func[718] sig=1 <_ZN12frame_system55_$LT$impl$u20$frame_system..pallet..Pallet$LT$T$GT$$GT$8finalize17ha38c06e79f44ff6cE>
 - func[719] sig=1 <_ZN12frame_system6pallet1_86_$LT$impl$u20$scale_info..TypeInfo$u20$for$u20$frame_system..pallet..Call$LT$T$GT$$GT$9type_info17h604272345757bb25E>
 - func[720] sig=1 <_ZN12frame_system6pallet1_87_$LT$impl$u20$scale_info..TypeInfo$u20$for$u20$frame_system..pallet..Error$LT$T$GT$$GT$9type_info17hdafc3ab34778a55fE>
 - func[721] sig=1 <_ZN12frame_system6pallet15Pallet$LT$T$GT$16storage_metadata17hc1d35092a14e80a3E>
 - func[722] sig=1 <_ZN12frame_system6pallet15Pallet$LT$T$GT$25pallet_constants_metadata17h834021791e70d6e2E>
 - func[723] sig=7 <_ZN12frame_system6pallet1_100_$LT$impl$u20$parity_scale_codec..codec..Encode$u20$for$u20$frame_system..pallet..Event$LT$T$GT$$GT$9encode_to17hbdb9c1770c922f93E>
 - func[724] sig=1 <_ZN12frame_system6pallet1_87_$LT$impl$u20$scale_info..TypeInfo$u20$for$u20$frame_system..pallet..Event$LT$T$GT$$GT$9type_info17he65acd95317814a4E>
 - func[725] sig=7 <_ZN12frame_system6pallet1_99_$LT$impl$u20$parity_scale_codec..codec..Decode$u20$for$u20$frame_system..pallet..Call$LT$T$GT$$GT$6decode17h91512591a1417ff3E>
 - func[726] sig=7 <_ZN12frame_system6pallet1_99_$LT$impl$u20$parity_scale_codec..codec..Encode$u20$for$u20$frame_system..pallet..Call$LT$T$GT$$GT$9encode_to17hf558717b70b188feE>
 - func[727] sig=13 <_ZN164_$LT$frame_system..pallet..Pallet$LT$T$GT$$u20$as$u20$frame_support..traits..hooks..OnIdle$LT$$LT$T$u20$as$u20$frame_system..pallet..Config$GT$..BlockNumber$GT$$GT$7on_idle17h7bc05f24b82db47cE>
 - func[728] sig=13 <_ZN225_$LT$$LP$TupleElement0$C$TupleElement1$C$TupleElement2$C$TupleElement3$C$TupleElement4$C$TupleElement5$C$TupleElement6$C$TupleElement7$C$TupleElement8$RP$$u20$as$u20$frame_support..traits..hooks..OnIdle$LT$BlockNumber$GT$$GT$7on_idle17h928092aefdd930c3E>
 - func[729] sig=1 <_ZN4core3ptr53drop_in_place$LT$parity_scale_codec..error..Error$GT$17hb4ed9f0bf1f9e312E>
 - func[730] sig=7 <_ZN96_$LT$frame_system..pallet..Call$LT$T$GT$$u20$as$u20$frame_support..dispatch..GetDispatchInfo$GT$17get_dispatch_info17he78f84d3df69a33fE>
 - func[731] sig=2 <_ZN5alloc7raw_vec11finish_grow17h69c9ef25f44587f8E.llvm.5807660321424388612>
 - func[732] sig=7 <_ZN5alloc7raw_vec19RawVec$LT$T$C$A$GT$16reserve_for_push17h396a822fc65022a4E>
 - func[733] sig=6 <_ZN5alloc7raw_vec19RawVec$LT$T$C$A$GT$7reserve21do_reserve_and_handle17hc389d403a8a43a37E>
 - func[734] sig=7 <_ZN137_$LT$alloc..vec..Vec$LT$T$GT$$u20$as$u20$alloc..vec..spec_from_iter..SpecFromIter$LT$T$C$alloc..vec..into_iter..IntoIter$LT$T$GT$$GT$$GT$9from_iter17hb3c4f998260aa4e6E>
 - func[735] sig=1 <_ZN15pallet_balances1_75_$LT$impl$u20$scale_info..TypeInfo$u20$for$u20$pallet_balances..Reasons$GT$9type_info17ha57453fc0838e0f5E>
 - func[736] sig=2 <_ZN5alloc7raw_vec11finish_grow17h717aaf7a873371a6E.llvm.13866935588365906072>
 - func[737] sig=7 <_ZN5alloc7raw_vec19RawVec$LT$T$C$A$GT$16reserve_for_push17h360c318324122226E>
 - func[738] sig=7 <_ZN5alloc7raw_vec19RawVec$LT$T$C$A$GT$16reserve_for_push17h3841e9fda55755caE>
 - func[739] sig=6 <_ZN5alloc7raw_vec19RawVec$LT$T$C$A$GT$7reserve21do_reserve_and_handle17h029df671436033ddE>
 - func[740] sig=1 <_ZN10scale_info5impls75_$LT$impl$u20$scale_info..TypeInfo$u20$for$u20$alloc..vec..Vec$LT$T$GT$$GT$9type_info17h3e7dc73b8f3f9966E>
 - func[741] sig=7 <_ZN137_$LT$alloc..vec..Vec$LT$T$GT$$u20$as$u20$alloc..vec..spec_from_iter..SpecFromIter$LT$T$C$alloc..vec..into_iter..IntoIter$LT$T$GT$$GT$$GT$9from_iter17h6743bb8d1a86d8b2E>
 - func[742] sig=2 <_ZN10scale_info5build17Variants$LT$F$GT$7variant17h067cc7587c81ce23E>
 - func[743] sig=1 <_ZN14pallet_grandpa6pallet1_80_$LT$impl$u20$scale_info..TypeInfo$u20$for$u20$pallet_grandpa..pallet..Event$GT$9type_info17ha2e319cb37aeaa8aE>
 - func[744] sig=1 <_ZN10scale_info5impls64_$LT$impl$u20$scale_info..TypeInfo$u20$for$u20$$LP$A$C$B$RP$$GT$9type_info17hea8e2ddf0d5bc0edE>
 - func[745] sig=1 <_ZN26pallet_transaction_payment1_87_$LT$impl$u20$scale_info..TypeInfo$u20$for$u20$pallet_transaction_payment..Releases$GT$9type_info17h8d2181207482b62aE>
 - func[746] sig=2 <_ZN5alloc7raw_vec11finish_grow17h15020cc1cc215dc7E.llvm.8378376015337363081>
 - func[747] sig=7 <_ZN5alloc7raw_vec19RawVec$LT$T$C$A$GT$16reserve_for_push17hfeb7e7b8a62a941bE>
 - func[748] sig=6 <_ZN5alloc7raw_vec19RawVec$LT$T$C$A$GT$7reserve21do_reserve_and_handle17hf4d71a3d17d6548aE>
 - func[749] sig=7 <_ZN137_$LT$alloc..vec..Vec$LT$T$GT$$u20$as$u20$alloc..vec..spec_from_iter..SpecFromIter$LT$T$C$alloc..vec..into_iter..IntoIter$LT$T$GT$$GT$$GT$9from_iter17h9c12f1fdbb116b5fE>
 - func[750] sig=4 <_ZN4core3fmt3num52_$LT$impl$u20$core..fmt..Debug$u20$for$u20$usize$GT$3fmt17ha5102538a7a70669E.llvm.8146613307230284552>
 - func[751] sig=4 <_ZN71_$LT$parity_scale_codec..error..Error$u20$as$u20$core..fmt..Display$GT$3fmt17hbe2aeeb3541bc30dE>
 - func[752] sig=4 <_ZN69_$LT$parity_scale_codec..error..Error$u20$as$u20$core..fmt..Debug$GT$3fmt17h023c813a8a4b1f66E>
 - func[753] sig=2 <_ZN5alloc7raw_vec11finish_grow17h4727aaa188d30157E.llvm.15831061846655436958>
 - func[754] sig=6 <_ZN5alloc7raw_vec19RawVec$LT$T$C$A$GT$7reserve21do_reserve_and_handle17hf82f5b12bb34ab6dE>
 - func[755] sig=3 <_ZN102_$LT$parity_scale_codec..compact..PrefixInput$LT$T$GT$$u20$as$u20$parity_scale_codec..codec..Input$GT$4read17h12dbdf94d9f33400E>
 - func[756] sig=7 <_ZN99_$LT$parity_scale_codec..compact..Compact$LT$T$GT$$u20$as$u20$parity_scale_codec..codec..Encode$GT$9encode_to17h66ed16bbeb5eeddeE>
 - func[757] sig=7 <_ZN101_$LT$parity_scale_codec..compact..Compact$LT$u32$GT$$u20$as$u20$parity_scale_codec..codec..Decode$GT$6decode17he6b6dc47b0f392c4E>
 - func[758] sig=1 <_ZN15primitive_types1_72_$LT$impl$u20$scale_info..TypeInfo$u20$for$u20$primitive_types..H256$GT$9type_info17h3eb14c3bddc1e7e0E>
 - func[759] sig=2 <_ZN5alloc7raw_vec11finish_grow17h79b9291e08cd9cddE.llvm.1546836553066571878>
 - func[760] sig=7 <_ZN5alloc7raw_vec19RawVec$LT$T$C$A$GT$16reserve_for_push17hc4ceaf79250954c3E>
 - func[761] sig=6 <_ZN5alloc7raw_vec19RawVec$LT$T$C$A$GT$7reserve21do_reserve_and_handle17h17c6b37c0234a297E>
 - func[762] sig=1 <_ZN10scale_info5impls73_$LT$impl$u20$scale_info..TypeInfo$u20$for$u20$$u5b$T$u3b$$u20$N$u5d$$GT$9type_info17h540efbeca381a97cE>
 - func[763] sig=7 <_ZN137_$LT$alloc..vec..Vec$LT$T$GT$$u20$as$u20$alloc..vec..spec_from_iter..SpecFromIter$LT$T$C$alloc..vec..into_iter..IntoIter$LT$T$GT$$GT$$GT$9from_iter17h6ecf03fc0cdfed26E>
 - func[764] sig=42 <_ZN5alloc11collections5btree4node210Handle$LT$alloc..collections..btree..node..NodeRef$LT$alloc..collections..btree..node..marker..Mut$C$K$C$V$C$alloc..collections..btree..node..marker..Leaf$GT$$C$alloc..collections..btree..node..marker..Edge$GT$16insert_recursing17h9fbbabbff675e6a8E>
 - func[765] sig=2 <_ZN5alloc11collections5btree4node210Handle$LT$alloc..collections..btree..node..NodeRef$LT$alloc..collections..btree..node..marker..Mut$C$K$C$V$C$alloc..collections..btree..node..marker..Leaf$GT$$C$alloc..collections..btree..node..marker..Edge$GT$16insert_recursing17hfc780a35a8ee0ac6E>
 - func[766] sig=2 <_ZN5alloc7raw_vec11finish_grow17h4831b9f5e39f3c5aE.llvm.10694975156633818596>
 - func[767] sig=6 <_ZN5alloc7raw_vec19RawVec$LT$T$C$A$GT$11allocate_in17h533210948df7cf31E>
 - func[768] sig=7 <_ZN5alloc7raw_vec19RawVec$LT$T$C$A$GT$16reserve_for_push17h722c40059ab5f64dE>
 - func[769] sig=7 <_ZN5alloc7raw_vec19RawVec$LT$T$C$A$GT$16reserve_for_push17hf13be85888cba0a1E>
 - func[770] sig=6 <_ZN5alloc7raw_vec19RawVec$LT$T$C$A$GT$7reserve21do_reserve_and_handle17h185341a5ae9c05d9E>
 - func[771] sig=6 <_ZN5alloc7raw_vec19RawVec$LT$T$C$A$GT$7reserve21do_reserve_and_handle17h695ad45353947af8E>
 - func[772] sig=6 <_ZN5alloc7raw_vec19RawVec$LT$T$C$A$GT$7reserve21do_reserve_and_handle17ha105682d8c7f62d2E>
 - func[773] sig=6 <_ZN5alloc7raw_vec19RawVec$LT$T$C$A$GT$7reserve21do_reserve_and_handle17he48ce278776c84f3E>
 - func[774] sig=7 <_ZN102_$LT$core..iter..adapters..map..Map$LT$I$C$F$GT$$u20$as$u20$core..iter..traits..iterator..Iterator$GT$4fold17h52e7e92b9e5421e0E>
 - func[775] sig=7 <_ZN102_$LT$core..iter..adapters..map..Map$LT$I$C$F$GT$$u20$as$u20$core..iter..traits..iterator..Iterator$GT$4fold17h6fc9bb37d7fb9bf4E>
 - func[776] sig=11 <_ZN102_$LT$core..iter..adapters..map..Map$LT$I$C$F$GT$$u20$as$u20$core..iter..traits..iterator..Iterator$GT$8try_fold17h0358f606182977b1E>
 - func[777] sig=11 <_ZN4core3str21_$LT$impl$u20$str$GT$18trim_start_matches17h10ca2d0274df328bE>
 - func[778] sig=1 <_ZN10scale_info5impls55_$LT$impl$u20$scale_info..TypeInfo$u20$for$u20$bool$GT$9type_info17h28e93122c5b9a52dE>
 - func[779] sig=1 <_ZN10scale_info5impls53_$LT$impl$u20$scale_info..TypeInfo$u20$for$u20$u8$GT$9type_info17hffc23daf484d37fbE>
 - func[780] sig=1 <_ZN10scale_info5impls54_$LT$impl$u20$scale_info..TypeInfo$u20$for$u20$u16$GT$9type_info17hc780884f15e1c27eE>
 - func[781] sig=1 <_ZN10scale_info5impls54_$LT$impl$u20$scale_info..TypeInfo$u20$for$u20$u32$GT$9type_info17h72a8ef7ff2d04067E>
 - func[782] sig=1 <_ZN10scale_info5impls54_$LT$impl$u20$scale_info..TypeInfo$u20$for$u20$u64$GT$9type_info17hb8a89882bbc7c72fE>
 - func[783] sig=1 <_ZN10scale_info5impls55_$LT$impl$u20$scale_info..TypeInfo$u20$for$u20$u128$GT$9type_info17hccb5bb30256837eeE>
 - func[784] sig=1 <_ZN10scale_info5impls59_$LT$impl$u20$scale_info..TypeInfo$u20$for$u20$$LP$$RP$$GT$9type_info17h10d2742e8c5a963aE>
 - func[785] sig=4 <_ZN10scale_info5utils18is_rust_identifier17h5476116e851c54f0E>
 - func[786] sig=2 <_ZN4core3ops8function5impls80_$LT$impl$u20$core..ops..function..FnOnce$LT$A$GT$$u20$for$u20$$RF$mut$u20$F$GT$9call_once17he96dc6839e61a050E>
 - func[787] sig=1 <_ZN4core3ptr30drop_in_place$LT$$RF$usize$GT$17hbf009afe516e1a68E>
 - func[788] sig=4 <_ZN10scale_info8registry8Registry13register_type17hb80e605c9484e25cE>
 - func[789] sig=11 <_ZN10scale_info2ty4path4Path3new17h3e603bd48b8b3da6E>
 - func[790] sig=6 <_ZN10scale_info2ty4path4Path7prelude17h9701a4d894f7ae75E>
 - func[791] sig=4 <_ZN68_$LT$scale_info..ty..path..PathError$u20$as$u20$core..fmt..Debug$GT$3fmt17hcb53b7597601a163E>
 - func[792] sig=7 <_ZN137_$LT$alloc..vec..Vec$LT$T$GT$$u20$as$u20$alloc..vec..spec_from_iter..SpecFromIter$LT$T$C$alloc..vec..into_iter..IntoIter$LT$T$GT$$GT$$GT$9from_iter17h2e1b95ed134cfedbE>
 - func[793] sig=7 <_ZN5alloc3vec16in_place_collect108_$LT$impl$u20$alloc..vec..spec_from_iter..SpecFromIter$LT$T$C$I$GT$$u20$for$u20$alloc..vec..Vec$LT$T$GT$$GT$9from_iter17h712898c2c77993eaE>
 - func[794] sig=7 <_ZN67_$LT$alloc..vec..Vec$LT$T$C$A$GT$$u20$as$u20$core..clone..Clone$GT$5clone17h692776556518f37cE>
 - func[795] sig=7 <_ZN67_$LT$alloc..vec..Vec$LT$T$C$A$GT$$u20$as$u20$core..clone..Clone$GT$5clone17hdcfc031559ed128aE>
 - func[796] sig=7 <_ZN67_$LT$alloc..vec..Vec$LT$T$C$A$GT$$u20$as$u20$core..clone..Clone$GT$5clone17hc1748bfbb02a3e74E>
 - func[797] sig=7 <_ZN90_$LT$core..str..iter..Split$LT$P$GT$$u20$as$u20$core..iter..traits..iterator..Iterator$GT$4next17h281a5fcf84eab362E.llvm.7502330796226634698>
 - func[798] sig=7 <_ZN98_$LT$alloc..vec..Vec$LT$T$GT$$u20$as$u20$alloc..vec..spec_from_iter..SpecFromIter$LT$T$C$I$GT$$GT$9from_iter17h4e312437d195716eE>
 - func[799] sig=7 <_ZN98_$LT$alloc..vec..Vec$LT$T$GT$$u20$as$u20$alloc..vec..spec_from_iter..SpecFromIter$LT$T$C$I$GT$$GT$9from_iter17h77631f2c5b1c7a42E>
 - func[800] sig=7 <_ZN98_$LT$alloc..vec..Vec$LT$T$GT$$u20$as$u20$alloc..vec..spec_from_iter..SpecFromIter$LT$T$C$I$GT$$GT$9from_iter17hc4feb041846f6010E>
 - func[801] sig=6 <_ZN78_$LT$scale_info..ty..TypeDef$u20$as$u20$scale_info..registry..IntoPortable$GT$13into_portable17hb9bae9388d1c48d4E>
 - func[802] sig=7 <_ZN108_$LT$alloc..collections..btree..map..Iter$LT$K$C$V$GT$$u20$as$u20$core..iter..traits..iterator..Iterator$GT$4next17h4572026941aa26a3E>
 - func[803] sig=1 <_ZN99_$LT$alloc..collections..btree..map..BTreeMap$LT$K$C$V$C$A$GT$$u20$as$u20$core..ops..drop..Drop$GT$4drop17h3450f0a2867f55deE>
 - func[804] sig=1 <_ZN99_$LT$alloc..collections..btree..map..BTreeMap$LT$K$C$V$C$A$GT$$u20$as$u20$core..ops..drop..Drop$GT$4drop17haa49a43819f3cdc6E>
 - func[805] sig=4 <_ZN5alloc11collections5btree3map5entry28VacantEntry$LT$K$C$V$C$A$GT$6insert17h23f1248ed42727fdE>
 - func[806] sig=4 <_ZN5alloc11collections5btree3map5entry28VacantEntry$LT$K$C$V$C$A$GT$6insert17hb932bdd049c40c53E>
 - func[807] sig=4 <_ZN42_$LT$$RF$T$u20$as$u20$core..fmt..Debug$GT$3fmt17h0122e11f99c05453E>
 - func[808] sig=4 <_ZN42_$LT$$RF$T$u20$as$u20$core..fmt..Debug$GT$3fmt17h0ff6b9be392ef93bE>
 - func[809] sig=1 <_ZN4core3ptr79drop_in_place$LT$scale_info..ty..Type$LT$scale_info..form..PortableForm$GT$$GT$17hb6c6f6a0c7016bf7E.llvm.1923044490418807390>
 - func[810] sig=43 <_ZN10scale_info8interner17Interner$LT$T$GT$13intern_or_get17hdb02f0b935944147E>
 - func[811] sig=2 <_ZN5alloc7raw_vec11finish_grow17hef565a5dba755906E.llvm.6450960483865191428>
 - func[812] sig=7 <_ZN5alloc7raw_vec19RawVec$LT$T$C$A$GT$16reserve_for_push17h3465fb82447c3ca4E>
 - func[813] sig=7 <_ZN5alloc7raw_vec19RawVec$LT$T$C$A$GT$16reserve_for_push17h8fe7f00114deba4cE>
 - func[814] sig=6 <_ZN5alloc7raw_vec19RawVec$LT$T$C$A$GT$7reserve21do_reserve_and_handle17h50750b4c22322debE>
 - func[815] sig=6 <_ZN5alloc7raw_vec19RawVec$LT$T$C$A$GT$7reserve21do_reserve_and_handle17h5d912746cad35c20E>
 - func[816] sig=44 <_ZN13sp_arithmetic14helpers_128bit9double1289Double1283div17h274587e85fd50222E>
 - func[817] sig=1 <_ZN13sp_arithmetic11fixed_point1_88_$LT$impl$u20$scale_info..TypeInfo$u20$for$u20$sp_arithmetic..fixed_point..FixedU128$GT$9type_info17hcde7bd8695b02cc2E>
 - func[818] sig=7 <_ZN137_$LT$alloc..vec..Vec$LT$T$GT$$u20$as$u20$alloc..vec..spec_from_iter..SpecFromIter$LT$T$C$alloc..vec..into_iter..IntoIter$LT$T$GT$$GT$$GT$9from_iter17h462e266002918838E>
 - func[819] sig=7 <_ZN137_$LT$alloc..vec..Vec$LT$T$GT$$u20$as$u20$alloc..vec..spec_from_iter..SpecFromIter$LT$T$C$alloc..vec..into_iter..IntoIter$LT$T$GT$$GT$$GT$9from_iter17h78044694c3d267bcE>
 - func[820] sig=1 <_ZN13sp_arithmetic1_81_$LT$impl$u20$scale_info..TypeInfo$u20$for$u20$sp_arithmetic..ArithmeticError$GT$9type_info17h87c69931fb805a39E>
 - func[821] sig=2 <_ZN5alloc7raw_vec11finish_grow17h5378ea1163addd8bE.llvm.2619779649146916606>
 - func[822] sig=7 <_ZN5alloc7raw_vec19RawVec$LT$T$C$A$GT$16reserve_for_push17ha3fb5c0165ce09b4E>
 - func[823] sig=6 <_ZN5alloc7raw_vec19RawVec$LT$T$C$A$GT$7reserve21do_reserve_and_handle17h075b3ae1af3d2203E>
 - func[824] sig=7 <_ZN137_$LT$alloc..vec..Vec$LT$T$GT$$u20$as$u20$alloc..vec..spec_from_iter..SpecFromIter$LT$T$C$alloc..vec..into_iter..IntoIter$LT$T$GT$$GT$$GT$9from_iter17hbffeacc4346d3965E>
 - func[825] sig=1 <_ZN17sp_consensus_aura7sr2551911app_sr255191_98_$LT$impl$u20$scale_info..TypeInfo$u20$for$u20$sp_consensus_aura..sr25519..app_sr25519..Public$GT$9type_info17h30ae5f03ff53a3abE>
 - func[826] sig=2 <_ZN5alloc7raw_vec11finish_grow17hf2c8312a1c97987dE.llvm.11050665762092383256>
 - func[827] sig=7 <_ZN5alloc7raw_vec19RawVec$LT$T$C$A$GT$16reserve_for_push17h7092af70a2a7b492E>
 - func[828] sig=6 <_ZN5alloc7raw_vec19RawVec$LT$T$C$A$GT$7reserve21do_reserve_and_handle17he090b29feaf70990E>
 - func[829] sig=7 <_ZN137_$LT$alloc..vec..Vec$LT$T$GT$$u20$as$u20$alloc..vec..spec_from_iter..SpecFromIter$LT$T$C$alloc..vec..into_iter..IntoIter$LT$T$GT$$GT$$GT$9from_iter17haa38499783015d33E>
 - func[830] sig=7 <_ZN44_$LT$T$u20$as$u20$alloc..borrow..ToOwned$GT$8to_owned17h80e3258c9af2b574E>
 - func[831] sig=1 <_ZN20sp_consensus_grandpa3app1_84_$LT$impl$u20$scale_info..TypeInfo$u20$for$u20$sp_consensus_grandpa..app..Public$GT$9type_info17hbde45d254bbd72abE>
 - func[832] sig=1 <_ZN20sp_consensus_grandpa3app1_87_$LT$impl$u20$scale_info..TypeInfo$u20$for$u20$sp_consensus_grandpa..app..Signature$GT$9type_info17h2d5d1835fbef913aE>
 - func[833] sig=2 <_ZN5alloc7raw_vec11finish_grow17h106db5754382b96eE.llvm.2420109233546714739>
 - func[834] sig=7 <_ZN5alloc7raw_vec19RawVec$LT$T$C$A$GT$16reserve_for_push17h50732bab2a4ca748E>
 - func[835] sig=6 <_ZN5alloc7raw_vec19RawVec$LT$T$C$A$GT$7reserve21do_reserve_and_handle17ha0aaa3d9fedc3bb6E>
 - func[836] sig=7 <_ZN137_$LT$alloc..vec..Vec$LT$T$GT$$u20$as$u20$alloc..vec..spec_from_iter..SpecFromIter$LT$T$C$alloc..vec..into_iter..IntoIter$LT$T$GT$$GT$$GT$9from_iter17h8ecb9496464cf47aE>
 - func[837] sig=1 <_ZN18sp_consensus_slots1_75_$LT$impl$u20$scale_info..TypeInfo$u20$for$u20$sp_consensus_slots..Slot$GT$9type_info17hc31637e440a793a6E>
 - func[838] sig=2 <_ZN5alloc7raw_vec11finish_grow17h0b1c577229c24863E.llvm.11580869963335601200>
 - func[839] sig=7 <_ZN5alloc7raw_vec19RawVec$LT$T$C$A$GT$16reserve_for_push17hd88043f3743d0526E>
 - func[840] sig=6 <_ZN5alloc7raw_vec19RawVec$LT$T$C$A$GT$7reserve21do_reserve_and_handle17h1b816b11f77b7d18E>
 - func[841] sig=6 <_ZN5alloc7raw_vec19RawVec$LT$T$C$A$GT$7reserve21do_reserve_and_handle17he1f884f6bdce96c7E>
 - func[842] sig=1 <_ZN7sp_core5ecdsa1_76_$LT$impl$u20$scale_info..TypeInfo$u20$for$u20$sp_core..ecdsa..Signature$GT$9type_info17hcd8ad6e8634bf67aE>
 - func[843] sig=1 <_ZN7sp_core1_64_$LT$impl$u20$scale_info..TypeInfo$u20$for$u20$sp_core..Void$GT$9type_info17h10d139fe635f3ba6E>
 - func[844] sig=1 <_ZN10scale_info5impls73_$LT$impl$u20$scale_info..TypeInfo$u20$for$u20$$u5b$T$u3b$$u20$N$u5d$$GT$9type_info17h90b1929ad54f402bE>
 - func[845] sig=1 <_ZN10scale_info5impls73_$LT$impl$u20$scale_info..TypeInfo$u20$for$u20$$u5b$T$u3b$$u20$N$u5d$$GT$9type_info17hbdce70522742218cE>
 - func[846] sig=1 <_ZN10scale_info5impls73_$LT$impl$u20$scale_info..TypeInfo$u20$for$u20$$u5b$T$u3b$$u20$N$u5d$$GT$9type_info17hcca905aba12170a3E>
 - func[847] sig=7 <_ZN99_$LT$parity_scale_codec..compact..Compact$LT$T$GT$$u20$as$u20$parity_scale_codec..codec..Encode$GT$9encode_to17hbd916ad4b2c92177E>
 - func[848] sig=7 <_ZN137_$LT$alloc..vec..Vec$LT$T$GT$$u20$as$u20$alloc..vec..spec_from_iter..SpecFromIter$LT$T$C$alloc..vec..into_iter..IntoIter$LT$T$GT$$GT$$GT$9from_iter17h8ae690c49a8bd97bE>
 - func[849] sig=7 <_ZN137_$LT$alloc..vec..Vec$LT$T$GT$$u20$as$u20$alloc..vec..spec_from_iter..SpecFromIter$LT$T$C$alloc..vec..into_iter..IntoIter$LT$T$GT$$GT$$GT$9from_iter17hcc20bd14bcf4350cE>
 - func[850] sig=7 <_ZN55_$LT$X$u20$as$u20$parity_scale_codec..codec..Encode$GT$6encode17hd7dab68ed0702df0E>
 - func[851] sig=1 <_ZN7sp_core7ed255191_75_$LT$impl$u20$scale_info..TypeInfo$u20$for$u20$sp_core..ed25519..Public$GT$9type_info17hb609b8105b4a9af3E>
 - func[852] sig=1 <_ZN7sp_core7ed255191_78_$LT$impl$u20$scale_info..TypeInfo$u20$for$u20$sp_core..ed25519..Signature$GT$9type_info17h1ada91c18298faa8E>
 - func[853] sig=1 <_ZN7sp_core7sr255191_75_$LT$impl$u20$scale_info..TypeInfo$u20$for$u20$sp_core..sr25519..Public$GT$9type_info17h1d5bdad343af0538E>
 - func[854] sig=1 <_ZN7sp_core7sr255191_78_$LT$impl$u20$scale_info..TypeInfo$u20$for$u20$sp_core..sr25519..Signature$GT$9type_info17hf8bf3ab2eb3d2909E>
 - func[855] sig=1 <_ZN7sp_core6crypto1_79_$LT$impl$u20$scale_info..TypeInfo$u20$for$u20$sp_core..crypto..AccountId32$GT$9type_info17h71d004c5624cdf62E>
 - func[856] sig=4 <_ZN42_$LT$$RF$T$u20$as$u20$core..fmt..Debug$GT$3fmt17h258812ad35885f9cE>
 - func[857] sig=4 <_ZN4core5array69_$LT$impl$u20$core..fmt..Debug$u20$for$u20$$u5b$T$u3b$$u20$N$u5d$$GT$3fmt17hdf5fd152f8bd4f40E>
 - func[858] sig=1 <_ZN4core3ptr27drop_in_place$LT$$RF$u8$GT$17he30874e8bdb6b52fE.llvm.1637812024920382065>
 - func[859] sig=4 <_ZN42_$LT$$RF$T$u20$as$u20$core..fmt..Debug$GT$3fmt17ha885398bac1a827cE>
 - func[860] sig=4 <_ZN42_$LT$$RF$T$u20$as$u20$core..fmt..Debug$GT$3fmt17hbfd174bcfe41c3deE>
 - func[861] sig=1 <_ZN4core3ptr48drop_in_place$LT$$RF$$u5b$u8$u3b$$u20$8$u5d$$GT$17h5a197589501cc2c4E>
 - func[862] sig=4 <_ZN56_$LT$sp_inherents..Error$u20$as$u20$core..fmt..Debug$GT$3fmt17h86434760ac60b5e4E>
 - func[863] sig=7 <_ZN18parity_scale_codec5codec17decode_from_bytes17h06bffb2c427c0e95E>
 - func[864] sig=6 <_ZN18parity_scale_codec5codec19decode_vec_with_len17h6f7823a01fa0bed1E>
 - func[865] sig=7 <_ZN5sp_io1_88_$LT$impl$u20$parity_scale_codec..codec..Decode$u20$for$u20$sp_io..KillStorageResult$GT$6decode17h5b417c3382d9cd3aE>
 - func[866] sig=7 <_ZN4core3fmt9Arguments6as_str17ha4226fc8a4da16bdE.llvm.18132745779020557047>
 - func[867] sig=2 <_ZN4core6option15Option$LT$T$GT$11map_or_else17h560c0a7093f73c5bE.llvm.18132745779020557047>
 - func[868] sig=1 <rust_begin_unwind>
 - func[869] sig=7 <_ZN5sp_io3oom17hb8317157bb9d2d3eE>
 - func[870] sig=7 <__rg_oom>
 - func[871] sig=6 <_ZN5sp_io6crypto26extern_host_function_impls16ed25519_generate17h83955b86a83051fcE>
 - func[872] sig=9 <_ZN5sp_io6crypto26extern_host_function_impls14ed25519_verify17h06dae3e99bf19792E>
 - func[873] sig=12 <_ZN5sp_io6crypto26extern_host_function_impls19finish_batch_verify17h3d5834c575fe0b20E>
 - func[874] sig=6 <_ZN5sp_io6crypto26extern_host_function_impls34secp256k1_ecdsa_recover_compressed17h36261bf38f041bd9E>
 - func[875] sig=6 <_ZN5sp_io6crypto26extern_host_function_impls16sr25519_generate17hf3dd29a0b1945220E>
 - func[876] sig=9 <_ZN5sp_io6crypto26extern_host_function_impls14sr25519_verify17hf7132aeeb66c66cdE>
 - func[877] sig=10 <_ZN5sp_io6crypto26extern_host_function_impls18start_batch_verify17he815c1ccb70972ccE>
 - func[878] sig=11 <_ZN5sp_io7logging26extern_host_function_impls3log17hdd458f5180b51436E>
 - func[879] sig=12 <_ZN5sp_io7logging26extern_host_function_impls9max_level17hf3fb18ed4b473410E>
 - func[880] sig=6 <_ZN5sp_io7hashing26extern_host_function_impls10blake2_12817hfd5c56043582f973E>
 - func[881] sig=6 <_ZN5sp_io7hashing26extern_host_function_impls10blake2_25617ha76166d93d964c2bE>
 - func[882] sig=6 <_ZN5sp_io7hashing26extern_host_function_impls8twox_12817h120530b5c2b45a50E>
 - func[883] sig=6 <_ZN5sp_io7hashing26extern_host_function_impls7twox_6417h2b0fd84814d016c1E>
 - func[884] sig=6 <_ZN20sp_runtime_interface5impls82_$LT$impl$u20$sp_runtime_interface..wasm..IntoFFIValue$u20$for$u20$$u5b$T$u5d$$GT$14into_ffi_value17h6543d61a982078a9E>
 - func[885] sig=45 <_ZN116_$LT$sp_runtime_interface..pass_by..Codec$LT$T$GT$$u20$as$u20$sp_runtime_interface..pass_by..PassByImpl$LT$T$GT$$GT$14from_ffi_value17h0952bdf04c147e92E>
 - func[886] sig=4 <_ZN45_$LT$$LP$$RP$$u20$as$u20$core..fmt..Debug$GT$3fmt17hd3919e2cb60ad48eE.llvm.5061338377777191846>
 - func[887] sig=1 <_ZN4core3ptr29drop_in_place$LT$$LP$$RP$$GT$17h7029b9b941b5f8feE.llvm.5061338377777191846>
 - func[888] sig=4 <_ZN44_$LT$$RF$T$u20$as$u20$core..fmt..Display$GT$3fmt17hef8f8a3f65ea546aE>
 - func[889] sig=6 <_ZN5sp_io4trie26extern_host_function_impls23blake2_256_ordered_root17h0c5d87eb7fd037c5E>
 - func[890] sig=7 <_ZN5sp_io4misc26extern_host_function_impls9print_hex17he0fba415039901bfE>
 - func[891] sig=7 <_ZN5sp_io4misc26extern_host_function_impls10print_utf817hba00e646ef772a07E>
 - func[892] sig=6 <_ZN5sp_io4misc26extern_host_function_impls15runtime_version17h050b914a4171a2ecE>
 - func[893] sig=1 <_ZN5sp_io9allocator26extern_host_function_impls4free17hef40bdd7cd4d0433E>
 - func[894] sig=0 <_ZN5sp_io9allocator26extern_host_function_impls6malloc17h7901224d9cf7bfe6E>
 - func[895] sig=6 <_ZN5sp_io7storage26extern_host_function_impls6append17h8ce576ec0bc31e79E>
 - func[896] sig=7 <_ZN5sp_io7storage26extern_host_function_impls5clear17h12dcaf19067a30eeE>
 - func[897] sig=11 <_ZN5sp_io7storage26extern_host_function_impls12clear_prefix17h9dcc72783bbd7f3fE>
 - func[898] sig=10 <_ZN5sp_io7storage26extern_host_function_impls18commit_transaction17hc4603b40e880d893E>
 - func[899] sig=4 <_ZN5sp_io7storage26extern_host_function_impls6exists17h6c662ff36cb263e2E>
 - func[900] sig=6 <_ZN5sp_io7storage26extern_host_function_impls3get17h367f9f202d104f1eE>
 - func[901] sig=8 <_ZN5sp_io7storage26extern_host_function_impls4read17h77ecc3471e2db9c6E>
 - func[902] sig=10 <_ZN5sp_io7storage26extern_host_function_impls20rollback_transaction17ha01b8c5fa848c919E>
 - func[903] sig=7 <_ZN5sp_io7storage26extern_host_function_impls4root17hb3dd64bbf0c7c7edE>
 - func[904] sig=2 <_ZN5sp_io7storage26extern_host_function_impls3set17h30dab56f3cf5e7a2E>
 - func[905] sig=10 <_ZN5sp_io7storage26extern_host_function_impls17start_transaction17h54d48168b5039ab1E>
 - func[906] sig=7 <_ZN87_$LT$core..result..Result$LT$T$C$E$GT$$u20$as$u20$parity_scale_codec..codec..Decode$GT$6decode17h3f3cea199be19c52E>
 - func[907] sig=7 <_ZN18parity_scale_codec5codec6Encode6encode17hcf409ef3fe6a064dE>
 - func[908] sig=7 <_ZN83_$LT$core..option..Option$LT$T$GT$$u20$as$u20$parity_scale_codec..codec..Decode$GT$6decode17h7318d15f00e2351aE>
 - func[909] sig=7 <_ZN83_$LT$core..option..Option$LT$T$GT$$u20$as$u20$parity_scale_codec..codec..Decode$GT$6decode17h7aa2d462bfdbe386E>
 - func[910] sig=7 <_ZN83_$LT$core..option..Option$LT$T$GT$$u20$as$u20$parity_scale_codec..codec..Decode$GT$6decode17h6380877453b2061cE>
 - func[911] sig=7 <_ZN101_$LT$parity_scale_codec..compact..Compact$LT$u32$GT$$u20$as$u20$parity_scale_codec..codec..Decode$GT$6decode17h785b24b82b1b6a3dE>
 - func[912] sig=3 <_ZN102_$LT$parity_scale_codec..compact..PrefixInput$LT$T$GT$$u20$as$u20$parity_scale_codec..codec..Input$GT$4read17h811ca8eb1e2fe791E>
 - func[913] sig=7 <_ZN99_$LT$parity_scale_codec..compact..Compact$LT$T$GT$$u20$as$u20$parity_scale_codec..codec..Encode$GT$9encode_to17h86253c8162a8e8c5E>
 - func[914] sig=2 <_ZN5alloc7raw_vec11finish_grow17h7d121c37cb77ac9dE.llvm.10581263871572552565>
 - func[915] sig=7 <_ZN5alloc7raw_vec19RawVec$LT$T$C$A$GT$16reserve_for_push17h386a161fe6d89062E>
 - func[916] sig=7 <_ZN5alloc7raw_vec19RawVec$LT$T$C$A$GT$16reserve_for_push17hcaa190e319bd214bE>
 - func[917] sig=7 <_ZN5alloc7raw_vec19RawVec$LT$T$C$A$GT$16reserve_for_push17hcd022027e77b6ff0E>
 - func[918] sig=6 <_ZN5alloc7raw_vec19RawVec$LT$T$C$A$GT$7reserve21do_reserve_and_handle17h07d68f76b14d6a35E>
 - func[919] sig=6 <_ZN5alloc7raw_vec19RawVec$LT$T$C$A$GT$7reserve21do_reserve_and_handle17h76926f13f5c5794cE>
 - func[920] sig=6 <_ZN5alloc7raw_vec19RawVec$LT$T$C$A$GT$7reserve21do_reserve_and_handle17h8fd9e65c8ac69f69E>
 - func[921] sig=6 <_ZN5alloc7raw_vec19RawVec$LT$T$C$A$GT$7reserve21do_reserve_and_handle17habda88e70e028728E>
 - func[922] sig=2 <_ZN10scale_info5build17Variants$LT$F$GT$7variant17h01a5ba2e720c931cE>
 - func[923] sig=2 <_ZN10scale_info5build17Variants$LT$F$GT$7variant17h04acf876441eb80cE>
 - func[924] sig=2 <_ZN10scale_info5build17Variants$LT$F$GT$7variant17h04ada81864be33ceE>
 - func[925] sig=2 <_ZN10scale_info5build17Variants$LT$F$GT$7variant17h04d646085ce323bdE>
 - func[926] sig=2 <_ZN10scale_info5build17Variants$LT$F$GT$7variant17h0540c066020e2511E>
 - func[927] sig=2 <_ZN10scale_info5build17Variants$LT$F$GT$7variant17h0559f5de1f998ebaE>
 - func[928] sig=2 <_ZN10scale_info5build17Variants$LT$F$GT$7variant17h06dfd7e62e01d566E>
 - func[929] sig=2 <_ZN10scale_info5build17Variants$LT$F$GT$7variant17h08516da0f6c9e965E>
 - func[930] sig=2 <_ZN10scale_info5build17Variants$LT$F$GT$7variant17h085447046fe8e3f2E>
 - func[931] sig=2 <_ZN10scale_info5build17Variants$LT$F$GT$7variant17h08db24cce0f11b10E>
 - func[932] sig=2 <_ZN10scale_info5build17Variants$LT$F$GT$7variant17h096513b97c529591E>
 - func[933] sig=2 <_ZN10scale_info5build17Variants$LT$F$GT$7variant17h0d9e3277d81d6b71E>
 - func[934] sig=2 <_ZN10scale_info5build17Variants$LT$F$GT$7variant17h0fa06ebf134b0489E>
 - func[935] sig=2 <_ZN10scale_info5build17Variants$LT$F$GT$7variant17h124a69c2515a946bE>
 - func[936] sig=2 <_ZN10scale_info5build17Variants$LT$F$GT$7variant17h125b33cc7629e0a5E>
 - func[937] sig=2 <_ZN10scale_info5build17Variants$LT$F$GT$7variant17h1395eaa45e9e4f6cE>
 - func[938] sig=2 <_ZN10scale_info5build17Variants$LT$F$GT$7variant17h148dd9e46fd98f9bE>
 - func[939] sig=2 <_ZN10scale_info5build17Variants$LT$F$GT$7variant17h14cfb64efe76e656E>
 - func[940] sig=2 <_ZN10scale_info5build17Variants$LT$F$GT$7variant17h1520ca40e401df66E>
 - func[941] sig=2 <_ZN10scale_info5build17Variants$LT$F$GT$7variant17h164154b091e3fa4aE>
 - func[942] sig=2 <_ZN10scale_info5build17Variants$LT$F$GT$7variant17h1801e7a4bdb57e8bE>
 - func[943] sig=2 <_ZN10scale_info5build17Variants$LT$F$GT$7variant17h192c8b2c2be6448fE>
 - func[944] sig=2 <_ZN10scale_info5build17Variants$LT$F$GT$7variant17h19c65f2a7ace9d74E>
 - func[945] sig=2 <_ZN10scale_info5build17Variants$LT$F$GT$7variant17h1a072644d6b6a8c8E>
 - func[946] sig=2 <_ZN10scale_info5build17Variants$LT$F$GT$7variant17h1a2ef2dd828e9c58E>
 - func[947] sig=2 <_ZN10scale_info5build17Variants$LT$F$GT$7variant17h1aacaa4e985b7bf0E>
 - func[948] sig=2 <_ZN10scale_info5build17Variants$LT$F$GT$7variant17h1af42b60a485b44fE>
 - func[949] sig=2 <_ZN10scale_info5build17Variants$LT$F$GT$7variant17h1b7b10b1f72f4697E>
 - func[950] sig=2 <_ZN10scale_info5build17Variants$LT$F$GT$7variant17h1b884a710d921482E>
 - func[951] sig=2 <_ZN10scale_info5build17Variants$LT$F$GT$7variant17h1c1a56480d70100bE>
 - func[952] sig=2 <_ZN10scale_info5build17Variants$LT$F$GT$7variant17h1c416d1354b9fa3dE>
 - func[953] sig=2 <_ZN10scale_info5build17Variants$LT$F$GT$7variant17h1ce86dc7e837c6a5E>
 - func[954] sig=2 <_ZN10scale_info5build17Variants$LT$F$GT$7variant17h1cf304bbef4a4290E>
 - func[955] sig=2 <_ZN10scale_info5build17Variants$LT$F$GT$7variant17h1f36e611e7f5ca52E>
 - func[956] sig=2 <_ZN10scale_info5build17Variants$LT$F$GT$7variant17h1fd6177183e7b359E>
 - func[957] sig=2 <_ZN10scale_info5build17Variants$LT$F$GT$7variant17h20828d30cd8d7d9cE>
 - func[958] sig=2 <_ZN10scale_info5build17Variants$LT$F$GT$7variant17h20db786f9234e3a0E>
 - func[959] sig=2 <_ZN10scale_info5build17Variants$LT$F$GT$7variant17h22200ed001974ec6E>
 - func[960] sig=2 <_ZN10scale_info5build17Variants$LT$F$GT$7variant17h22239a6d8e8bd4b8E>
 - func[961] sig=2 <_ZN10scale_info5build17Variants$LT$F$GT$7variant17h2243c83cab14338aE>
 - func[962] sig=2 <_ZN10scale_info5build17Variants$LT$F$GT$7variant17h22c86dd04a2dbcc9E>
 - func[963] sig=2 <_ZN10scale_info5build17Variants$LT$F$GT$7variant17h22cf8d4dee74286aE>
 - func[964] sig=2 <_ZN10scale_info5build17Variants$LT$F$GT$7variant17h23b5413d215d9b74E>
 - func[965] sig=2 <_ZN10scale_info5build17Variants$LT$F$GT$7variant17h23e919e1945cc9f9E>
 - func[966] sig=2 <_ZN10scale_info5build17Variants$LT$F$GT$7variant17h2401782b207ab259E>
 - func[967] sig=2 <_ZN10scale_info5build17Variants$LT$F$GT$7variant17h2466aa2338d08af0E>
 - func[968] sig=2 <_ZN10scale_info5build17Variants$LT$F$GT$7variant17h24705450119d88efE>
 - func[969] sig=2 <_ZN10scale_info5build17Variants$LT$F$GT$7variant17h255e06c8995f022eE>
 - func[970] sig=2 <_ZN10scale_info5build17Variants$LT$F$GT$7variant17h258f141c2f5ef0d5E>
 - func[971] sig=2 <_ZN10scale_info5build17Variants$LT$F$GT$7variant17h26da2df0c7933caaE>
 - func[972] sig=2 <_ZN10scale_info5build17Variants$LT$F$GT$7variant17h2770d99bc6162c92E>
 - func[973] sig=2 <_ZN10scale_info5build17Variants$LT$F$GT$7variant17h28d32f043c03e5fcE>
 - func[974] sig=2 <_ZN10scale_info5build17Variants$LT$F$GT$7variant17h293786a650d3d870E>
 - func[975] sig=2 <_ZN10scale_info5build17Variants$LT$F$GT$7variant17h2ce0d9797870f8ddE>
 - func[976] sig=2 <_ZN10scale_info5build17Variants$LT$F$GT$7variant17h2f61b3a638aeaf2eE>
 - func[977] sig=2 <_ZN10scale_info5build17Variants$LT$F$GT$7variant17h31ef90939ea6b956E>
 - func[978] sig=2 <_ZN10scale_info5build17Variants$LT$F$GT$7variant17h3230c32c0d6a20e7E>
 - func[979] sig=2 <_ZN10scale_info5build17Variants$LT$F$GT$7variant17h33e423eccb06c85fE>
 - func[980] sig=2 <_ZN10scale_info5build17Variants$LT$F$GT$7variant17h341b03b265d30ff4E>
 - func[981] sig=2 <_ZN10scale_info5build17Variants$LT$F$GT$7variant17h34bc999ee3c17544E>
 - func[982] sig=2 <_ZN10scale_info5build17Variants$LT$F$GT$7variant17h34f360bdf513f848E>
 - func[983] sig=2 <_ZN10scale_info5build17Variants$LT$F$GT$7variant17h360aea7b685d82bbE>
 - func[984] sig=2 <_ZN10scale_info5build17Variants$LT$F$GT$7variant17h374db26948baf8d4E>
 - func[985] sig=2 <_ZN10scale_info5build17Variants$LT$F$GT$7variant17h37cda8f96faf5b3dE>
 - func[986] sig=2 <_ZN10scale_info5build17Variants$LT$F$GT$7variant17h38910ba0b0c8ef72E>
 - func[987] sig=2 <_ZN10scale_info5build17Variants$LT$F$GT$7variant17h38b9553b40d465e6E>
 - func[988] sig=2 <_ZN10scale_info5build17Variants$LT$F$GT$7variant17h38e350ea6a67c18dE>
 - func[989] sig=2 <_ZN10scale_info5build17Variants$LT$F$GT$7variant17h3af96c22e4cdb638E>
 - func[990] sig=2 <_ZN10scale_info5build17Variants$LT$F$GT$7variant17h3b1a32ec005f1394E>
 - func[991] sig=2 <_ZN10scale_info5build17Variants$LT$F$GT$7variant17h3b9929c3301d9973E>
 - func[992] sig=2 <_ZN10scale_info5build17Variants$LT$F$GT$7variant17h3c9debd76d7b1474E>
 - func[993] sig=2 <_ZN10scale_info5build17Variants$LT$F$GT$7variant17h3e61f76adc17df36E>
 - func[994] sig=2 <_ZN10scale_info5build17Variants$LT$F$GT$7variant17h476902b5829b3a82E>
 - func[995] sig=2 <_ZN10scale_info5build17Variants$LT$F$GT$7variant17h477cd920889f2a1aE>
 - func[996] sig=2 <_ZN10scale_info5build17Variants$LT$F$GT$7variant17h48daf5463ef61be0E>
 - func[997] sig=2 <_ZN10scale_info5build17Variants$LT$F$GT$7variant17h49a0a0ef06091aeeE>
 - func[998] sig=2 <_ZN10scale_info5build17Variants$LT$F$GT$7variant17h4b14ed5da25ee2a3E>
 - func[999] sig=2 <_ZN10scale_info5build17Variants$LT$F$GT$7variant17h4baf5a9b5de59ea6E>
 - func[1000] sig=2 <_ZN10scale_info5build17Variants$LT$F$GT$7variant17h4e1f789c14d61e57E>
 - func[1001] sig=2 <_ZN10scale_info5build17Variants$LT$F$GT$7variant17h4eeee069725958f7E>
 - func[1002] sig=2 <_ZN10scale_info5build17Variants$LT$F$GT$7variant17h51b2a9af0ab543f7E>
 - func[1003] sig=2 <_ZN10scale_info5build17Variants$LT$F$GT$7variant17h5243f9a6c31f6c9fE>
 - func[1004] sig=2 <_ZN10scale_info5build17Variants$LT$F$GT$7variant17h52ca03635f4e375eE>
 - func[1005] sig=2 <_ZN10scale_info5build17Variants$LT$F$GT$7variant17h52df7368ec64caa8E>
 - func[1006] sig=2 <_ZN10scale_info5build17Variants$LT$F$GT$7variant17h5776f841440921efE>
 - func[1007] sig=2 <_ZN10scale_info5build17Variants$LT$F$GT$7variant17h578328eebfc1d983E>
 - func[1008] sig=2 <_ZN10scale_info5build17Variants$LT$F$GT$7variant17h589646399d580125E>
 - func[1009] sig=2 <_ZN10scale_info5build17Variants$LT$F$GT$7variant17h589b1f645fc60c8bE>
 - func[1010] sig=2 <_ZN10scale_info5build17Variants$LT$F$GT$7variant17h58c44bf35e3abf28E>
 - func[1011] sig=2 <_ZN10scale_info5build17Variants$LT$F$GT$7variant17h58f0502975542400E>
 - func[1012] sig=2 <_ZN10scale_info5build17Variants$LT$F$GT$7variant17h599b5617129bdedaE>
 - func[1013] sig=2 <_ZN10scale_info5build17Variants$LT$F$GT$7variant17h5a4e71dcfe5a708dE>
 - func[1014] sig=2 <_ZN10scale_info5build17Variants$LT$F$GT$7variant17h5d0823668af9c9f6E>
 - func[1015] sig=2 <_ZN10scale_info5build17Variants$LT$F$GT$7variant17h5ec2dbe8c4cfb111E>
 - func[1016] sig=2 <_ZN10scale_info5build17Variants$LT$F$GT$7variant17h61c7a8736e39b053E>
 - func[1017] sig=2 <_ZN10scale_info5build17Variants$LT$F$GT$7variant17h6336c414df4ab917E>
 - func[1018] sig=2 <_ZN10scale_info5build17Variants$LT$F$GT$7variant17h64f3e5f4d7297b21E>
 - func[1019] sig=2 <_ZN10scale_info5build17Variants$LT$F$GT$7variant17h6523322b9af297bcE>
 - func[1020] sig=2 <_ZN10scale_info5build17Variants$LT$F$GT$7variant17h68c936f00f00cbf7E>
 - func[1021] sig=2 <_ZN10scale_info5build17Variants$LT$F$GT$7variant17h6a38d27fcd97729dE>
 - func[1022] sig=2 <_ZN10scale_info5build17Variants$LT$F$GT$7variant17h6a930950f4d92c56E>
 - func[1023] sig=2 <_ZN10scale_info5build17Variants$LT$F$GT$7variant17h6d34cc8fefb70c9cE>
 - func[1024] sig=2 <_ZN10scale_info5build17Variants$LT$F$GT$7variant17h6dc90177b4d99751E>
 - func[1025] sig=2 <_ZN10scale_info5build17Variants$LT$F$GT$7variant17h6e13ca746b0559faE>
 - func[1026] sig=2 <_ZN10scale_info5build17Variants$LT$F$GT$7variant17h6e1e6eac33b5c468E>
 - func[1027] sig=2 <_ZN10scale_info5build17Variants$LT$F$GT$7variant17h6e2379fd470af597E>
 - func[1028] sig=2 <_ZN10scale_info5build17Variants$LT$F$GT$7variant17h6ed1e5a89b057999E>
 - func[1029] sig=2 <_ZN10scale_info5build17Variants$LT$F$GT$7variant17h6f6f5ba42bc73a83E>
 - func[1030] sig=2 <_ZN10scale_info5build17Variants$LT$F$GT$7variant17h706f9014f6f2e28cE>
 - func[1031] sig=2 <_ZN10scale_info5build17Variants$LT$F$GT$7variant17h723629c743e27da2E>
 - func[1032] sig=2 <_ZN10scale_info5build17Variants$LT$F$GT$7variant17h73b7b69388f57c8fE>
 - func[1033] sig=2 <_ZN10scale_info5build17Variants$LT$F$GT$7variant17h7419ca99a7e6db17E>
 - func[1034] sig=2 <_ZN10scale_info5build17Variants$LT$F$GT$7variant17h75220ec4a82835deE>
 - func[1035] sig=2 <_ZN10scale_info5build17Variants$LT$F$GT$7variant17h7600994f523a0b4fE>
 - func[1036] sig=2 <_ZN10scale_info5build17Variants$LT$F$GT$7variant17h772bd53056be52fcE>
 - func[1037] sig=2 <_ZN10scale_info5build17Variants$LT$F$GT$7variant17h77d35c4dedc9669cE>
 - func[1038] sig=2 <_ZN10scale_info5build17Variants$LT$F$GT$7variant17h77d957c312544862E>
 - func[1039] sig=2 <_ZN10scale_info5build17Variants$LT$F$GT$7variant17h78c0387272ed84d2E>
 - func[1040] sig=2 <_ZN10scale_info5build17Variants$LT$F$GT$7variant17h791e50db2ad1248aE>
 - func[1041] sig=2 <_ZN10scale_info5build17Variants$LT$F$GT$7variant17h7931942f03b9997bE>
 - func[1042] sig=2 <_ZN10scale_info5build17Variants$LT$F$GT$7variant17h7c1957dacbb56edcE>
 - func[1043] sig=2 <_ZN10scale_info5build17Variants$LT$F$GT$7variant17h7c428feae4758d7eE>
 - func[1044] sig=2 <_ZN10scale_info5build17Variants$LT$F$GT$7variant17h7d829887e3766100E>
 - func[1045] sig=2 <_ZN10scale_info5build17Variants$LT$F$GT$7variant17h7daac54b393d8ab9E>
 - func[1046] sig=2 <_ZN10scale_info5build17Variants$LT$F$GT$7variant17h7e6ea46f3ff4f4b3E>
 - func[1047] sig=2 <_ZN10scale_info5build17Variants$LT$F$GT$7variant17h7f32d16e556204c7E>
 - func[1048] sig=2 <_ZN10scale_info5build17Variants$LT$F$GT$7variant17h7f84bf05f66c009bE>
 - func[1049] sig=2 <_ZN10scale_info5build17Variants$LT$F$GT$7variant17h806985daae2ffb42E>
 - func[1050] sig=2 <_ZN10scale_info5build17Variants$LT$F$GT$7variant17h80a79e1f573bffaeE>
 - func[1051] sig=2 <_ZN10scale_info5build17Variants$LT$F$GT$7variant17h81a319aa83c1de80E>
 - func[1052] sig=2 <_ZN10scale_info5build17Variants$LT$F$GT$7variant17h81c9e4d9c4eb322cE>
 - func[1053] sig=2 <_ZN10scale_info5build17Variants$LT$F$GT$7variant17h829ac2efa7e96fbaE>
 - func[1054] sig=2 <_ZN10scale_info5build17Variants$LT$F$GT$7variant17h835054d5cc4e8590E>
 - func[1055] sig=2 <_ZN10scale_info5build17Variants$LT$F$GT$7variant17h8391963ac14d9984E>
 - func[1056] sig=2 <_ZN10scale_info5build17Variants$LT$F$GT$7variant17h83cbcf9a08287442E>
 - func[1057] sig=2 <_ZN10scale_info5build17Variants$LT$F$GT$7variant17h83f497b0678393c4E>
 - func[1058] sig=2 <_ZN10scale_info5build17Variants$LT$F$GT$7variant17h8602eaeb2e2bca5eE>
 - func[1059] sig=2 <_ZN10scale_info5build17Variants$LT$F$GT$7variant17h878b5d8748a7f9deE>
 - func[1060] sig=2 <_ZN10scale_info5build17Variants$LT$F$GT$7variant17h89fba3187b1bb802E>
 - func[1061] sig=2 <_ZN10scale_info5build17Variants$LT$F$GT$7variant17h8bbbeba03fabe736E>
 - func[1062] sig=2 <_ZN10scale_info5build17Variants$LT$F$GT$7variant17h8cbe6d1f5af93976E>
 - func[1063] sig=2 <_ZN10scale_info5build17Variants$LT$F$GT$7variant17h8da14ee70b658f8eE>
 - func[1064] sig=2 <_ZN10scale_info5build17Variants$LT$F$GT$7variant17h8f4e32ef5d3a5707E>
 - func[1065] sig=2 <_ZN10scale_info5build17Variants$LT$F$GT$7variant17h8f94de160ce7aba5E>
 - func[1066] sig=2 <_ZN10scale_info5build17Variants$LT$F$GT$7variant17h8fd388739dd3bec5E>
 - func[1067] sig=2 <_ZN10scale_info5build17Variants$LT$F$GT$7variant17h904aec1b96993ba7E>
 - func[1068] sig=2 <_ZN10scale_info5build17Variants$LT$F$GT$7variant17h9427210f71f76c04E>
 - func[1069] sig=2 <_ZN10scale_info5build17Variants$LT$F$GT$7variant17h94d49d7541dbf564E>
 - func[1070] sig=2 <_ZN10scale_info5build17Variants$LT$F$GT$7variant17h96afaae5b2efea78E>
 - func[1071] sig=2 <_ZN10scale_info5build17Variants$LT$F$GT$7variant17h96bd491a8ab9d5cbE>
 - func[1072] sig=2 <_ZN10scale_info5build17Variants$LT$F$GT$7variant17h96bf5be5af0f15daE>
 - func[1073] sig=2 <_ZN10scale_info5build17Variants$LT$F$GT$7variant17h96fdbffaf0bbea73E>
 - func[1074] sig=2 <_ZN10scale_info5build17Variants$LT$F$GT$7variant17h98b39b5efb544e55E>
 - func[1075] sig=2 <_ZN10scale_info5build17Variants$LT$F$GT$7variant17h98d7a604387c436eE>
 - func[1076] sig=2 <_ZN10scale_info5build17Variants$LT$F$GT$7variant17h99395f5c87c411fcE>
 - func[1077] sig=2 <_ZN10scale_info5build17Variants$LT$F$GT$7variant17h9a0a1126078328bbE>
 - func[1078] sig=2 <_ZN10scale_info5build17Variants$LT$F$GT$7variant17h9b53d2605f4f83e8E>
 - func[1079] sig=2 <_ZN10scale_info5build17Variants$LT$F$GT$7variant17h9c2b404d26f956faE>
 - func[1080] sig=2 <_ZN10scale_info5build17Variants$LT$F$GT$7variant17h9cb4da2db48d68b8E>
 - func[1081] sig=2 <_ZN10scale_info5build17Variants$LT$F$GT$7variant17h9cf4bd4bbfd0fc79E>
 - func[1082] sig=2 <_ZN10scale_info5build17Variants$LT$F$GT$7variant17h9d11b0166e485b82E>
 - func[1083] sig=2 <_ZN10scale_info5build17Variants$LT$F$GT$7variant17h9d491bbaa6cb718cE>
 - func[1084] sig=2 <_ZN10scale_info5build17Variants$LT$F$GT$7variant17h9e7a0b652dd19723E>
 - func[1085] sig=2 <_ZN10scale_info5build17Variants$LT$F$GT$7variant17h9f041a7d27e5cf92E>
 - func[1086] sig=2 <_ZN10scale_info5build17Variants$LT$F$GT$7variant17ha06ad340799531a4E>
 - func[1087] sig=2 <_ZN10scale_info5build17Variants$LT$F$GT$7variant17ha06af0496606ee7eE>
 - func[1088] sig=2 <_ZN10scale_info5build17Variants$LT$F$GT$7variant17ha18ce08b76f74d56E>
 - func[1089] sig=2 <_ZN10scale_info5build17Variants$LT$F$GT$7variant17ha2c0199492ed2fedE>
 - func[1090] sig=2 <_ZN10scale_info5build17Variants$LT$F$GT$7variant17ha3e1005b52f4664dE>
 - func[1091] sig=2 <_ZN10scale_info5build17Variants$LT$F$GT$7variant17ha46062d892e9c6c1E>
 - func[1092] sig=2 <_ZN10scale_info5build17Variants$LT$F$GT$7variant17ha5a78a5a87be3e43E>
 - func[1093] sig=2 <_ZN10scale_info5build17Variants$LT$F$GT$7variant17ha7b69f5de32ef1eeE>
 - func[1094] sig=2 <_ZN10scale_info5build17Variants$LT$F$GT$7variant17ha9d8704cb52d6f93E>
 - func[1095] sig=2 <_ZN10scale_info5build17Variants$LT$F$GT$7variant17haa0625a7ff86e7f1E>
 - func[1096] sig=2 <_ZN10scale_info5build17Variants$LT$F$GT$7variant17haa39c95c06efd0efE>
 - func[1097] sig=2 <_ZN10scale_info5build17Variants$LT$F$GT$7variant17haa41be982e4630a5E>
 - func[1098] sig=2 <_ZN10scale_info5build17Variants$LT$F$GT$7variant17haaf528a78f4b047bE>
 - func[1099] sig=2 <_ZN10scale_info5build17Variants$LT$F$GT$7variant17habe991341640cf31E>
 - func[1100] sig=2 <_ZN10scale_info5build17Variants$LT$F$GT$7variant17hac1857bb54f3b3c8E>
 - func[1101] sig=2 <_ZN10scale_info5build17Variants$LT$F$GT$7variant17haf5999e467efac38E>
 - func[1102] sig=2 <_ZN10scale_info5build17Variants$LT$F$GT$7variant17haf82f4e280a78844E>
 - func[1103] sig=2 <_ZN10scale_info5build17Variants$LT$F$GT$7variant17hb00790b3504be0afE>
 - func[1104] sig=2 <_ZN10scale_info5build17Variants$LT$F$GT$7variant17hb0702d6ed399e3abE>
 - func[1105] sig=2 <_ZN10scale_info5build17Variants$LT$F$GT$7variant17hb15f9b9e2fa35ba0E>
 - func[1106] sig=2 <_ZN10scale_info5build17Variants$LT$F$GT$7variant17hb196dadf906a5242E>
 - func[1107] sig=2 <_ZN10scale_info5build17Variants$LT$F$GT$7variant17hb1ac37dad07edebcE>
 - func[1108] sig=2 <_ZN10scale_info5build17Variants$LT$F$GT$7variant17hb30282b8958b7b6eE>
 - func[1109] sig=2 <_ZN10scale_info5build17Variants$LT$F$GT$7variant17hb465ce748cf29b9dE>
 - func[1110] sig=2 <_ZN10scale_info5build17Variants$LT$F$GT$7variant17hb4989fd6164e3e43E>
 - func[1111] sig=2 <_ZN10scale_info5build17Variants$LT$F$GT$7variant17hb4a655ca3869629dE>
 - func[1112] sig=2 <_ZN10scale_info5build17Variants$LT$F$GT$7variant17hb4b1f664d06fb570E>
 - func[1113] sig=2 <_ZN10scale_info5build17Variants$LT$F$GT$7variant17hb506a64c4b04256aE>
 - func[1114] sig=2 <_ZN10scale_info5build17Variants$LT$F$GT$7variant17hb6b05b580fc4f937E>
 - func[1115] sig=2 <_ZN10scale_info5build17Variants$LT$F$GT$7variant17hb7e71627a336c831E>
 - func[1116] sig=2 <_ZN10scale_info5build17Variants$LT$F$GT$7variant17hb81d780597585ffeE>
 - func[1117] sig=2 <_ZN10scale_info5build17Variants$LT$F$GT$7variant17hba6a102831acacdfE>
 - func[1118] sig=2 <_ZN10scale_info5build17Variants$LT$F$GT$7variant17hbb6c68a8b69fe4b2E>
 - func[1119] sig=2 <_ZN10scale_info5build17Variants$LT$F$GT$7variant17hbc8ff3fea4a395b1E>
 - func[1120] sig=2 <_ZN10scale_info5build17Variants$LT$F$GT$7variant17hbca9a0d3fbad1a67E>
 - func[1121] sig=2 <_ZN10scale_info5build17Variants$LT$F$GT$7variant17hbec4481e67d22318E>
 - func[1122] sig=2 <_ZN10scale_info5build17Variants$LT$F$GT$7variant17hbf1efcf1c4866103E>
 - func[1123] sig=2 <_ZN10scale_info5build17Variants$LT$F$GT$7variant17hc2160fd3db78386eE>
 - func[1124] sig=2 <_ZN10scale_info5build17Variants$LT$F$GT$7variant17hc21f3066a531f052E>
 - func[1125] sig=2 <_ZN10scale_info5build17Variants$LT$F$GT$7variant17hc279889861037287E>
 - func[1126] sig=2 <_ZN10scale_info5build17Variants$LT$F$GT$7variant17hc2d55e2d38c20999E>
 - func[1127] sig=2 <_ZN10scale_info5build17Variants$LT$F$GT$7variant17hc48bd5446bb13bb9E>
 - func[1128] sig=2 <_ZN10scale_info5build17Variants$LT$F$GT$7variant17hc5ae16e481ff7803E>
 - func[1129] sig=2 <_ZN10scale_info5build17Variants$LT$F$GT$7variant17hc60f598b5e3ff1f2E>
 - func[1130] sig=2 <_ZN10scale_info5build17Variants$LT$F$GT$7variant17hc6a18a43e888adc7E>
 - func[1131] sig=2 <_ZN10scale_info5build17Variants$LT$F$GT$7variant17hc7499710e0e17f33E>
 - func[1132] sig=2 <_ZN10scale_info5build17Variants$LT$F$GT$7variant17hcdb906355d6def49E>
 - func[1133] sig=2 <_ZN10scale_info5build17Variants$LT$F$GT$7variant17hcec2fba5c1300f18E>
 - func[1134] sig=2 <_ZN10scale_info5build17Variants$LT$F$GT$7variant17hcf1b552e4bb36d68E>
 - func[1135] sig=2 <_ZN10scale_info5build17Variants$LT$F$GT$7variant17hcf2ffa2134cbd5edE>
 - func[1136] sig=2 <_ZN10scale_info5build17Variants$LT$F$GT$7variant17hcf532eec96a5e4c1E>
 - func[1137] sig=2 <_ZN10scale_info5build17Variants$LT$F$GT$7variant17hcf8db0ff2c657420E>
 - func[1138] sig=2 <_ZN10scale_info5build17Variants$LT$F$GT$7variant17hcf9349e611d20b40E>
 - func[1139] sig=2 <_ZN10scale_info5build17Variants$LT$F$GT$7variant17hcffcab1885899713E>
 - func[1140] sig=2 <_ZN10scale_info5build17Variants$LT$F$GT$7variant17hd2326dd93989b758E>
 - func[1141] sig=2 <_ZN10scale_info5build17Variants$LT$F$GT$7variant17hd54897ea3926d513E>
 - func[1142] sig=2 <_ZN10scale_info5build17Variants$LT$F$GT$7variant17hd54fcf3a73b5bddaE>
 - func[1143] sig=2 <_ZN10scale_info5build17Variants$LT$F$GT$7variant17hd5535a3d1dd9a7e9E>
 - func[1144] sig=2 <_ZN10scale_info5build17Variants$LT$F$GT$7variant17hd5ad1c151af4806bE>
 - func[1145] sig=2 <_ZN10scale_info5build17Variants$LT$F$GT$7variant17hd79ed0271836e6cbE>
 - func[1146] sig=2 <_ZN10scale_info5build17Variants$LT$F$GT$7variant17hd8282191c61a5a73E>
 - func[1147] sig=2 <_ZN10scale_info5build17Variants$LT$F$GT$7variant17hd99042578e446c61E>
 - func[1148] sig=2 <_ZN10scale_info5build17Variants$LT$F$GT$7variant17hda7f2587dbd74049E>
 - func[1149] sig=2 <_ZN10scale_info5build17Variants$LT$F$GT$7variant17hdd6490c418cf55c8E>
 - func[1150] sig=2 <_ZN10scale_info5build17Variants$LT$F$GT$7variant17hde18472e75bcf23fE>
 - func[1151] sig=2 <_ZN10scale_info5build17Variants$LT$F$GT$7variant17hde2d7656617dbfb9E>
 - func[1152] sig=2 <_ZN10scale_info5build17Variants$LT$F$GT$7variant17hde63e23e23b24419E>
 - func[1153] sig=2 <_ZN10scale_info5build17Variants$LT$F$GT$7variant17hdef9fbd6b4108012E>
 - func[1154] sig=2 <_ZN10scale_info5build17Variants$LT$F$GT$7variant17hdf7e5ccaefc92e29E>
 - func[1155] sig=2 <_ZN10scale_info5build17Variants$LT$F$GT$7variant17he0c55835f0070f27E>
 - func[1156] sig=2 <_ZN10scale_info5build17Variants$LT$F$GT$7variant17he2cf3b62b3ee493bE>
 - func[1157] sig=2 <_ZN10scale_info5build17Variants$LT$F$GT$7variant17he3048cfb4a9351a9E>
 - func[1158] sig=2 <_ZN10scale_info5build17Variants$LT$F$GT$7variant17he405d878a21fee9aE>
 - func[1159] sig=2 <_ZN10scale_info5build17Variants$LT$F$GT$7variant17he40ea26342c177c9E>
 - func[1160] sig=2 <_ZN10scale_info5build17Variants$LT$F$GT$7variant17he64ec50f7602ddb2E>
 - func[1161] sig=2 <_ZN10scale_info5build17Variants$LT$F$GT$7variant17he6b6e8e89fbff4d4E>
 - func[1162] sig=2 <_ZN10scale_info5build17Variants$LT$F$GT$7variant17he725bac1ebb3d86fE>
 - func[1163] sig=2 <_ZN10scale_info5build17Variants$LT$F$GT$7variant17he780deb4ab890305E>
 - func[1164] sig=2 <_ZN10scale_info5build17Variants$LT$F$GT$7variant17he8060fa50c1246b7E>
 - func[1165] sig=2 <_ZN10scale_info5build17Variants$LT$F$GT$7variant17he8dac1c3e91d6c35E>
 - func[1166] sig=2 <_ZN10scale_info5build17Variants$LT$F$GT$7variant17he9eba387db4d005aE>
 - func[1167] sig=2 <_ZN10scale_info5build17Variants$LT$F$GT$7variant17hea40c14d2964e85eE>
 - func[1168] sig=2 <_ZN10scale_info5build17Variants$LT$F$GT$7variant17heae70c0533656840E>
 - func[1169] sig=2 <_ZN10scale_info5build17Variants$LT$F$GT$7variant17hec2aebbd75bc5ad2E>
 - func[1170] sig=2 <_ZN10scale_info5build17Variants$LT$F$GT$7variant17hece8780e95a3dcdeE>
 - func[1171] sig=2 <_ZN10scale_info5build17Variants$LT$F$GT$7variant17hecf6c9c35c661831E>
 - func[1172] sig=2 <_ZN10scale_info5build17Variants$LT$F$GT$7variant17hf06b40618e8f27d8E>
 - func[1173] sig=2 <_ZN10scale_info5build17Variants$LT$F$GT$7variant17hf17a4e904ee6ec70E>
 - func[1174] sig=2 <_ZN10scale_info5build17Variants$LT$F$GT$7variant17hf1d109ce44fb7b14E>
 - func[1175] sig=2 <_ZN10scale_info5build17Variants$LT$F$GT$7variant17hf29a064588b17e23E>
 - func[1176] sig=2 <_ZN10scale_info5build17Variants$LT$F$GT$7variant17hf53a08c77f41e8aeE>
 - func[1177] sig=2 <_ZN10scale_info5build17Variants$LT$F$GT$7variant17hf5638780df90d45cE>
 - func[1178] sig=2 <_ZN10scale_info5build17Variants$LT$F$GT$7variant17hf5eaa7ab535ce1a6E>
 - func[1179] sig=2 <_ZN10scale_info5build17Variants$LT$F$GT$7variant17hf65d0448bc1ebadeE>
 - func[1180] sig=2 <_ZN10scale_info5build17Variants$LT$F$GT$7variant17hf78196477a07d431E>
 - func[1181] sig=2 <_ZN10scale_info5build17Variants$LT$F$GT$7variant17hf7cfa61ec6d673f1E>
 - func[1182] sig=2 <_ZN10scale_info5build17Variants$LT$F$GT$7variant17hf8b655fa50c3586dE>
 - func[1183] sig=2 <_ZN10scale_info5build17Variants$LT$F$GT$7variant17hfbc80ebe0e189959E>
 - func[1184] sig=2 <_ZN10scale_info5build17Variants$LT$F$GT$7variant17hfdaca1cbe549192bE>
 - func[1185] sig=2 <_ZN10scale_info5build17Variants$LT$F$GT$7variant17hfdc8d2d87fbb6ea5E>
 - func[1186] sig=2 <_ZN10scale_info5build17Variants$LT$F$GT$7variant17hfed9272606df9d36E>
 - func[1187] sig=2 <_ZN10scale_info5build17Variants$LT$F$GT$7variant17hff908dd53ff21917E>
 - func[1188] sig=4 <_ZN44_$LT$$RF$T$u20$as$u20$core..fmt..Display$GT$3fmt17h38ab37a3a2980c9dE>
 - func[1189] sig=1 <_ZN4core3ptr47drop_in_place$LT$$RF$mut$u20$sp_std..Writer$GT$17hf8497ea493420b5fE.llvm.14459537414123510621>
 - func[1190] sig=4 <_ZN50_$LT$$RF$mut$u20$W$u20$as$u20$core..fmt..Write$GT$10write_char17h0378a7326bf8226dE.llvm.14459537414123510621>
 - func[1191] sig=4 <_ZN50_$LT$$RF$mut$u20$W$u20$as$u20$core..fmt..Write$GT$9write_fmt17h48a02d3130330554E.llvm.14459537414123510621>
 - func[1192] sig=3 <_ZN50_$LT$$RF$mut$u20$W$u20$as$u20$core..fmt..Write$GT$9write_str17h8616f8bbe606ceeeE.llvm.14459537414123510621>
 - func[1193] sig=1 <_ZN82_$LT$sp_runtime..runtime_string..RuntimeString$u20$as$u20$scale_info..TypeInfo$GT$9type_info17h1bb32991afe5c98cE>
 - func[1194] sig=1 <_ZN4core3ptr62drop_in_place$LT$sp_runtime..runtime_logger..RuntimeLogger$GT$17ha98b028d23180d0dE.llvm.14595567217688357968>
 - func[1195] sig=4 <_ZN70_$LT$sp_runtime..runtime_logger..RuntimeLogger$u20$as$u20$log..Log$GT$7enabled17hd95ef22aa562ecfcE>
 - func[1196] sig=7 <_ZN70_$LT$sp_runtime..runtime_logger..RuntimeLogger$u20$as$u20$log..Log$GT$3log17h581d379f2e176478E>
 - func[1197] sig=1 <_ZN70_$LT$sp_runtime..runtime_logger..RuntimeLogger$u20$as$u20$log..Log$GT$5flush17ha52ac223baca1ffcE>
 - func[1198] sig=6 <_ZN10sp_runtime20transaction_validity16ValidTransaction12combine_with17h206c42d6e9828285E>
 - func[1199] sig=7 <_ZN99_$LT$parity_scale_codec..compact..Compact$LT$T$GT$$u20$as$u20$parity_scale_codec..codec..Encode$GT$9encode_to17h58e9a9ca49407fbeE>
 - func[1200] sig=1 <_ZN10scale_info5impls73_$LT$impl$u20$scale_info..TypeInfo$u20$for$u20$$u5b$T$u3b$$u20$N$u5d$$GT$9type_info17ha0e0cb088d716110E.llvm.14820062177021773357>
 - func[1201] sig=7 <_ZN55_$LT$X$u20$as$u20$parity_scale_codec..codec..Encode$GT$6encode17hc391cf1d668a9cf5E>
 - func[1202] sig=1 <_ZN10scale_info5impls75_$LT$impl$u20$scale_info..TypeInfo$u20$for$u20$alloc..vec..Vec$LT$T$GT$$GT$9type_info17h94f9b9ac141e6235E>
 - func[1203] sig=1 <_ZN10scale_info5impls75_$LT$impl$u20$scale_info..TypeInfo$u20$for$u20$alloc..vec..Vec$LT$T$GT$$GT$9type_info17haed45caf56c1c66fE>
 - func[1204] sig=7 <_ZN137_$LT$alloc..vec..Vec$LT$T$GT$$u20$as$u20$alloc..vec..spec_from_iter..SpecFromIter$LT$T$C$alloc..vec..into_iter..IntoIter$LT$T$GT$$GT$$GT$9from_iter17h168a94c24932232fE>
 - func[1205] sig=7 <_ZN137_$LT$alloc..vec..Vec$LT$T$GT$$u20$as$u20$alloc..vec..spec_from_iter..SpecFromIter$LT$T$C$alloc..vec..into_iter..IntoIter$LT$T$GT$$GT$$GT$9from_iter17h7457457e7d224457E>
 - func[1206] sig=7 <_ZN137_$LT$alloc..vec..Vec$LT$T$GT$$u20$as$u20$alloc..vec..spec_from_iter..SpecFromIter$LT$T$C$alloc..vec..into_iter..IntoIter$LT$T$GT$$GT$$GT$9from_iter17hd402a0c965cc2768E>
 - func[1207] sig=7 <_ZN55_$LT$X$u20$as$u20$parity_scale_codec..codec..Encode$GT$6encode17h15c809f135274b9dE>
 - func[1208] sig=1 <_ZN10sp_runtime1_77_$LT$impl$u20$scale_info..TypeInfo$u20$for$u20$sp_runtime..MultiSignature$GT$9type_info17h6e05ca97d6e95795E>
 - func[1209] sig=1 <_ZN10sp_runtime1_74_$LT$impl$u20$scale_info..TypeInfo$u20$for$u20$sp_runtime..ModuleError$GT$9type_info17h3547f68576307a6dE>
 - func[1210] sig=1 <_ZN10sp_runtime1_81_$LT$impl$u20$scale_info..TypeInfo$u20$for$u20$sp_runtime..TransactionalError$GT$9type_info17hf84d1499ab951b30E>
 - func[1211] sig=1 <_ZN10sp_runtime1_76_$LT$impl$u20$scale_info..TypeInfo$u20$for$u20$sp_runtime..DispatchError$GT$9type_info17hef50fd22a7e0db98E>
 - func[1212] sig=1 <_ZN10sp_runtime1_73_$LT$impl$u20$scale_info..TypeInfo$u20$for$u20$sp_runtime..TokenError$GT$9type_info17h347e757a063213dfE>
 - func[1213] sig=1 <_ZN70_$LT$sp_runtime..generic..era..Era$u20$as$u20$scale_info..TypeInfo$GT$9type_info17hdcad0bfe67693aa6E>
 - func[1214] sig=1 <_ZN80_$LT$sp_runtime..generic..digest..DigestItem$u20$as$u20$scale_info..TypeInfo$GT$9type_info17h5db41def55f6c838E>
 - func[1215] sig=7 <_ZN96_$LT$sp_runtime..generic..digest..DigestItemRef$u20$as$u20$parity_scale_codec..codec..Encode$GT$6encode17h5d421919f4b5b147E>
 - func[1216] sig=7 <_ZN93_$LT$sp_runtime..generic..digest..DigestItem$u20$as$u20$parity_scale_codec..codec..Encode$GT$6encode17h8c45d885f6d95989E>
 - func[1217] sig=7 <_ZN90_$LT$sp_runtime..generic..digest..DigestItem$u20$as$u20$sp_runtime..traits..CheckEqual$GT$11check_equal17ha598241da97715cdE>
 - func[1218] sig=1 <_ZN10sp_runtime7generic6digest1_86_$LT$impl$u20$scale_info..TypeInfo$u20$for$u20$sp_runtime..generic..digest..Digest$GT$9type_info17ha865372683875bf5E>
 - func[1219] sig=2 <_ZN5alloc7raw_vec11finish_grow17h5e4c116b3aa6c6feE.llvm.6930155888873720759>
 - func[1220] sig=6 <_ZN5alloc7raw_vec19RawVec$LT$T$C$A$GT$7reserve21do_reserve_and_handle17h8ec0077891a9e234E>
 - func[1221] sig=2 <_ZN5alloc7raw_vec11finish_grow17he22613f5ca03ce00E.llvm.6697763764294076377>
 - func[1222] sig=7 <_ZN5alloc7raw_vec19RawVec$LT$T$C$A$GT$16reserve_for_push17h65d41e2d6599d1c3E>
 - func[1223] sig=6 <_ZN5alloc7raw_vec19RawVec$LT$T$C$A$GT$7reserve21do_reserve_and_handle17h49e5555bdf444ab1E>
 - func[1224] sig=7 <_ZN137_$LT$alloc..vec..Vec$LT$T$GT$$u20$as$u20$alloc..vec..spec_from_iter..SpecFromIter$LT$T$C$alloc..vec..into_iter..IntoIter$LT$T$GT$$GT$$GT$9from_iter17hed1cb462ab196823E>
 - func[1225] sig=1 <_ZN10scale_info5impls62_$LT$impl$u20$scale_info..TypeInfo$u20$for$u20$$u5b$T$u5d$$GT$9type_info17h092717522ecbdc5bE>
 - func[1226] sig=1 <_ZN10scale_info5impls64_$LT$impl$u20$scale_info..TypeInfo$u20$for$u20$$LP$A$C$B$RP$$GT$9type_info17h8c061902ce58964bE>
 - func[1227] sig=1 <_ZN10scale_info5impls73_$LT$impl$u20$scale_info..TypeInfo$u20$for$u20$$u5b$T$u3b$$u20$N$u5d$$GT$9type_info17h9ff268ea4bd07916E>
 - func[1228] sig=1 <_ZN10sp_version1_77_$LT$impl$u20$scale_info..TypeInfo$u20$for$u20$sp_version..RuntimeVersion$GT$9type_info17h628638e6e54097a6E>
 - func[1229] sig=1 <_ZN10scale_info5impls78_$LT$impl$u20$scale_info..TypeInfo$u20$for$u20$alloc..borrow..Cow$LT$T$GT$$GT$9type_info17habab7a12647f8917E>
 - func[1230] sig=2 <_ZN5alloc7raw_vec11finish_grow17h5a511227f4700c54E.llvm.14064439954596563907>
 - func[1231] sig=7 <_ZN5alloc7raw_vec19RawVec$LT$T$C$A$GT$16reserve_for_push17h1ef17b005f207348E>
 - func[1232] sig=6 <_ZN5alloc7raw_vec19RawVec$LT$T$C$A$GT$7reserve21do_reserve_and_handle17h4a8f1556fb02d580E>
 - func[1233] sig=1 <_ZN10scale_info5impls96_$LT$impl$u20$scale_info..TypeInfo$u20$for$u20$parity_scale_codec..compact..Compact$LT$T$GT$$GT$9type_info17h06b0d318e4123b03E>
 - func[1234] sig=1 <_ZN10sp_weights9weight_v21_80_$LT$impl$u20$scale_info..TypeInfo$u20$for$u20$sp_weights..weight_v2..Weight$GT$9type_info17h6b955c6074b62f32E>
 - func[1235] sig=7 <_ZN137_$LT$alloc..vec..Vec$LT$T$GT$$u20$as$u20$alloc..vec..spec_from_iter..SpecFromIter$LT$T$C$alloc..vec..into_iter..IntoIter$LT$T$GT$$GT$$GT$9from_iter17h07e4dde5102ecd1eE>
 - func[1236] sig=1 <_ZN10sp_weights1_78_$LT$impl$u20$scale_info..TypeInfo$u20$for$u20$sp_weights..RuntimeDbWeight$GT$9type_info17h65d79e2e4b8f09deE>
 - func[1237] sig=46 <__multi3>
 - func[1238] sig=3 <_ZN17compiler_builtins3mem6memcpy17h3294440c31202237E>
 - func[1239] sig=3 <_ZN17compiler_builtins3mem7memmove17h37a0c2b377451a94E>
 - func[1240] sig=3 <_ZN17compiler_builtins3mem6memset17h9b733cc72eeef835E>
 - func[1241] sig=3 <_ZN17compiler_builtins3mem6memcmp17hfa46c76732676c84E>
 - func[1242] sig=3 <memcmp>
 - func[1243] sig=33 <__ashlti3>
 - func[1244] sig=3 <memset>
 - func[1245] sig=46 <_ZN17compiler_builtins3int19specialized_div_rem12u128_div_rem17ha2bff52cb3d51104E>
 - func[1246] sig=46 <__udivti3>
 - func[1247] sig=3 <memcpy>
 - func[1248] sig=3 <memmove>
 - func[1249] sig=33 <__lshrti3>
Table[1]:
 - table[0] type=funcref initial=279 max=279
Global[3]:
 - global[0] i32 mutable=1 <__stack_pointer> - init i32=1048576
 - global[1] i32 mutable=0 <__data_end> - init i32=1096052
 - global[2] i32 mutable=0 <__heap_base> - init i32=1096064
Export[30]:
 - table[0] -> "__indirect_function_table"
 - func[676] <Core_version> -> "Core_version"
 - func[677] <Core_execute_block> -> "Core_execute_block"
 - func[678] <Core_initialize_block> -> "Core_initialize_block"
 - func[679] <Metadata_metadata> -> "Metadata_metadata"
 - func[680] <BlockBuilder_apply_extrinsic> -> "BlockBuilder_apply_extrinsic"
 - func[681] <BlockBuilder_finalize_block> -> "BlockBuilder_finalize_block"
 - func[682] <BlockBuilder_inherent_extrinsics> -> "BlockBuilder_inherent_extrinsics"
 - func[683] <BlockBuilder_check_inherents> -> "BlockBuilder_check_inherents"
 - func[684] <TaggedTransactionQueue_validate_transaction> -> "TaggedTransactionQueue_validate_transaction"
 - func[685] <OffchainWorkerApi_offchain_worker> -> "OffchainWorkerApi_offchain_worker"
 - func[686] <AuraApi_slot_duration> -> "AuraApi_slot_duration"
 - func[687] <AuraApi_authorities> -> "AuraApi_authorities"
 - func[688] <SessionKeys_generate_session_keys> -> "SessionKeys_generate_session_keys"
 - func[689] <SessionKeys_decode_session_keys> -> "SessionKeys_decode_session_keys"
 - func[690] <GrandpaApi_grandpa_authorities> -> "GrandpaApi_grandpa_authorities"
 - func[691] <GrandpaApi_current_set_id> -> "GrandpaApi_current_set_id"
 - func[692] <GrandpaApi_submit_report_equivocation_unsigned_extrinsic> -> "GrandpaApi_submit_report_equivocation_unsigned_extrinsic"
 - func[693] <GrandpaApi_generate_key_ownership_proof> -> "GrandpaApi_generate_key_ownership_proof"
 - func[694] <AccountNonceApi_account_nonce> -> "AccountNonceApi_account_nonce"
 - func[695] <TransactionPaymentApi_query_info> -> "TransactionPaymentApi_query_info"
 - func[696] <TransactionPaymentApi_query_fee_details> -> "TransactionPaymentApi_query_fee_details"
 - func[697] <TransactionPaymentApi_query_weight_to_fee> -> "TransactionPaymentApi_query_weight_to_fee"
 - func[698] <TransactionPaymentApi_query_length_to_fee> -> "TransactionPaymentApi_query_length_to_fee"
 - func[699] <TransactionPaymentCallApi_query_call_info> -> "TransactionPaymentCallApi_query_call_info"
 - func[700] <TransactionPaymentCallApi_query_call_fee_details> -> "TransactionPaymentCallApi_query_call_fee_details"
 - func[701] <TransactionPaymentCallApi_query_weight_to_fee> -> "TransactionPaymentCallApi_query_weight_to_fee"
 - func[702] <TransactionPaymentCallApi_query_length_to_fee> -> "TransactionPaymentCallApi_query_length_to_fee"
 - global[1] -> "__data_end"
 - global[2] -> "__heap_base"
Elem[1]:
 - segment[0] flags=0 table=0 count=278 - init i32=1
  - elem[1] = func[75] <_ZN4core3fmt3num3imp52_$LT$impl$u20$core..fmt..Display$u20$for$u20$u32$GT$3fmt17h4415472ad0848b36E>
  - elem[2] = func[31] <_ZN4core3ptr27drop_in_place$LT$$RF$u8$GT$17h9448f6182a5fd865E>
  - elem[3] = func[36] <_ZN50_$LT$$RF$mut$u20$W$u20$as$u20$core..fmt..Write$GT$9write_str17hd0c2a8eaeeddab3dE>
  - elem[4] = func[32] <_ZN50_$LT$$RF$mut$u20$W$u20$as$u20$core..fmt..Write$GT$10write_char17hfdb02e10cec8e82bE>
  - elem[5] = func[35] <_ZN50_$LT$$RF$mut$u20$W$u20$as$u20$core..fmt..Write$GT$9write_fmt17h100e6f4fd3267bb6E>
  - elem[6] = func[119] <_ZN53_$LT$core..fmt..Error$u20$as$u20$core..fmt..Debug$GT$3fmt17ha2d94044358bcb4dE>
  - elem[7] = func[43] <_ZN4core3fmt3num52_$LT$impl$u20$core..fmt..Debug$u20$for$u20$usize$GT$3fmt17ha5102538a7a70669E.llvm.10834399843330865155>
  - elem[8] = func[47] <_ZN5bytes5bytes12static_clone17h217775431286f23aE>
  - elem[9] = func[48] <_ZN5bytes5bytes13static_to_vec17hd136dd6ae2867917E>
  - elem[10] = func[49] <_ZN5bytes5bytes11static_drop17h37138406e6eb9e9eE>
  - elem[11] = func[50] <_ZN5bytes5bytes21promotable_even_clone17h58af06bed6305901E.llvm.10834399843330865155>
  - elem[12] = func[52] <_ZN5bytes5bytes22promotable_even_to_vec17h4cd97915572f2b96E.llvm.10834399843330865155>
  - elem[13] = func[54] <_ZN5bytes5bytes20promotable_even_drop17h162c12f0650fbeeaE.llvm.10834399843330865155>
  - elem[14] = func[55] <_ZN5bytes5bytes20promotable_odd_clone17h3e5d6d080b42d4a3E.llvm.10834399843330865155>
  - elem[15] = func[56] <_ZN5bytes5bytes21promotable_odd_to_vec17hfcb3c5391185dbb1E.llvm.10834399843330865155>
  - elem[16] = func[57] <_ZN5bytes5bytes19promotable_odd_drop17h4b55c188319c8260E.llvm.10834399843330865155>
  - elem[17] = func[44] <_ZN4core3ptr53drop_in_place$LT$core..alloc..layout..LayoutError$GT$17h0e591857b12de8ddE.llvm.10834399843330865155>
  - elem[18] = func[120] <_ZN69_$LT$core..alloc..layout..LayoutError$u20$as$u20$core..fmt..Debug$GT$3fmt17h8db04cf97114555cE>
  - elem[19] = func[58] <_ZN5bytes5bytes12shared_clone17hfb10a34be2f911beE.llvm.10834399843330865155>
  - elem[20] = func[59] <_ZN5bytes5bytes13shared_to_vec17h1333feb5e8e805d9E.llvm.10834399843330865155>
  - elem[21] = func[60] <_ZN5bytes5bytes11shared_drop17h10d22da2b27154aeE.llvm.10834399843330865155>
  - elem[22] = func[62] <_ZN4core3ops8function6FnOnce9call_once17h459bc610e5f9b8b8E>
  - elem[23] = func[73] <_ZN44_$LT$$RF$T$u20$as$u20$core..fmt..Display$GT$3fmt17hc85008c31f0a440eE>
  - elem[24] = func[74] <_ZN44_$LT$$RF$T$u20$as$u20$core..fmt..Display$GT$3fmt17h78161ef84d09e156E>
  - elem[25] = func[76] <_ZN44_$LT$$RF$T$u20$as$u20$core..fmt..Display$GT$3fmt17ha96c0a0aa7a9d0b7E>
  - elem[26] = func[82] <_ZN42_$LT$$RF$T$u20$as$u20$core..fmt..Debug$GT$3fmt17h4aacf16e052bac2dE>
  - elem[27] = func[83] <_ZN59_$LT$core..fmt..Arguments$u20$as$u20$core..fmt..Display$GT$3fmt17h19734391c82bb232E>
  - elem[28] = func[64] <_ZN71_$LT$core..ops..range..Range$LT$Idx$GT$$u20$as$u20$core..fmt..Debug$GT$3fmt17h9a974dea53ae7393E>
  - elem[29] = func[106] <_ZN41_$LT$char$u20$as$u20$core..fmt..Debug$GT$3fmt17h65b6e42937bad7acE>
  - elem[30] = func[63] <_ZN4core3ptr102drop_in_place$LT$$RF$core..iter..adapters..copied..Copied$LT$core..slice..iter..Iter$LT$u8$GT$$GT$$GT$17h7faf8882ba1bccd6E>
  - elem[31] = func[67] <_ZN36_$LT$T$u20$as$u20$core..any..Any$GT$7type_id17hb6f80db3209e99bbE>
  - elem[32] = func[85] <_ZN68_$LT$core..fmt..builders..PadAdapter$u20$as$u20$core..fmt..Write$GT$9write_str17h50349cf2bda46db4E>
  - elem[33] = func[93] <_ZN4core3fmt5Write10write_char17h3c32ac3adb31eb60E>
  - elem[34] = func[94] <_ZN4core3fmt5Write9write_fmt17hdf054b36a602b4d1E>
  - elem[35] = func[95] <_ZN50_$LT$$RF$mut$u20$W$u20$as$u20$core..fmt..Write$GT$9write_str17hb5cff55d43d4b82aE>
  - elem[36] = func[96] <_ZN50_$LT$$RF$mut$u20$W$u20$as$u20$core..fmt..Write$GT$10write_char17h03a5389408cae820E>
  - elem[37] = func[97] <_ZN50_$LT$$RF$mut$u20$W$u20$as$u20$core..fmt..Write$GT$9write_fmt17h060b3bedde1ee2ceE>
  - elem[38] = func[752] <_ZN69_$LT$parity_scale_codec..error..Error$u20$as$u20$core..fmt..Debug$GT$3fmt17h023c813a8a4b1f66E>
  - elem[39] = func[160] <_ZN42_$LT$$RF$T$u20$as$u20$core..fmt..Debug$GT$3fmt17h4cd94d938c6dc054E>
  - elem[40] = func[153] <_ZN4core3ptr27drop_in_place$LT$$RF$u8$GT$17h1cca76bb84ec293fE.llvm.1649256116416137565>
  - elem[41] = func[161] <_ZN42_$LT$$RF$T$u20$as$u20$core..fmt..Debug$GT$3fmt17haab563c08de90afbE>
  - elem[42] = func[1234] <_ZN10sp_weights9weight_v21_80_$LT$impl$u20$scale_info..TypeInfo$u20$for$u20$sp_weights..weight_v2..Weight$GT$9type_info17h6b955c6074b62f32E>
  - elem[43] = func[156] <_ZN13frame_support8dispatch1_89_$LT$impl$u20$scale_info..TypeInfo$u20$for$u20$frame_support..dispatch..DispatchClass$GT$9type_info17h9f3893a1f2353432E>
  - elem[44] = func[155] <_ZN13frame_support8dispatch1_80_$LT$impl$u20$scale_info..TypeInfo$u20$for$u20$frame_support..dispatch..Pays$GT$9type_info17h5b5bdd212510a372E>
  - elem[45] = func[159] <_ZN13frame_support16dispatch_context6GLOBAL6__init17hcbc8f33399875c95E>
  - elem[46] = func[781] <_ZN10scale_info5impls54_$LT$impl$u20$scale_info..TypeInfo$u20$for$u20$u32$GT$9type_info17h72a8ef7ff2d04067E>
  - elem[47] = func[182] <_ZN13frame_support8dispatch1_101_$LT$impl$u20$scale_info..TypeInfo$u20$for$u20$frame_support..dispatch..PerDispatchClass$LT$T$GT$$GT$9type_info17h5173e746d47a91e9E>
  - elem[48] = func[170] <_ZN10scale_info5impls80_$LT$impl$u20$scale_info..TypeInfo$u20$for$u20$core..option..Option$LT$T$GT$$GT$9type_info17hbc31321a0bd6d550E>
  - elem[49] = func[183] <_ZN13frame_support8dispatch1_101_$LT$impl$u20$scale_info..TypeInfo$u20$for$u20$frame_support..dispatch..PerDispatchClass$LT$T$GT$$GT$9type_info17h9add06eac3679ee2E>
  - elem[50] = func[174] <_ZN4core3ptr59drop_in_place$LT$frame_system..limits..ValidationErrors$GT$17he225af7d3cb54ac5E.llvm.13291181191807716821>
  - elem[51] = func[179] <_ZN75_$LT$frame_system..limits..ValidationErrors$u20$as$u20$core..fmt..Debug$GT$3fmt17h1bbf1cadae77cb4bE>
  - elem[52] = func[180] <_ZN12frame_system6limits1_88_$LT$impl$u20$scale_info..TypeInfo$u20$for$u20$frame_system..limits..WeightsPerClass$GT$9type_info17he3d0fea46c21deb0E>
  - elem[53] = func[171] <_ZN10scale_info5impls96_$LT$impl$u20$scale_info..TypeInfo$u20$for$u20$parity_scale_codec..compact..Compact$LT$T$GT$$GT$9type_info17h39a66922b072e181E>
  - elem[54] = func[1193] <_ZN82_$LT$sp_runtime..runtime_string..RuntimeString$u20$as$u20$scale_info..TypeInfo$GT$9type_info17h1bb32991afe5c98cE>
  - elem[55] = func[188] <_ZN4core3ptr35drop_in_place$LT$log..NopLogger$GT$17h5b34479dd1d8b94cE.llvm.765246861957232611>
  - elem[56] = func[189] <_ZN43_$LT$log..NopLogger$u20$as$u20$log..Log$GT$7enabled17h557ef0e1e8f2b53eE>
  - elem[57] = func[190] <_ZN43_$LT$log..NopLogger$u20$as$u20$log..Log$GT$3log17h67624d27cdde799eE>
  - elem[58] = func[191] <_ZN43_$LT$log..NopLogger$u20$as$u20$log..Log$GT$5flush17h75a71356521b2677E>
  - elem[59] = func[782] <_ZN10scale_info5impls54_$LT$impl$u20$scale_info..TypeInfo$u20$for$u20$u64$GT$9type_info17hb8a89882bbc7c72fE>
  - elem[60] = func[784] <_ZN10scale_info5impls59_$LT$impl$u20$scale_info..TypeInfo$u20$for$u20$$LP$$RP$$GT$9type_info17h10d2742e8c5a963aE>
  - elem[61] = func[783] <_ZN10scale_info5impls55_$LT$impl$u20$scale_info..TypeInfo$u20$for$u20$u128$GT$9type_info17hccb5bb30256837eeE>
  - elem[62] = func[758] <_ZN15primitive_types1_72_$LT$impl$u20$scale_info..TypeInfo$u20$for$u20$primitive_types..H256$GT$9type_info17h3eb14c3bddc1e7e0E>
  - elem[63] = func[248] <_ZN20sp_consensus_grandpa1_98_$LT$impl$u20$scale_info..TypeInfo$u20$for$u20$sp_consensus_grandpa..Equivocation$LT$H$C$N$GT$$GT$9type_info17h1c6a788cc4f4f71dE>
  - elem[64] = func[118] <_ZN4core3fmt3num3imp52_$LT$impl$u20$core..fmt..Display$u20$for$u20$u64$GT$3fmt17h06bf73c976b587fbE>
  - elem[65] = func[287] <_ZN42_$LT$$RF$T$u20$as$u20$core..fmt..Debug$GT$3fmt17h83344b0bcecf5a62E>
  - elem[66] = func[364] <_ZN13frame_support8dispatch1_101_$LT$impl$u20$scale_info..TypeInfo$u20$for$u20$frame_support..dispatch..PerDispatchClass$LT$T$GT$$GT$9type_info17hfd417b4946c1496aE>
  - elem[67] = func[855] <_ZN7sp_core6crypto1_79_$LT$impl$u20$scale_info..TypeInfo$u20$for$u20$sp_core..crypto..AccountId32$GT$9type_info17h71d004c5624cdf62E>
  - elem[68] = func[350] <_ZN15pallet_balances1_114_$LT$impl$u20$scale_info..TypeInfo$u20$for$u20$pallet_balances..ReserveData$LT$ReserveIdentifier$C$Balance$GT$$GT$9type_info17h60df027d7aeb802eE>
  - elem[69] = func[467] <_ZN10scale_info5impls75_$LT$impl$u20$scale_info..TypeInfo$u20$for$u20$alloc..vec..Vec$LT$T$GT$$GT$9type_info17hf6a1bb1b7c7834f7E>
  - elem[70] = func[779] <_ZN10scale_info5impls53_$LT$impl$u20$scale_info..TypeInfo$u20$for$u20$u8$GT$9type_info17hffc23daf484d37fbE>
  - elem[71] = func[458] <_ZN10scale_info5impls75_$LT$impl$u20$scale_info..TypeInfo$u20$for$u20$alloc..vec..Vec$LT$T$GT$$GT$9type_info17h3590b34cc35955e5E>
  - elem[72] = func[825] <_ZN17sp_consensus_aura7sr2551911app_sr255191_98_$LT$impl$u20$scale_info..TypeInfo$u20$for$u20$sp_consensus_aura..sr25519..app_sr25519..Public$GT$9type_info17h30ae5f03ff53a3abE>
  - elem[73] = func[464] <_ZN10scale_info5impls75_$LT$impl$u20$scale_info..TypeInfo$u20$for$u20$alloc..vec..Vec$LT$T$GT$$GT$9type_info17hbc60590d8d29936cE>
  - elem[74] = func[291] <_ZN4core3ptr28drop_in_place$LT$$RF$str$GT$17hd8bf2e923ada5034E.llvm.2314689094233035969>
  - elem[75] = func[289] <_ZN42_$LT$$RF$T$u20$as$u20$core..fmt..Debug$GT$3fmt17ha0ab1c76edc08a49E.llvm.2314689094233035969>
  - elem[76] = func[720] <_ZN12frame_system6pallet1_87_$LT$impl$u20$scale_info..TypeInfo$u20$for$u20$frame_system..pallet..Error$LT$T$GT$$GT$9type_info17hdafc3ab34778a55fE>
  - elem[77] = func[724] <_ZN12frame_system6pallet1_87_$LT$impl$u20$scale_info..TypeInfo$u20$for$u20$frame_system..pallet..Event$LT$T$GT$$GT$9type_info17he65acd95317814a4E>
  - elem[78] = func[719] <_ZN12frame_system6pallet1_86_$LT$impl$u20$scale_info..TypeInfo$u20$for$u20$frame_system..pallet..Call$LT$T$GT$$GT$9type_info17h604272345757bb25E>
  - elem[79] = func[609] <_ZN16pallet_timestamp6pallet1_90_$LT$impl$u20$scale_info..TypeInfo$u20$for$u20$pallet_timestamp..pallet..Call$LT$T$GT$$GT$9type_info17h6ab1c85642e9d01aE>
  - elem[80] = func[428] <_ZN14pallet_grandpa6pallet1_89_$LT$impl$u20$scale_info..TypeInfo$u20$for$u20$pallet_grandpa..pallet..Error$LT$T$GT$$GT$9type_info17h826fe84a47105598E>
  - elem[81] = func[743] <_ZN14pallet_grandpa6pallet1_80_$LT$impl$u20$scale_info..TypeInfo$u20$for$u20$pallet_grandpa..pallet..Event$GT$9type_info17ha2e319cb37aeaa8aE>
  - elem[82] = func[427] <_ZN14pallet_grandpa6pallet1_88_$LT$impl$u20$scale_info..TypeInfo$u20$for$u20$pallet_grandpa..pallet..Call$LT$T$GT$$GT$9type_info17hee05a610c0e2cc9eE>
  - elem[83] = func[662] <_ZN15pallet_balances6pallet1_94_$LT$impl$u20$scale_info..TypeInfo$u20$for$u20$pallet_balances..pallet..Error$LT$T$C$I$GT$$GT$9type_info17hcb30f636f756ed36E>
  - elem[84] = func[668] <_ZN15pallet_balances6pallet1_94_$LT$impl$u20$scale_info..TypeInfo$u20$for$u20$pallet_balances..pallet..Event$LT$T$C$I$GT$$GT$9type_info17h153ca85c0081a505E>
  - elem[85] = func[661] <_ZN15pallet_balances6pallet1_93_$LT$impl$u20$scale_info..TypeInfo$u20$for$u20$pallet_balances..pallet..Call$LT$T$C$I$GT$$GT$9type_info17hcb240acf9ebf0134E>
  - elem[86] = func[674] <_ZN26pallet_transaction_payment6pallet1_101_$LT$impl$u20$scale_info..TypeInfo$u20$for$u20$pallet_transaction_payment..pallet..Event$LT$T$GT$$GT$9type_info17h464aed7897ba6963E>
  - elem[87] = func[273] <_ZN11pallet_sudo6pallet1_86_$LT$impl$u20$scale_info..TypeInfo$u20$for$u20$pallet_sudo..pallet..Error$LT$T$GT$$GT$9type_info17h67e3519cbd2d46aeE>
  - elem[88] = func[275] <_ZN11pallet_sudo6pallet1_86_$LT$impl$u20$scale_info..TypeInfo$u20$for$u20$pallet_sudo..pallet..Event$LT$T$GT$$GT$9type_info17h355424c55e7073feE>
  - elem[89] = func[272] <_ZN11pallet_sudo6pallet1_85_$LT$impl$u20$scale_info..TypeInfo$u20$for$u20$pallet_sudo..pallet..Call$LT$T$GT$$GT$9type_info17h1b79dd2467687958E>
  - elem[90] = func[238] <_ZN15pallet_template6pallet1_90_$LT$impl$u20$scale_info..TypeInfo$u20$for$u20$pallet_template..pallet..Error$LT$T$GT$$GT$9type_info17h5b9eb5a8a4e92bf8E>
  - elem[91] = func[241] <_ZN15pallet_template6pallet1_90_$LT$impl$u20$scale_info..TypeInfo$u20$for$u20$pallet_template..pallet..Event$LT$T$GT$$GT$9type_info17h8f91fe99d5fef1e5E>
  - elem[92] = func[237] <_ZN15pallet_template6pallet1_89_$LT$impl$u20$scale_info..TypeInfo$u20$for$u20$pallet_template..pallet..Call$LT$T$GT$$GT$9type_info17hfa1c296f650bebb2E>
  - elem[93] = func[343] <_ZN10pallet_poe6pallet1_85_$LT$impl$u20$scale_info..TypeInfo$u20$for$u20$pallet_poe..pallet..Error$LT$T$GT$$GT$9type_info17h82ec1927457989d3E>
  - elem[94] = func[344] <_ZN10pallet_poe6pallet1_85_$LT$impl$u20$scale_info..TypeInfo$u20$for$u20$pallet_poe..pallet..Event$LT$T$GT$$GT$9type_info17h8b211a93efb4b869E>
  - elem[95] = func[342] <_ZN10pallet_poe6pallet1_84_$LT$impl$u20$scale_info..TypeInfo$u20$for$u20$pallet_poe..pallet..Call$LT$T$GT$$GT$9type_info17h4ffc6d0714c4621bE>
  - elem[96] = func[367] <_ZN143_$LT$sp_runtime..generic..unchecked_extrinsic..UncheckedExtrinsic$LT$Address$C$Call$C$Signature$C$Extra$GT$$u20$as$u20$scale_info..TypeInfo$GT$9type_info17h08775cd9eb5bef5bE>
  - elem[97] = func[314] <_ZN21node_template_runtime1_81_$LT$impl$u20$scale_info..TypeInfo$u20$for$u20$node_template_runtime..Runtime$GT$9type_info17h48fa29a0ce13fee3E>
  - elem[98] = func[303] <_ZN4core3ptr174drop_in_place$LT$$LT$node_template_runtime..RuntimeOrigin$u20$as$u20$core..convert..From$LT$node_template_runtime..OriginCaller$GT$$GT$..from..$u7b$$u7b$closure$u7d$$u7d$$GT$17h4450ab14ab77e630E.llvm.9960300954485291629>
  - elem[99] = func[301] <_ZN4core3ops8function6FnOnce40call_once$u7b$$u7b$vtable.shim$u7d$$u7d$17h738cbcabf21f87b5E.llvm.9960300954485291629>
  - elem[100] = func[300] <_ZN4core3ops8function5FnMut8call_mut17h8e9e4b62a87674e4E.llvm.9960300954485291629>
  - elem[101] = func[299] <_ZN4core3ops8function2Fn4call17h809592978d1d343aE.llvm.9960300954485291629>
  - elem[102] = func[302] <_ZN4core3ops8function6FnOnce40call_once$u7b$$u7b$vtable.shim$u7d$$u7d$17h9b5050b15a384180E.llvm.9960300954485291629>
  - elem[103] = func[307] <_ZN119_$LT$node_template_runtime..RuntimeOrigin$u20$as$u20$core..convert..From$LT$node_template_runtime..OriginCaller$GT$$GT$4from28_$u7b$$u7b$closure$u7d$$u7d$17h459c50511027ca5fE.llvm.9960300954485291629>
  - elem[104] = func[282] <_ZN19bounded_collections11bounded_vec1_108_$LT$impl$u20$scale_info..TypeInfo$u20$for$u20$bounded_collections..bounded_vec..BoundedVec$LT$T$C$S$GT$$GT$9type_info17h4c27b6d55963cb47E>
  - elem[105] = func[568] <_ZN10scale_info5impls64_$LT$impl$u20$scale_info..TypeInfo$u20$for$u20$$LP$A$C$B$RP$$GT$9type_info17h171e608ea12a8ab0E>
  - elem[106] = func[283] <_ZN19bounded_collections11bounded_vec1_108_$LT$impl$u20$scale_info..TypeInfo$u20$for$u20$bounded_collections..bounded_vec..BoundedVec$LT$T$C$S$GT$$GT$9type_info17h7e13a521e013ac99E>
  - elem[107] = func[633] <_ZN19bounded_collections16weak_bounded_vec1_117_$LT$impl$u20$scale_info..TypeInfo$u20$for$u20$bounded_collections..weak_bounded_vec..WeakBoundedVec$LT$T$C$S$GT$$GT$9type_info17ha0371d2f2d567b03E.llvm.2254544610208359308>
  - elem[108] = func[570] <_ZN10scale_info5impls73_$LT$impl$u20$scale_info..TypeInfo$u20$for$u20$$u5b$T$u3b$$u20$N$u5d$$GT$9type_info17h8ceac68c4e889712E>
  - elem[109] = func[735] <_ZN15pallet_balances1_75_$LT$impl$u20$scale_info..TypeInfo$u20$for$u20$pallet_balances..Reasons$GT$9type_info17ha57453fc0838e0f5E>
  - elem[110] = func[831] <_ZN20sp_consensus_grandpa3app1_84_$LT$impl$u20$scale_info..TypeInfo$u20$for$u20$sp_consensus_grandpa..app..Public$GT$9type_info17hbde45d254bbd72abE>
  - elem[111] = func[1211] <_ZN10sp_runtime1_76_$LT$impl$u20$scale_info..TypeInfo$u20$for$u20$sp_runtime..DispatchError$GT$9type_info17hef50fd22a7e0db98E>
  - elem[112] = func[235] <_ZN10scale_info5impls96_$LT$impl$u20$scale_info..TypeInfo$u20$for$u20$parity_scale_codec..compact..Compact$LT$T$GT$$GT$9type_info17h8d7122fc84462605E>
  - elem[113] = func[234] <_ZN10scale_info5impls96_$LT$impl$u20$scale_info..TypeInfo$u20$for$u20$parity_scale_codec..compact..Compact$LT$T$GT$$GT$9type_info17h61b1f3e49ed34d16E>
  - elem[114] = func[284] <_ZN19bounded_collections11bounded_vec1_108_$LT$impl$u20$scale_info..TypeInfo$u20$for$u20$bounded_collections..bounded_vec..BoundedVec$LT$T$C$S$GT$$GT$9type_info17hfd3dee54f4b88b2bE>
  - elem[115] = func[837] <_ZN18sp_consensus_slots1_75_$LT$impl$u20$scale_info..TypeInfo$u20$for$u20$sp_consensus_slots..Slot$GT$9type_info17hc31637e440a793a6E>
  - elem[116] = func[390] <_ZN10sp_runtime12multiaddress1_121_$LT$impl$u20$scale_info..TypeInfo$u20$for$u20$sp_runtime..multiaddress..MultiAddress$LT$AccountId$C$AccountIndex$GT$$GT$9type_info17hd1edd4b78f061857E>
  - elem[117] = func[630] <_ZN10scale_info5impls88_$LT$impl$u20$scale_info..TypeInfo$u20$for$u20$$LP$A$C$B$C$C$C$D$C$E$C$F$C$G$C$H$RP$$GT$9type_info17h57ccb3e55fb4e7a8E.llvm.2254544610208359308>
  - elem[118] = func[1208] <_ZN10sp_runtime1_77_$LT$impl$u20$scale_info..TypeInfo$u20$for$u20$sp_runtime..MultiSignature$GT$9type_info17h6e05ca97d6e95795E>
  - elem[119] = func[317] <_ZN21node_template_runtime1_85_$LT$impl$u20$scale_info..TypeInfo$u20$for$u20$node_template_runtime..RuntimeCall$GT$9type_info17hff87ea685372bd6fE>
  - elem[120] = func[635] <_ZN19bounded_collections16weak_bounded_vec1_117_$LT$impl$u20$scale_info..TypeInfo$u20$for$u20$bounded_collections..weak_bounded_vec..WeakBoundedVec$LT$T$C$S$GT$$GT$9type_info17hb4d1b0b7688f25eaE.llvm.2254544610208359308>
  - elem[121] = func[321] <_ZN10scale_info5impls80_$LT$impl$u20$scale_info..TypeInfo$u20$for$u20$core..option..Option$LT$T$GT$$GT$9type_info17hcef7e66449cf2cd0E>
  - elem[122] = func[385] <_ZN4core3ptr27drop_in_place$LT$$RF$u8$GT$17h66785c9f884b0a05E.llvm.7247773951996875002>
  - elem[123] = func[288] <_ZN42_$LT$$RF$T$u20$as$u20$core..fmt..Debug$GT$3fmt17h9b14aa2c65e52cd3E>
  - elem[124] = func[1213] <_ZN70_$LT$sp_runtime..generic..era..Era$u20$as$u20$scale_info..TypeInfo$GT$9type_info17hdcad0bfe67693aa6E>
  - elem[125] = func[369] <_ZN14pallet_grandpa1_87_$LT$impl$u20$scale_info..TypeInfo$u20$for$u20$pallet_grandpa..StoredState$LT$N$GT$$GT$9type_info17h81144a81f9790aa6E>
  - elem[126] = func[368] <_ZN14pallet_grandpa1_103_$LT$impl$u20$scale_info..TypeInfo$u20$for$u20$pallet_grandpa..StoredPendingChange$LT$N$C$Limit$GT$$GT$9type_info17had3c5d5adee012afE>
  - elem[127] = func[567] <_ZN10scale_info5impls64_$LT$impl$u20$scale_info..TypeInfo$u20$for$u20$$LP$A$C$B$RP$$GT$9type_info17hcbc424f0dab1806eE>
  - elem[128] = func[267] <_ZN44_$LT$$RF$T$u20$as$u20$core..fmt..Display$GT$3fmt17hca80dc17a9a37fbcE>
  - elem[129] = func[452] <_ZN4core3ptr46drop_in_place$LT$alloc..vec..Vec$LT$u8$GT$$GT$17h843db23956c47db8E.llvm.3307198572981677325>
  - elem[130] = func[478] <_ZN65_$LT$alloc..vec..Vec$LT$T$C$A$GT$$u20$as$u20$core..fmt..Debug$GT$3fmt17hfdc2083485896fddE>
  - elem[131] = func[348] <_ZN15pallet_balances1_94_$LT$impl$u20$scale_info..TypeInfo$u20$for$u20$pallet_balances..BalanceLock$LT$Balance$GT$$GT$9type_info17he477f0d13c39344eE>
  - elem[132] = func[457] <_ZN10scale_info5impls64_$LT$impl$u20$scale_info..TypeInfo$u20$for$u20$$LP$A$C$B$RP$$GT$9type_info17hc68b93e3f9a4c191E>
  - elem[133] = func[349] <_ZN10scale_info5impls64_$LT$impl$u20$scale_info..TypeInfo$u20$for$u20$$LP$A$C$B$RP$$GT$9type_info17hfaa16196c12d7495E>
  - elem[134] = func[623] <_ZN10scale_info5impls77_$LT$impl$u20$scale_info..TypeInfo$u20$for$u20$alloc..boxed..Box$LT$T$GT$$GT$9type_info17hc4c48011aca3dfbeE.llvm.2254544610208359308>
  - elem[135] = func[351] <_ZN10scale_info5impls84_$LT$impl$u20$scale_info..TypeInfo$u20$for$u20$core..result..Result$LT$T$C$E$GT$$GT$9type_info17habb519cd1348a101E>
  - elem[136] = func[778] <_ZN10scale_info5impls55_$LT$impl$u20$scale_info..TypeInfo$u20$for$u20$bool$GT$9type_info17h28e93122c5b9a52dE>
  - elem[137] = func[233] <_ZN10scale_info5impls96_$LT$impl$u20$scale_info..TypeInfo$u20$for$u20$parity_scale_codec..compact..Compact$LT$T$GT$$GT$9type_info17h4a23172c9155ca33E>
  - elem[138] = func[569] <_ZN10scale_info5impls73_$LT$impl$u20$scale_info..TypeInfo$u20$for$u20$$u5b$T$u3b$$u20$N$u5d$$GT$9type_info17h2ea5b21f337b8ff4E>
  - elem[139] = func[232] <_ZN10scale_info5impls96_$LT$impl$u20$scale_info..TypeInfo$u20$for$u20$parity_scale_codec..compact..Compact$LT$T$GT$$GT$9type_info17h11141a559861ebeaE>
  - elem[140] = func[157] <_ZN13frame_support8dispatch1_88_$LT$impl$u20$scale_info..TypeInfo$u20$for$u20$frame_support..dispatch..DispatchInfo$GT$9type_info17haff61faafeb458a3E>
  - elem[141] = func[460] <_ZN10scale_info5impls75_$LT$impl$u20$scale_info..TypeInfo$u20$for$u20$alloc..vec..Vec$LT$T$GT$$GT$9type_info17h05f2e2ea4802f26bE>
  - elem[142] = func[628] <_ZN10scale_info5impls77_$LT$impl$u20$scale_info..TypeInfo$u20$for$u20$alloc..boxed..Box$LT$T$GT$$GT$9type_info17h17ceea3968642450E.llvm.2254544610208359308>
  - elem[143] = func[320] <_ZN10scale_info5impls80_$LT$impl$u20$scale_info..TypeInfo$u20$for$u20$core..option..Option$LT$T$GT$$GT$9type_info17hc132929710f58b2eE>
  - elem[144] = func[632] <_ZN16finality_grandpa1_99_$LT$impl$u20$scale_info..TypeInfo$u20$for$u20$finality_grandpa..Equivocation$LT$Id$C$V$C$S$GT$$GT$9type_info17h45b9cf51c9477632E.llvm.2254544610208359308>
  - elem[145] = func[629] <_ZN10scale_info5impls77_$LT$impl$u20$scale_info..TypeInfo$u20$for$u20$alloc..boxed..Box$LT$T$GT$$GT$9type_info17h6bce882cb338a54cE.llvm.2254544610208359308>
  - elem[146] = func[843] <_ZN7sp_core1_64_$LT$impl$u20$scale_info..TypeInfo$u20$for$u20$sp_core..Void$GT$9type_info17h10d139fe635f3ba6E>
  - elem[147] = func[634] <_ZN16finality_grandpa1_99_$LT$impl$u20$scale_info..TypeInfo$u20$for$u20$finality_grandpa..Equivocation$LT$Id$C$V$C$S$GT$$GT$9type_info17hbdb5cbb60c422864E.llvm.2254544610208359308>
  - elem[148] = func[162] <_ZN13frame_support6traits6tokens4misc1_101_$LT$impl$u20$scale_info..TypeInfo$u20$for$u20$frame_support..traits..tokens..misc..BalanceStatus$GT$9type_info17ha1ada78dab260cf3E>
  - elem[149] = func[466] <_ZN10scale_info5impls75_$LT$impl$u20$scale_info..TypeInfo$u20$for$u20$alloc..vec..Vec$LT$T$GT$$GT$9type_info17hdd6ce63adc41aaf2E>
  - elem[150] = func[571] <_ZN10scale_info5impls73_$LT$impl$u20$scale_info..TypeInfo$u20$for$u20$$u5b$T$u3b$$u20$N$u5d$$GT$9type_info17ha7abfab335f9e48dE>
  - elem[151] = func[374] <_ZN15pallet_balances1_94_$LT$impl$u20$scale_info..TypeInfo$u20$for$u20$pallet_balances..AccountData$LT$Balance$GT$$GT$9type_info17hd08f5992de5c0636E>
  - elem[152] = func[316] <_ZN21node_template_runtime1_86_$LT$impl$u20$scale_info..TypeInfo$u20$for$u20$node_template_runtime..RuntimeEvent$GT$9type_info17h22ddd9e9196404d9E>
  - elem[153] = func[185] <_ZN12frame_system1_70_$LT$impl$u20$scale_info..TypeInfo$u20$for$u20$frame_system..Phase$GT$9type_info17h11595b8b00e60cdaE>
  - elem[154] = func[465] <_ZN10scale_info5impls75_$LT$impl$u20$scale_info..TypeInfo$u20$for$u20$alloc..vec..Vec$LT$T$GT$$GT$9type_info17hd72aa60f568ccf0cE>
  - elem[155] = func[615] <_ZN4core3ptr40drop_in_place$LT$sp_inherents..Error$GT$17h888a93527bd2070eE.llvm.16665248970420330041>
  - elem[156] = func[862] <_ZN56_$LT$sp_inherents..Error$u20$as$u20$core..fmt..Debug$GT$3fmt17h86434760ac60b5e4E>
  - elem[157] = func[69] <_ZN63_$LT$core..cell..BorrowMutError$u20$as$u20$core..fmt..Debug$GT$3fmt17hac0c7009eb5b932fE>
  - elem[158] = func[68] <_ZN60_$LT$core..cell..BorrowError$u20$as$u20$core..fmt..Debug$GT$3fmt17hb50357089429856eE>
  - elem[159] = func[285] <_ZN42_$LT$$RF$T$u20$as$u20$core..fmt..Debug$GT$3fmt17h461223056f9a88c7E>
  - elem[160] = func[290] <_ZN42_$LT$$RF$T$u20$as$u20$core..fmt..Debug$GT$3fmt17hd94f9dcaaca9901dE>
  - elem[161] = func[286] <_ZN42_$LT$$RF$T$u20$as$u20$core..fmt..Debug$GT$3fmt17h8132ebf943b9d58cE>
  - elem[162] = func[625] <_ZN16finality_grandpa1_89_$LT$impl$u20$scale_info..TypeInfo$u20$for$u20$finality_grandpa..Prevote$LT$H$C$N$GT$$GT$9type_info17h31ec7555aa2b52a5E.llvm.2254544610208359308>
  - elem[163] = func[832] <_ZN20sp_consensus_grandpa3app1_87_$LT$impl$u20$scale_info..TypeInfo$u20$for$u20$sp_consensus_grandpa..app..Signature$GT$9type_info17h2d5d1835fbef913aE>
  - elem[164] = func[627] <_ZN16finality_grandpa1_91_$LT$impl$u20$scale_info..TypeInfo$u20$for$u20$finality_grandpa..Precommit$LT$H$C$N$GT$$GT$9type_info17hac65c4bbc25f6c33E.llvm.2254544610208359308>
  - elem[165] = func[631] <_ZN12frame_system10extensions21check_non_zero_sender1_127_$LT$impl$u20$scale_info..TypeInfo$u20$for$u20$frame_system..extensions..check_non_zero_sender..CheckNonZeroSender$LT$T$GT$$GT$9type_info17h14d024ef834c2fb5E.llvm.2254544610208359308>
  - elem[166] = func[355] <_ZN26pallet_transaction_payment1_112_$LT$impl$u20$scale_info..TypeInfo$u20$for$u20$pallet_transaction_payment..ChargeTransactionPayment$LT$T$GT$$GT$9type_info17hc283b643e77d466bE>
  - elem[167] = func[268] <_ZN12frame_system10extensions12check_weight1_111_$LT$impl$u20$scale_info..TypeInfo$u20$for$u20$frame_system..extensions..check_weight..CheckWeight$LT$T$GT$$GT$9type_info17h5d153acc0cce666eE>
  - elem[168] = func[354] <_ZN12frame_system10extensions11check_nonce1_109_$LT$impl$u20$scale_info..TypeInfo$u20$for$u20$frame_system..extensions..check_nonce..CheckNonce$LT$T$GT$$GT$9type_info17hdfb548a9fe01db0aE>
  - elem[169] = func[396] <_ZN12frame_system10extensions15check_mortality1_117_$LT$impl$u20$scale_info..TypeInfo$u20$for$u20$frame_system..extensions..check_mortality..CheckMortality$LT$T$GT$$GT$9type_info17hfc8152590038d071E>
  - elem[170] = func[352] <_ZN12frame_system10extensions13check_genesis1_113_$LT$impl$u20$scale_info..TypeInfo$u20$for$u20$frame_system..extensions..check_genesis..CheckGenesis$LT$T$GT$$GT$9type_info17h73cab2889fb2c257E>
  - elem[171] = func[353] <_ZN12frame_system10extensions16check_tx_version1_118_$LT$impl$u20$scale_info..TypeInfo$u20$for$u20$frame_system..extensions..check_tx_version..CheckTxVersion$LT$T$GT$$GT$9type_info17h280c95ee76230e9cE>
  - elem[172] = func[356] <_ZN12frame_system10extensions18check_spec_version1_122_$LT$impl$u20$scale_info..TypeInfo$u20$for$u20$frame_system..extensions..check_spec_version..CheckSpecVersion$LT$T$GT$$GT$9type_info17hbd53065b5c4d64cbE>
  - elem[173] = func[626] <_ZN10scale_info5impls64_$LT$impl$u20$scale_info..TypeInfo$u20$for$u20$$LP$A$C$B$RP$$GT$9type_info17h91c792bf39de2403E.llvm.2254544610208359308>
  - elem[174] = func[459] <_ZN10scale_info5impls75_$LT$impl$u20$scale_info..TypeInfo$u20$for$u20$alloc..vec..Vec$LT$T$GT$$GT$9type_info17h01bd8a4ee56be878E>
  - elem[175] = func[624] <_ZN10scale_info5impls64_$LT$impl$u20$scale_info..TypeInfo$u20$for$u20$$LP$A$C$B$RP$$GT$9type_info17h753e8c6c0d3bb4e3E.llvm.2254544610208359308>
  - elem[176] = func[461] <_ZN10scale_info5impls75_$LT$impl$u20$scale_info..TypeInfo$u20$for$u20$alloc..vec..Vec$LT$T$GT$$GT$9type_info17h154ddf6ca4af8779E>
  - elem[177] = func[648] <_ZN4core3ptr47drop_in_place$LT$core..cell..BorrowMutError$GT$17ha1da34791c0997e3E.llvm.2254544610208359308>
  - elem[178] = func[817] <_ZN13sp_arithmetic11fixed_point1_88_$LT$impl$u20$scale_info..TypeInfo$u20$for$u20$sp_arithmetic..fixed_point..FixedU128$GT$9type_info17hcde7bd8695b02cc2E>
  - elem[179] = func[745] <_ZN26pallet_transaction_payment1_87_$LT$impl$u20$scale_info..TypeInfo$u20$for$u20$pallet_transaction_payment..Releases$GT$9type_info17h8d2181207482b62aE>
  - elem[180] = func[751] <_ZN71_$LT$parity_scale_codec..error..Error$u20$as$u20$core..fmt..Display$GT$3fmt17hbe2aeeb3541bc30dE>
  - elem[181] = func[450] <_ZN42_$LT$$RF$T$u20$as$u20$core..fmt..Debug$GT$3fmt17hf3f2abbd85e6e120E>
  - elem[182] = func[715] <_ZN4core3fmt3num50_$LT$impl$u20$core..fmt..Debug$u20$for$u20$u32$GT$3fmt17h37f0322cef62a07eE>
  - elem[183] = func[117] <_ZN4core3fmt3num3imp51_$LT$impl$u20$core..fmt..Display$u20$for$u20$u8$GT$3fmt17h3313d8ff2039e423E>
  - elem[184] = func[250] <_ZN44_$LT$$RF$T$u20$as$u20$core..fmt..Display$GT$3fmt17h2ca9e037480cfd3aE>
  - elem[185] = func[572] <_ZN12frame_system1_103_$LT$impl$u20$scale_info..TypeInfo$u20$for$u20$frame_system..AccountInfo$LT$Index$C$AccountData$GT$$GT$9type_info17ha32825fc19630af3E>
  - elem[186] = func[1218] <_ZN10sp_runtime7generic6digest1_86_$LT$impl$u20$scale_info..TypeInfo$u20$for$u20$sp_runtime..generic..digest..Digest$GT$9type_info17ha865372683875bf5E>
  - elem[187] = func[463] <_ZN10scale_info5impls75_$LT$impl$u20$scale_info..TypeInfo$u20$for$u20$alloc..vec..Vec$LT$T$GT$$GT$9type_info17hb1b457869876c2f4E>
  - elem[188] = func[462] <_ZN10scale_info5impls75_$LT$impl$u20$scale_info..TypeInfo$u20$for$u20$alloc..vec..Vec$LT$T$GT$$GT$9type_info17h16616dd981178087E>
  - elem[189] = func[186] <_ZN12frame_system1_87_$LT$impl$u20$scale_info..TypeInfo$u20$for$u20$frame_system..LastRuntimeUpgradeInfo$GT$9type_info17h5be8a228d2817660E>
  - elem[190] = func[181] <_ZN12frame_system6limits1_85_$LT$impl$u20$scale_info..TypeInfo$u20$for$u20$frame_system..limits..BlockWeights$GT$9type_info17hcf7d4941bbf06594E>
  - elem[191] = func[178] <_ZN12frame_system6limits1_84_$LT$impl$u20$scale_info..TypeInfo$u20$for$u20$frame_system..limits..BlockLength$GT$9type_info17hf4c1bc5cbda69aa3E>
  - elem[192] = func[1236] <_ZN10sp_weights1_78_$LT$impl$u20$scale_info..TypeInfo$u20$for$u20$sp_weights..RuntimeDbWeight$GT$9type_info17h65d79e2e4b8f09deE>
  - elem[193] = func[1228] <_ZN10sp_version1_77_$LT$impl$u20$scale_info..TypeInfo$u20$for$u20$sp_version..RuntimeVersion$GT$9type_info17h628638e6e54097a6E>
  - elem[194] = func[780] <_ZN10scale_info5impls54_$LT$impl$u20$scale_info..TypeInfo$u20$for$u20$u16$GT$9type_info17hc780884f15e1c27eE>
  - elem[195] = func[729] <_ZN4core3ptr53drop_in_place$LT$parity_scale_codec..error..Error$GT$17hb4ed9f0bf1f9e312E>
  - elem[196] = func[727] <_ZN164_$LT$frame_system..pallet..Pallet$LT$T$GT$$u20$as$u20$frame_support..traits..hooks..OnIdle$LT$$LT$T$u20$as$u20$frame_system..pallet..Config$GT$..BlockNumber$GT$$GT$7on_idle17h7bc05f24b82db47cE>
  - elem[197] = func[608] <_ZN168_$LT$pallet_timestamp..pallet..Pallet$LT$T$GT$$u20$as$u20$frame_support..traits..hooks..OnIdle$LT$$LT$T$u20$as$u20$frame_system..pallet..Config$GT$..BlockNumber$GT$$GT$7on_idle17hcc498cc0207c3fe2E>
  - elem[198] = func[375] <_ZN162_$LT$pallet_poe..pallet..Pallet$LT$T$GT$$u20$as$u20$frame_support..traits..hooks..OnIdle$LT$$LT$T$u20$as$u20$frame_system..pallet..Config$GT$..BlockNumber$GT$$GT$7on_idle17h66c07bc9811c1725E>
  - elem[199] = func[446] <_ZN166_$LT$pallet_grandpa..pallet..Pallet$LT$T$GT$$u20$as$u20$frame_support..traits..hooks..OnIdle$LT$$LT$T$u20$as$u20$frame_system..pallet..Config$GT$..BlockNumber$GT$$GT$7on_idle17h583664b44404c2caE>
  - elem[200] = func[669] <_ZN171_$LT$pallet_balances..pallet..Pallet$LT$T$C$I$GT$$u20$as$u20$frame_support..traits..hooks..OnIdle$LT$$LT$T$u20$as$u20$frame_system..pallet..Config$GT$..BlockNumber$GT$$GT$7on_idle17h3541dea036d26c97E>
  - elem[201] = func[281] <_ZN163_$LT$pallet_sudo..pallet..Pallet$LT$T$GT$$u20$as$u20$frame_support..traits..hooks..OnIdle$LT$$LT$T$u20$as$u20$frame_system..pallet..Config$GT$..BlockNumber$GT$$GT$7on_idle17hfa753ec3a3ecce05E>
  - elem[202] = func[242] <_ZN167_$LT$pallet_template..pallet..Pallet$LT$T$GT$$u20$as$u20$frame_support..traits..hooks..OnIdle$LT$$LT$T$u20$as$u20$frame_system..pallet..Config$GT$..BlockNumber$GT$$GT$7on_idle17hc24857aa0ba93c81E>
  - elem[203] = func[744] <_ZN10scale_info5impls64_$LT$impl$u20$scale_info..TypeInfo$u20$for$u20$$LP$A$C$B$RP$$GT$9type_info17hea8e2ddf0d5bc0edE>
  - elem[204] = func[740] <_ZN10scale_info5impls75_$LT$impl$u20$scale_info..TypeInfo$u20$for$u20$alloc..vec..Vec$LT$T$GT$$GT$9type_info17h3e7dc73b8f3f9966E>
  - elem[205] = func[762] <_ZN10scale_info5impls73_$LT$impl$u20$scale_info..TypeInfo$u20$for$u20$$u5b$T$u3b$$u20$N$u5d$$GT$9type_info17h540efbeca381a97cE>
  - elem[206] = func[808] <_ZN42_$LT$$RF$T$u20$as$u20$core..fmt..Debug$GT$3fmt17h0ff6b9be392ef93bE>
  - elem[207] = func[787] <_ZN4core3ptr30drop_in_place$LT$$RF$usize$GT$17hbf009afe516e1a68E>
  - elem[208] = func[807] <_ZN42_$LT$$RF$T$u20$as$u20$core..fmt..Debug$GT$3fmt17h0122e11f99c05453E>
  - elem[209] = func[791] <_ZN68_$LT$scale_info..ty..path..PathError$u20$as$u20$core..fmt..Debug$GT$3fmt17hcb53b7597601a163E>
  - elem[210] = func[853] <_ZN7sp_core7sr255191_75_$LT$impl$u20$scale_info..TypeInfo$u20$for$u20$sp_core..sr25519..Public$GT$9type_info17h1d5bdad343af0538E>
  - elem[211] = func[851] <_ZN7sp_core7ed255191_75_$LT$impl$u20$scale_info..TypeInfo$u20$for$u20$sp_core..ed25519..Public$GT$9type_info17hb609b8105b4a9af3E>
  - elem[212] = func[852] <_ZN7sp_core7ed255191_78_$LT$impl$u20$scale_info..TypeInfo$u20$for$u20$sp_core..ed25519..Signature$GT$9type_info17h1ada91c18298faa8E>
  - elem[213] = func[845] <_ZN10scale_info5impls73_$LT$impl$u20$scale_info..TypeInfo$u20$for$u20$$u5b$T$u3b$$u20$N$u5d$$GT$9type_info17hbdce70522742218cE>
  - elem[214] = func[844] <_ZN10scale_info5impls73_$LT$impl$u20$scale_info..TypeInfo$u20$for$u20$$u5b$T$u3b$$u20$N$u5d$$GT$9type_info17h90b1929ad54f402bE>
  - elem[215] = func[846] <_ZN10scale_info5impls73_$LT$impl$u20$scale_info..TypeInfo$u20$for$u20$$u5b$T$u3b$$u20$N$u5d$$GT$9type_info17hcca905aba12170a3E>
  - elem[216] = func[858] <_ZN4core3ptr27drop_in_place$LT$$RF$u8$GT$17he30874e8bdb6b52fE.llvm.1637812024920382065>
  - elem[217] = func[860] <_ZN42_$LT$$RF$T$u20$as$u20$core..fmt..Debug$GT$3fmt17hbfd174bcfe41c3deE>
  - elem[218] = func[861] <_ZN4core3ptr48drop_in_place$LT$$RF$$u5b$u8$u3b$$u20$8$u5d$$GT$17h5a197589501cc2c4E>
  - elem[219] = func[856] <_ZN42_$LT$$RF$T$u20$as$u20$core..fmt..Debug$GT$3fmt17h258812ad35885f9cE>
  - elem[220] = func[859] <_ZN42_$LT$$RF$T$u20$as$u20$core..fmt..Debug$GT$3fmt17ha885398bac1a827cE>
  - elem[221] = func[889] <_ZN5sp_io4trie26extern_host_function_impls23blake2_256_ordered_root17h0c5d87eb7fd037c5E>
  - elem[222] = func[880] <_ZN5sp_io7hashing26extern_host_function_impls10blake2_12817hfd5c56043582f973E>
  - elem[223] = func[881] <_ZN5sp_io7hashing26extern_host_function_impls10blake2_25617ha76166d93d964c2bE>
  - elem[224] = func[882] <_ZN5sp_io7hashing26extern_host_function_impls8twox_12817h120530b5c2b45a50E>
  - elem[225] = func[883] <_ZN5sp_io7hashing26extern_host_function_impls7twox_6417h2b0fd84814d016c1E>
  - elem[226] = func[878] <_ZN5sp_io7logging26extern_host_function_impls3log17hdd458f5180b51436E>
  - elem[227] = func[879] <_ZN5sp_io7logging26extern_host_function_impls9max_level17hf3fb18ed4b473410E>
  - elem[228] = func[888] <_ZN44_$LT$$RF$T$u20$as$u20$core..fmt..Display$GT$3fmt17hef8f8a3f65ea546aE>
  - elem[229] = func[895] <_ZN5sp_io7storage26extern_host_function_impls6append17h8ce576ec0bc31e79E>
  - elem[230] = func[896] <_ZN5sp_io7storage26extern_host_function_impls5clear17h12dcaf19067a30eeE>
  - elem[231] = func[897] <_ZN5sp_io7storage26extern_host_function_impls12clear_prefix17h9dcc72783bbd7f3fE>
  - elem[232] = func[898] <_ZN5sp_io7storage26extern_host_function_impls18commit_transaction17hc4603b40e880d893E>
  - elem[233] = func[899] <_ZN5sp_io7storage26extern_host_function_impls6exists17h6c662ff36cb263e2E>
  - elem[234] = func[900] <_ZN5sp_io7storage26extern_host_function_impls3get17h367f9f202d104f1eE>
  - elem[235] = func[901] <_ZN5sp_io7storage26extern_host_function_impls4read17h77ecc3471e2db9c6E>
  - elem[236] = func[902] <_ZN5sp_io7storage26extern_host_function_impls20rollback_transaction17ha01b8c5fa848c919E>
  - elem[237] = func[903] <_ZN5sp_io7storage26extern_host_function_impls4root17hb3dd64bbf0c7c7edE>
  - elem[238] = func[904] <_ZN5sp_io7storage26extern_host_function_impls3set17h30dab56f3cf5e7a2E>
  - elem[239] = func[905] <_ZN5sp_io7storage26extern_host_function_impls17start_transaction17h54d48168b5039ab1E>
  - elem[240] = func[890] <_ZN5sp_io4misc26extern_host_function_impls9print_hex17he0fba415039901bfE>
  - elem[241] = func[891] <_ZN5sp_io4misc26extern_host_function_impls10print_utf817hba00e646ef772a07E>
  - elem[242] = func[892] <_ZN5sp_io4misc26extern_host_function_impls15runtime_version17h050b914a4171a2ecE>
  - elem[243] = func[871] <_ZN5sp_io6crypto26extern_host_function_impls16ed25519_generate17h83955b86a83051fcE>
  - elem[244] = func[872] <_ZN5sp_io6crypto26extern_host_function_impls14ed25519_verify17h06dae3e99bf19792E>
  - elem[245] = func[873] <_ZN5sp_io6crypto26extern_host_function_impls19finish_batch_verify17h3d5834c575fe0b20E>
  - elem[246] = func[874] <_ZN5sp_io6crypto26extern_host_function_impls34secp256k1_ecdsa_recover_compressed17h36261bf38f041bd9E>
  - elem[247] = func[875] <_ZN5sp_io6crypto26extern_host_function_impls16sr25519_generate17hf3dd29a0b1945220E>
  - elem[248] = func[876] <_ZN5sp_io6crypto26extern_host_function_impls14sr25519_verify17hf7132aeeb66c66cdE>
  - elem[249] = func[877] <_ZN5sp_io6crypto26extern_host_function_impls18start_batch_verify17he815c1ccb70972ccE>
  - elem[250] = func[887] <_ZN4core3ptr29drop_in_place$LT$$LP$$RP$$GT$17h7029b9b941b5f8feE.llvm.5061338377777191846>
  - elem[251] = func[886] <_ZN45_$LT$$LP$$RP$$u20$as$u20$core..fmt..Debug$GT$3fmt17hd3919e2cb60ad48eE.llvm.5061338377777191846>
  - elem[252] = func[893] <_ZN5sp_io9allocator26extern_host_function_impls4free17hef40bdd7cd4d0433E>
  - elem[253] = func[894] <_ZN5sp_io9allocator26extern_host_function_impls6malloc17h7901224d9cf7bfe6E>
  - elem[254] = func[750] <_ZN4core3fmt3num52_$LT$impl$u20$core..fmt..Debug$u20$for$u20$usize$GT$3fmt17ha5102538a7a70669E.llvm.8146613307230284552>
  - elem[255] = func[854] <_ZN7sp_core7sr255191_78_$LT$impl$u20$scale_info..TypeInfo$u20$for$u20$sp_core..sr25519..Signature$GT$9type_info17hf8bf3ab2eb3d2909E>
  - elem[256] = func[1212] <_ZN10sp_runtime1_73_$LT$impl$u20$scale_info..TypeInfo$u20$for$u20$sp_runtime..TokenError$GT$9type_info17h347e757a063213dfE>
  - elem[257] = func[1209] <_ZN10sp_runtime1_74_$LT$impl$u20$scale_info..TypeInfo$u20$for$u20$sp_runtime..ModuleError$GT$9type_info17h3547f68576307a6dE>
  - elem[258] = func[842] <_ZN7sp_core5ecdsa1_76_$LT$impl$u20$scale_info..TypeInfo$u20$for$u20$sp_core..ecdsa..Signature$GT$9type_info17hcd8ad6e8634bf67aE>
  - elem[259] = func[1200] <_ZN10scale_info5impls73_$LT$impl$u20$scale_info..TypeInfo$u20$for$u20$$u5b$T$u3b$$u20$N$u5d$$GT$9type_info17ha0e0cb088d716110E.llvm.14820062177021773357>
  - elem[260] = func[1202] <_ZN10scale_info5impls75_$LT$impl$u20$scale_info..TypeInfo$u20$for$u20$alloc..vec..Vec$LT$T$GT$$GT$9type_info17h94f9b9ac141e6235E>
  - elem[261] = func[820] <_ZN13sp_arithmetic1_81_$LT$impl$u20$scale_info..TypeInfo$u20$for$u20$sp_arithmetic..ArithmeticError$GT$9type_info17h87c69931fb805a39E>
  - elem[262] = func[1210] <_ZN10sp_runtime1_81_$LT$impl$u20$scale_info..TypeInfo$u20$for$u20$sp_runtime..TransactionalError$GT$9type_info17hf84d1499ab951b30E>
  - elem[263] = func[1189] <_ZN4core3ptr47drop_in_place$LT$$RF$mut$u20$sp_std..Writer$GT$17hf8497ea493420b5fE.llvm.14459537414123510621>
  - elem[264] = func[1192] <_ZN50_$LT$$RF$mut$u20$W$u20$as$u20$core..fmt..Write$GT$9write_str17h8616f8bbe606ceeeE.llvm.14459537414123510621>
  - elem[265] = func[1190] <_ZN50_$LT$$RF$mut$u20$W$u20$as$u20$core..fmt..Write$GT$10write_char17h0378a7326bf8226dE.llvm.14459537414123510621>
  - elem[266] = func[1191] <_ZN50_$LT$$RF$mut$u20$W$u20$as$u20$core..fmt..Write$GT$9write_fmt17h48a02d3130330554E.llvm.14459537414123510621>
  - elem[267] = func[1188] <_ZN44_$LT$$RF$T$u20$as$u20$core..fmt..Display$GT$3fmt17h38ab37a3a2980c9dE>
  - elem[268] = func[1194] <_ZN4core3ptr62drop_in_place$LT$sp_runtime..runtime_logger..RuntimeLogger$GT$17ha98b028d23180d0dE.llvm.14595567217688357968>
  - elem[269] = func[1195] <_ZN70_$LT$sp_runtime..runtime_logger..RuntimeLogger$u20$as$u20$log..Log$GT$7enabled17hd95ef22aa562ecfcE>
  - elem[270] = func[1196] <_ZN70_$LT$sp_runtime..runtime_logger..RuntimeLogger$u20$as$u20$log..Log$GT$3log17h581d379f2e176478E>
  - elem[271] = func[1197] <_ZN70_$LT$sp_runtime..runtime_logger..RuntimeLogger$u20$as$u20$log..Log$GT$5flush17ha52ac223baca1ffcE>
  - elem[272] = func[1214] <_ZN80_$LT$sp_runtime..generic..digest..DigestItem$u20$as$u20$scale_info..TypeInfo$GT$9type_info17h5db41def55f6c838E>
  - elem[273] = func[1203] <_ZN10scale_info5impls75_$LT$impl$u20$scale_info..TypeInfo$u20$for$u20$alloc..vec..Vec$LT$T$GT$$GT$9type_info17haed45caf56c1c66fE>
  - elem[274] = func[1226] <_ZN10scale_info5impls64_$LT$impl$u20$scale_info..TypeInfo$u20$for$u20$$LP$A$C$B$RP$$GT$9type_info17h8c061902ce58964bE>
  - elem[275] = func[1227] <_ZN10scale_info5impls73_$LT$impl$u20$scale_info..TypeInfo$u20$for$u20$$u5b$T$u3b$$u20$N$u5d$$GT$9type_info17h9ff268ea4bd07916E>
  - elem[276] = func[1229] <_ZN10scale_info5impls78_$LT$impl$u20$scale_info..TypeInfo$u20$for$u20$alloc..borrow..Cow$LT$T$GT$$GT$9type_info17habab7a12647f8917E>
  - elem[277] = func[1225] <_ZN10scale_info5impls62_$LT$impl$u20$scale_info..TypeInfo$u20$for$u20$$u5b$T$u5d$$GT$9type_info17h092717522ecbdc5bE>
  - elem[278] = func[1233] <_ZN10scale_info5impls96_$LT$impl$u20$scale_info..TypeInfo$u20$for$u20$parity_scale_codec..compact..Compact$LT$T$GT$$GT$9type_info17h06b0d318e4123b03E>
Code[1220]:
 - func[30] size=13 <__rust_alloc_error_handler>
 - func[31] size=2 <_ZN4core3ptr27drop_in_place$LT$$RF$u8$GT$17h9448f6182a5fd865E>
 - func[32] size=374 <_ZN50_$LT$$RF$mut$u20$W$u20$as$u20$core..fmt..Write$GT$10write_char17hfdb02e10cec8e82bE>
 - func[33] size=227 <_ZN5alloc7raw_vec19RawVec$LT$T$C$A$GT$16reserve_for_push17h6cba132680cf9e1dE>
 - func[34] size=229 <_ZN5alloc7raw_vec19RawVec$LT$T$C$A$GT$7reserve21do_reserve_and_handle17hafdb7414e5081fabE>
 - func[35] size=116 <_ZN50_$LT$$RF$mut$u20$W$u20$as$u20$core..fmt..Write$GT$9write_fmt17h100e6f4fd3267bb6E>
 - func[36] size=80 <_ZN50_$LT$$RF$mut$u20$W$u20$as$u20$core..fmt..Write$GT$9write_str17hd0c2a8eaeeddab3dE>
 - func[37] size=248 <_ZN5alloc7raw_vec11finish_grow17he4bf1711e4ba9673E>
 - func[38] size=13 <_ZN5alloc5alloc18handle_alloc_error17h0bf0d323d54b1383E>
 - func[39] size=88 <_ZN5alloc7raw_vec17capacity_overflow17h1f5480f819d5701aE>
 - func[40] size=13 <_ZN5alloc5alloc18handle_alloc_error8rt_error17h9ff2aa5ed7fadc6fE>
 - func[41] size=554 <_ZN5alloc3fmt6format12format_inner17hca5976ad0b599831E>
 - func[42] size=145 <_ZN5alloc3vec16Vec$LT$T$C$A$GT$6remove13assert_failed17h74280c5b7ff5456eE>
 - func[43] size=364 <_ZN4core3fmt3num52_$LT$impl$u20$core..fmt..Debug$u20$for$u20$usize$GT$3fmt17ha5102538a7a70669E.llvm.10834399843330865155>
 - func[44] size=2 <_ZN4core3ptr53drop_in_place$LT$core..alloc..layout..LayoutError$GT$17h0e591857b12de8ddE.llvm.10834399843330865155>
 - func[45] size=384 <_ZN5bytes5bytes5Bytes8split_to17h451dbf06ab509088E>
 - func[46] size=212 <_ZN92_$LT$bytes..bytes..Bytes$u20$as$u20$core..convert..From$LT$alloc..vec..Vec$LT$u8$GT$$GT$$GT$4from17h11573dad7310e97eE>
 - func[47] size=34 <_ZN5bytes5bytes12static_clone17h217775431286f23aE>
 - func[48] size=109 <_ZN5bytes5bytes13static_to_vec17hd136dd6ae2867917E>
 - func[49] size=2 <_ZN5bytes5bytes11static_drop17h37138406e6eb9e9eE>
 - func[50] size=107 <_ZN5bytes5bytes21promotable_even_clone17h58af06bed6305901E.llvm.10834399843330865155>
 - func[51] size=214 <_ZN5bytes5bytes17shallow_clone_vec17h8d828b5b0a0b542eE>
 - func[52] size=77 <_ZN5bytes5bytes22promotable_even_to_vec17h4cd97915572f2b96E.llvm.10834399843330865155>
 - func[53] size=333 <_ZN5bytes5bytes18shared_to_vec_impl17h9a81bb3d9ba5d35fE>
 - func[54] size=231 <_ZN5bytes5bytes20promotable_even_drop17h162c12f0650fbeeaE.llvm.10834399843330865155>
 - func[55] size=104 <_ZN5bytes5bytes20promotable_odd_clone17h3e5d6d080b42d4a3E.llvm.10834399843330865155>
 - func[56] size=74 <_ZN5bytes5bytes21promotable_odd_to_vec17hfcb3c5391185dbb1E.llvm.10834399843330865155>
 - func[57] size=226 <_ZN5bytes5bytes19promotable_odd_drop17h4b55c188319c8260E.llvm.10834399843330865155>
 - func[58] size=73 <_ZN5bytes5bytes12shared_clone17hfb10a34be2f911beE.llvm.10834399843330865155>
 - func[59] size=19 <_ZN5bytes5bytes13shared_to_vec17h1333feb5e8e805d9E.llvm.10834399843330865155>
 - func[60] size=147 <_ZN5bytes5bytes11shared_drop17h10d22da2b27154aeE.llvm.10834399843330865155>
 - func[61] size=23 <_ZN5bytes5abort17h7faf4bd751085123E>
 - func[62] size=13 <_ZN4core3ops8function6FnOnce9call_once17h459bc610e5f9b8b8E>
 - func[63] size=2 <_ZN4core3ptr102drop_in_place$LT$$RF$core..iter..adapters..copied..Copied$LT$core..slice..iter..Iter$LT$u8$GT$$GT$$GT$17h7faf8882ba1bccd6E>
 - func[64] size=149 <_ZN71_$LT$core..ops..range..Range$LT$Idx$GT$$u20$as$u20$core..fmt..Debug$GT$3fmt17h9a974dea53ae7393E>
 - func[65] size=348 <_ZN4core3fmt3num50_$LT$impl$u20$core..fmt..Debug$u20$for$u20$u32$GT$3fmt17h37f0322cef62a07eE>
 - func[66] size=702 <_ZN4core3fmt5write17hf1322ecd41b5383dE>
 - func[67] size=12 <_ZN36_$LT$T$u20$as$u20$core..any..Any$GT$7type_id17hb6f80db3209e99bbE>
 - func[68] size=30 <_ZN60_$LT$core..cell..BorrowError$u20$as$u20$core..fmt..Debug$GT$3fmt17hb50357089429856eE>
 - func[69] size=30 <_ZN63_$LT$core..cell..BorrowMutError$u20$as$u20$core..fmt..Debug$GT$3fmt17hac0c7009eb5b932fE>
 - func[70] size=15 <_ZN4core6option13expect_failed17h32470bf53a55960aE>
 - func[71] size=49 <_ZN4core9panicking9panic_str17h8f5dc573828feb22E>
 - func[72] size=452 <_ZN73_$LT$core..panic..panic_info..PanicInfo$u20$as$u20$core..fmt..Display$GT$3fmt17h6f9f9f617d71dd09E>
 - func[73] size=118 <_ZN44_$LT$$RF$T$u20$as$u20$core..fmt..Display$GT$3fmt17hc85008c31f0a440eE>
 - func[74] size=25 <_ZN44_$LT$$RF$T$u20$as$u20$core..fmt..Display$GT$3fmt17h78161ef84d09e156E>
 - func[75] size=17 <_ZN4core3fmt3num3imp52_$LT$impl$u20$core..fmt..Display$u20$for$u20$u32$GT$3fmt17h4415472ad0848b36E>
 - func[76] size=20 <_ZN44_$LT$$RF$T$u20$as$u20$core..fmt..Display$GT$3fmt17ha96c0a0aa7a9d0b7E>
 - func[77] size=76 <_ZN4core9panicking9panic_fmt17hca80ede79c2b9c5bE>
 - func[78] size=94 <_ZN4core9panicking5panic17hed93247151462affE>
 - func[79] size=98 <_ZN4core9panicking13panic_display17h9a3b8ea867220babE>
 - func[80] size=145 <_ZN4core9panicking18panic_bounds_check17hcf9bf795e269a3b3E>
 - func[81] size=505 <_ZN4core9panicking19assert_failed_inner17h9fbd77a6c9ed370eE>
 - func[82] size=24 <_ZN42_$LT$$RF$T$u20$as$u20$core..fmt..Debug$GT$3fmt17h4aacf16e052bac2dE>
 - func[83] size=113 <_ZN59_$LT$core..fmt..Arguments$u20$as$u20$core..fmt..Display$GT$3fmt17h19734391c82bb232E>
 - func[84] size=163 <_ZN4core6result13unwrap_failed17h31489b714202bf4cE>
 - func[85] size=433 <_ZN68_$LT$core..fmt..builders..PadAdapter$u20$as$u20$core..fmt..Write$GT$9write_str17h50349cf2bda46db4E>
 - func[86] size=327 <_ZN4core5slice6memchr14memchr_aligned17h52586b21e53065ddE>
 - func[87] size=479 <_ZN4core3fmt8builders11DebugStruct5field17hdfa32b474c007a4aE>
 - func[88] size=396 <_ZN4core3fmt8builders10DebugTuple5field17h162e8b24db952dbfE>
 - func[89] size=376 <_ZN4core3fmt8builders10DebugInner5entry17h73547940386ca670E.llvm.5436869090389016920>
 - func[90] size=856 <_ZN4core3fmt3num14parse_u64_into17h2d2062312e1726f7E.llvm.5436869090389016920>
 - func[91] size=593 <_ZN4core3fmt3num8fmt_u12817h1e2267f7ec692d3dE.llvm.5436869090389016920>
 - func[92] size=842 <_ZN4core3fmt9Formatter12pad_integral17hedd0845afe31de07E>
 - func[93] size=262 <_ZN4core3fmt5Write10write_char17h3c32ac3adb31eb60E>
 - func[94] size=113 <_ZN4core3fmt5Write9write_fmt17hdf054b36a602b4d1E>
 - func[95] size=17 <_ZN50_$LT$$RF$mut$u20$W$u20$as$u20$core..fmt..Write$GT$9write_str17hb5cff55d43d4b82aE>
 - func[96] size=269 <_ZN50_$LT$$RF$mut$u20$W$u20$as$u20$core..fmt..Write$GT$10write_char17h03a5389408cae820E>
 - func[97] size=116 <_ZN50_$LT$$RF$mut$u20$W$u20$as$u20$core..fmt..Write$GT$9write_fmt17h060b3bedde1ee2ceE>
 - func[98] size=1042 <_ZN4core3str5count14do_count_chars17h28d93540a626ff8eE>
 - func[99] size=74 <_ZN4core3fmt9Formatter12pad_integral12write_prefix17h30d44c10b973ca4eE>
 - func[100] size=986 <_ZN4core3fmt9Formatter3pad17h5af1b351d2bb71f6E>
 - func[101] size=255 <_ZN4core3fmt9Formatter25debug_tuple_field2_finish17ha652d43fe946a009E>
 - func[102] size=986 <_ZN40_$LT$str$u20$as$u20$core..fmt..Debug$GT$3fmt17hf4eea33c72c90c41E>
 - func[103] size=394 <_ZN4core7unicode12unicode_data15grapheme_extend6lookup17hfe9c1b5f6f99d043E>
 - func[104] size=289 <_ZN4core7unicode9printable12is_printable17h1e64e70cffe62170E>
 - func[105] size=19 <_ZN4core3str16slice_error_fail17h2ccdd39d6212ac49E>
 - func[106] size=481 <_ZN41_$LT$char$u20$as$u20$core..fmt..Debug$GT$3fmt17h65b6e42937bad7acE>
 - func[107] size=15 <_ZN4core5slice5index26slice_start_index_len_fail17h8ba599f2f2e7178cE>
 - func[108] size=145 <_ZN4core5slice5index29slice_start_index_len_fail_rt17he9527c6c31b48eb4E>
 - func[109] size=15 <_ZN4core5slice5index24slice_end_index_len_fail17h77f080b3919acda4E>
 - func[110] size=145 <_ZN4core5slice5index27slice_end_index_len_fail_rt17h35077c92b7580e41E>
 - func[111] size=15 <_ZN4core5slice5index22slice_index_order_fail17h9978901de3aace10E>
 - func[112] size=145 <_ZN4core5slice5index25slice_index_order_fail_rt17hd711940b67bd7f0aE>
 - func[113] size=1601 <_ZN4core3str7pattern11StrSearcher3new17h1348fb959bf4f7beE>
 - func[114] size=1264 <_ZN4core3str19slice_error_fail_rt17h644abfc60b148bc9E>
 - func[115] size=378 <_ZN4core7unicode9printable5check17h3de90991e2e33c8aE>
 - func[116] size=361 <_ZN4core3fmt3num3imp7fmt_u6417h0d43ff48ffd885e3E.llvm.5436869090389016920>
 - func[117] size=17 <_ZN4core3fmt3num3imp51_$LT$impl$u20$core..fmt..Display$u20$for$u20$u8$GT$3fmt17h3313d8ff2039e423E>
 - func[118] size=17 <_ZN4core3fmt3num3imp52_$LT$impl$u20$core..fmt..Display$u20$for$u20$u64$GT$3fmt17h06bf73c976b587fbE>
 - func[119] size=30 <_ZN53_$LT$core..fmt..Error$u20$as$u20$core..fmt..Debug$GT$3fmt17ha2d94044358bcb4dE>
 - func[120] size=30 <_ZN69_$LT$core..alloc..layout..LayoutError$u20$as$u20$core..fmt..Debug$GT$3fmt17h8db04cf97114555cE>
 - func[121] size=466 <_ZN10scale_info2ty7variant1_105_$LT$impl$u20$parity_scale_codec..codec..Encode$u20$for$u20$scale_info..ty..variant..Variant$LT$T$GT$$GT$9encode_to17ha2028a1e19dd7346E>
 - func[122] size=256 <_ZN10scale_info2ty6fields1_102_$LT$impl$u20$parity_scale_codec..codec..Encode$u20$for$u20$scale_info..ty..fields..Field$LT$T$GT$$GT$9encode_to17h031be12fd93f90e0E>
 - func[123] size=794 <_ZN70_$LT$alloc..vec..Vec$LT$T$C$A$GT$$u20$as$u20$core..ops..drop..Drop$GT$4drop17h2eee77fdb91b74c8E>
 - func[124] size=444 <_ZN70_$LT$alloc..vec..Vec$LT$T$C$A$GT$$u20$as$u20$core..ops..drop..Drop$GT$4drop17ha3e72542ebda8191E>
 - func[125] size=493 <_ZN86_$LT$alloc..vec..into_iter..IntoIter$LT$T$C$A$GT$$u20$as$u20$core..ops..drop..Drop$GT$4drop17h186abf359571661dE>
 - func[126] size=447 <_ZN14frame_metadata3v141_116_$LT$impl$u20$parity_scale_codec..codec..Encode$u20$for$u20$frame_metadata..v14..PalletConstantMetadata$LT$T$GT$$GT$9encode_to17hbde475bb07cf3474E>
 - func[127] size=238 <_ZN65_$LT$$u5b$T$u5d$$u20$as$u20$parity_scale_codec..codec..Encode$GT$9encode_to17h9a96e4dec7c3abdfE>
 - func[128] size=816 <_ZN14frame_metadata3v141_114_$LT$impl$u20$parity_scale_codec..codec..Encode$u20$for$u20$frame_metadata..v14..StorageEntryMetadata$LT$T$GT$$GT$9encode_to17hb544d3e811f9be9cE>
 - func[129] size=947 <_ZN14frame_metadata3v141_108_$LT$impl$u20$parity_scale_codec..codec..Encode$u20$for$u20$frame_metadata..v14..PalletMetadata$LT$T$GT$$GT$9encode_to17h22e58d2eef4015e8E>
 - func[130] size=982 <_ZN14frame_metadata3v1418RuntimeMetadataV143new17ha8fc5f480ee83313E>
 - func[131] size=876 <_ZN90_$LT$frame_metadata..v14..PalletMetadata$u20$as$u20$scale_info..registry..IntoPortable$GT$13into_portable17h8580b681bb2d7cdeE>
 - func[132] size=364 <_ZN14frame_metadata3v141_103_$LT$impl$u20$parity_scale_codec..codec..Encode$u20$for$u20$frame_metadata..v14..RuntimeMetadataV14$GT$9encode_to17h71d5ce7e9b6e5e45E>
 - func[133] size=218 <_ZN14frame_metadata3v141_115_$LT$impl$u20$parity_scale_codec..codec..Encode$u20$for$u20$frame_metadata..v14..PalletStorageMetadata$LT$T$GT$$GT$9encode_to17h8826bb29ef8238f4E>
 - func[134] size=296 <_ZN10scale_info2ty1_102_$LT$impl$u20$parity_scale_codec..codec..Encode$u20$for$u20$scale_info..ty..TypeParameter$LT$T$GT$$GT$9encode_to17h89d60f8e0ae65d7aE>
 - func[135] size=1542 <_ZN10scale_info2ty1_93_$LT$impl$u20$parity_scale_codec..codec..Encode$u20$for$u20$scale_info..ty..Type$LT$T$GT$$GT$9encode_to17hc446c147a159751cE>
 - func[136] size=1536 <_ZN112_$LT$frame_metadata..RuntimeMetadataPrefixed$u20$as$u20$core..convert..Into$LT$alloc..vec..Vec$LT$u8$GT$$GT$$GT$4into17h5c7d737ada9d3c32E>
 - func[137] size=458 <_ZN102_$LT$core..iter..adapters..map..Map$LT$I$C$F$GT$$u20$as$u20$core..iter..traits..iterator..Iterator$GT$4fold17h26af149d591f36e8E>
 - func[138] size=593 <_ZN102_$LT$core..iter..adapters..map..Map$LT$I$C$F$GT$$u20$as$u20$core..iter..traits..iterator..Iterator$GT$4fold17h4a8a2fe0792b1338E>
 - func[139] size=339 <_ZN102_$LT$core..iter..adapters..map..Map$LT$I$C$F$GT$$u20$as$u20$core..iter..traits..iterator..Iterator$GT$4fold17h8729ade6e59a49c5E>
 - func[140] size=775 <_ZN102_$LT$core..iter..adapters..map..Map$LT$I$C$F$GT$$u20$as$u20$core..iter..traits..iterator..Iterator$GT$4fold17hb88aae9cbef9327eE>
 - func[141] size=261 <_ZN83_$LT$core..option..Option$LT$T$GT$$u20$as$u20$parity_scale_codec..codec..Encode$GT$9encode_to17h827c98db057af752E>
 - func[142] size=419 <_ZN104_$LT$parity_scale_codec..compact..CompactRef$LT$u32$GT$$u20$as$u20$parity_scale_codec..codec..Encode$GT$9encode_to17hd6d7745dda2f743aE>
 - func[143] size=406 <_ZN99_$LT$parity_scale_codec..compact..Compact$LT$T$GT$$u20$as$u20$parity_scale_codec..codec..Encode$GT$9encode_to17hfa284afd6d0ecc55E>
 - func[144] size=273 <_ZN5alloc7raw_vec11finish_grow17h32ccbef0e59f5989E.llvm.6877057420281360662>
 - func[145] size=243 <_ZN5alloc7raw_vec19RawVec$LT$T$C$A$GT$16reserve_for_push17h17f16fd828c07247E>
 - func[146] size=243 <_ZN5alloc7raw_vec19RawVec$LT$T$C$A$GT$16reserve_for_push17h8a920b53a6ce7ec8E>
 - func[147] size=245 <_ZN5alloc7raw_vec19RawVec$LT$T$C$A$GT$7reserve21do_reserve_and_handle17h2503d7bbe6d4f77bE>
 - func[148] size=245 <_ZN5alloc7raw_vec19RawVec$LT$T$C$A$GT$7reserve21do_reserve_and_handle17h2959931affab4f12E>
 - func[149] size=232 <_ZN5alloc7raw_vec19RawVec$LT$T$C$A$GT$7reserve21do_reserve_and_handle17hc9cbbc8f5be131b2E>
 - func[150] size=299 <_ZN137_$LT$alloc..vec..Vec$LT$T$GT$$u20$as$u20$alloc..vec..spec_from_iter..SpecFromIter$LT$T$C$alloc..vec..into_iter..IntoIter$LT$T$GT$$GT$$GT$9from_iter17h2abb4b866188efe2E>
 - func[151] size=299 <_ZN137_$LT$alloc..vec..Vec$LT$T$GT$$u20$as$u20$alloc..vec..spec_from_iter..SpecFromIter$LT$T$C$alloc..vec..into_iter..IntoIter$LT$T$GT$$GT$$GT$9from_iter17h709e30781c814cc3E>
 - func[152] size=561 <_ZN98_$LT$alloc..vec..Vec$LT$T$GT$$u20$as$u20$alloc..vec..spec_from_iter..SpecFromIter$LT$T$C$I$GT$$GT$9from_iter17h818f866873e1237eE>
 - func[153] size=2 <_ZN4core3ptr27drop_in_place$LT$$RF$u8$GT$17h1cca76bb84ec293fE.llvm.1649256116416137565>
 - func[154] size=491 <_ZN13frame_support7storage8unhashed14get_or_default17h7e6922c9e08ad11bE>
 - func[155] size=511 <_ZN13frame_support8dispatch1_80_$LT$impl$u20$scale_info..TypeInfo$u20$for$u20$frame_support..dispatch..Pays$GT$9type_info17h5b5bdd212510a372E>
 - func[156] size=637 <_ZN13frame_support8dispatch1_89_$LT$impl$u20$scale_info..TypeInfo$u20$for$u20$frame_support..dispatch..DispatchClass$GT$9type_info17h9f3893a1f2353432E>
 - func[157] size=751 <_ZN13frame_support8dispatch1_88_$LT$impl$u20$scale_info..TypeInfo$u20$for$u20$frame_support..dispatch..DispatchInfo$GT$9type_info17haff61faafeb458a3E>
 - func[158] size=485 <_ZN106_$LT$core..iter..adapters..chain..Chain$LT$A$C$B$GT$$u20$as$u20$core..iter..traits..iterator..Iterator$GT$4fold17h1430d885f0942165E>
 - func[159] size=19 <_ZN13frame_support16dispatch_context6GLOBAL6__init17hcbc8f33399875c95E>
 - func[160] size=212 <_ZN42_$LT$$RF$T$u20$as$u20$core..fmt..Debug$GT$3fmt17h4cd94d938c6dc054E>
 - func[161] size=374 <_ZN42_$LT$$RF$T$u20$as$u20$core..fmt..Debug$GT$3fmt17haab563c08de90afbE>
 - func[162] size=511 <_ZN13frame_support6traits6tokens4misc1_101_$LT$impl$u20$scale_info..TypeInfo$u20$for$u20$frame_support..traits..tokens..misc..BalanceStatus$GT$9type_info17ha1ada78dab260cf3E>
 - func[163] size=273 <_ZN5alloc7raw_vec11finish_grow17h36c5660fb2a3b7aaE.llvm.3438874305905738647>
 - func[164] size=243 <_ZN5alloc7raw_vec19RawVec$LT$T$C$A$GT$16reserve_for_push17h52acfb1ddeb7fe78E>
 - func[165] size=243 <_ZN5alloc7raw_vec19RawVec$LT$T$C$A$GT$16reserve_for_push17h5cbd8d12228a4f8eE>
 - func[166] size=245 <_ZN5alloc7raw_vec19RawVec$LT$T$C$A$GT$7reserve21do_reserve_and_handle17h493620ac537bf410E>
 - func[167] size=245 <_ZN5alloc7raw_vec19RawVec$LT$T$C$A$GT$7reserve21do_reserve_and_handle17h5b9d865a90ed0c93E>
 - func[168] size=310 <_ZN10scale_info5build17Variants$LT$F$GT$7variant17h5c74b042d386481dE>
 - func[169] size=315 <_ZN10scale_info5build17Variants$LT$F$GT$7variant17hb808acc92183112bE>
 - func[170] size=514 <_ZN10scale_info5impls80_$LT$impl$u20$scale_info..TypeInfo$u20$for$u20$core..option..Option$LT$T$GT$$GT$9type_info17hbc31321a0bd6d550E>
 - func[171] size=90 <_ZN10scale_info5impls96_$LT$impl$u20$scale_info..TypeInfo$u20$for$u20$parity_scale_codec..compact..Compact$LT$T$GT$$GT$9type_info17h39a66922b072e181E>
 - func[172] size=299 <_ZN137_$LT$alloc..vec..Vec$LT$T$GT$$u20$as$u20$alloc..vec..spec_from_iter..SpecFromIter$LT$T$C$alloc..vec..into_iter..IntoIter$LT$T$GT$$GT$$GT$9from_iter17h2c3a998df1882e33E>
 - func[173] size=299 <_ZN137_$LT$alloc..vec..Vec$LT$T$GT$$u20$as$u20$alloc..vec..spec_from_iter..SpecFromIter$LT$T$C$alloc..vec..into_iter..IntoIter$LT$T$GT$$GT$$GT$9from_iter17h2fd37fb6ec4e5cd9E>
 - func[174] size=2 <_ZN4core3ptr59drop_in_place$LT$frame_system..limits..ValidationErrors$GT$17he225af7d3cb54ac5E.llvm.13291181191807716821>
 - func[175] size=1126 <_ZN12frame_system6limits12BlockWeights8validate17h2732dd53c145fa98E>
 - func[176] size=524 <_ZN12frame_system6limits12BlockWeights22with_sensible_defaults17hd2d47f3c97ed7278E>
 - func[177] size=944 <_ZN12frame_system6limits19BlockWeightsBuilder5build17h1f52c3a4a30f43f7E>
 - func[178] size=385 <_ZN12frame_system6limits1_84_$LT$impl$u20$scale_info..TypeInfo$u20$for$u20$frame_system..limits..BlockLength$GT$9type_info17hf4c1bc5cbda69aa3E>
 - func[179] size=30 <_ZN75_$LT$frame_system..limits..ValidationErrors$u20$as$u20$core..fmt..Debug$GT$3fmt17h1bbf1cadae77cb4bE>
 - func[180] size=892 <_ZN12frame_system6limits1_88_$LT$impl$u20$scale_info..TypeInfo$u20$for$u20$frame_system..limits..WeightsPerClass$GT$9type_info17he3d0fea46c21deb0E>
 - func[181] size=722 <_ZN12frame_system6limits1_85_$LT$impl$u20$scale_info..TypeInfo$u20$for$u20$frame_system..limits..BlockWeights$GT$9type_info17hcf7d4941bbf06594E>
 - func[182] size=811 <_ZN13frame_support8dispatch1_101_$LT$impl$u20$scale_info..TypeInfo$u20$for$u20$frame_support..dispatch..PerDispatchClass$LT$T$GT$$GT$9type_info17h5173e746d47a91e9E>
 - func[183] size=815 <_ZN13frame_support8dispatch1_101_$LT$impl$u20$scale_info..TypeInfo$u20$for$u20$frame_support..dispatch..PerDispatchClass$LT$T$GT$$GT$9type_info17h9add06eac3679ee2E>
 - func[184] size=215 <_ZN55_$LT$X$u20$as$u20$parity_scale_codec..codec..Encode$GT$6encode17h6c8fd6ae46ee99b1E>
 - func[185] size=552 <_ZN12frame_system1_70_$LT$impl$u20$scale_info..TypeInfo$u20$for$u20$frame_system..Phase$GT$9type_info17h11595b8b00e60cdaE>
 - func[186] size=556 <_ZN12frame_system1_87_$LT$impl$u20$scale_info..TypeInfo$u20$for$u20$frame_system..LastRuntimeUpgradeInfo$GT$9type_info17h5be8a228d2817660E>
 - func[187] size=70 <_ZN85_$LT$sp_arithmetic..per_things..Perbill$u20$as$u20$core..ops..arith..Mul$LT$N$GT$$GT$3mul17h23f64e739f7b994aE>
 - func[188] size=2 <_ZN4core3ptr35drop_in_place$LT$log..NopLogger$GT$17h5b34479dd1d8b94cE.llvm.765246861957232611>
 - func[189] size=4 <_ZN43_$LT$log..NopLogger$u20$as$u20$log..Log$GT$7enabled17h557ef0e1e8f2b53eE>
 - func[190] size=2 <_ZN43_$LT$log..NopLogger$u20$as$u20$log..Log$GT$3log17h67624d27cdde799eE>
 - func[191] size=2 <_ZN43_$LT$log..NopLogger$u20$as$u20$log..Log$GT$5flush17h75a71356521b2677E>
 - func[192] size=268 <_ZN3log17__private_api_log17h5be3d38ab6e37a21E>
 - func[193] size=211 <_ZN18parity_scale_codec5codec19decode_vec_with_len17h151a35b63336b58dE>
 - func[194] size=171 <_ZN18parity_scale_codec5codec19decode_vec_with_len17h5069278c8f092553E>
 - func[195] size=463 <_ZN18parity_scale_codec5codec19decode_vec_with_len17h76abfd9ef23fa706E>
 - func[196] size=507 <_ZN18parity_scale_codec5codec19decode_vec_with_len17h926ef208355ecc15E>
 - func[197] size=742 <_ZN18parity_scale_codec5codec19decode_vec_with_len17ha1298edd09300a2aE>
 - func[198] size=595 <_ZN18parity_scale_codec5codec19decode_vec_with_len17hc35b486e0f4e2983E>
 - func[199] size=819 <_ZN18parity_scale_codec5codec19decode_vec_with_len17hc4a5273f9c5c031aE>
 - func[200] size=403 <_ZN18parity_scale_codec5codec19decode_vec_with_len17hc78f94de48a05a32E>
 - func[201] size=762 <_ZN18parity_scale_codec5codec19decode_vec_with_len17hce29ab4d3b0483d8E>
 - func[202] size=764 <_ZN18parity_scale_codec5codec19decode_vec_with_len17hde2719e146f23e8cE>
 - func[203] size=243 <_ZN18parity_scale_codec5codec19encode_slice_no_len17hfdfcb4863d739ed3E>
 - func[204] size=279 <_ZN18parity_scale_codec5codec6Encode13using_encoded17h253d5a0649c9a36fE>
 - func[205] size=365 <_ZN55_$LT$X$u20$as$u20$parity_scale_codec..codec..Encode$GT$13using_encoded17hb5387a0bafbb70b6E>
 - func[206] size=273 <_ZN5alloc7raw_vec11finish_grow17hea2eb890627b8cc3E.llvm.7107296659269267214>
 - func[207] size=244 <_ZN5alloc7raw_vec19RawVec$LT$T$C$A$GT$16reserve_for_push17h40c1ea72fd272ab7E>
 - func[208] size=243 <_ZN5alloc7raw_vec19RawVec$LT$T$C$A$GT$16reserve_for_push17h4951112804389933E>
 - func[209] size=244 <_ZN5alloc7raw_vec19RawVec$LT$T$C$A$GT$16reserve_for_push17h56fcc1010812324dE>
 - func[210] size=243 <_ZN5alloc7raw_vec19RawVec$LT$T$C$A$GT$16reserve_for_push17h65697bdaa18df861E>
 - func[211] size=244 <_ZN5alloc7raw_vec19RawVec$LT$T$C$A$GT$16reserve_for_push17h7d6e1b25506d9fdcE>
 - func[212] size=244 <_ZN5alloc7raw_vec19RawVec$LT$T$C$A$GT$16reserve_for_push17h844cc6910f8fce1fE>
 - func[213] size=240 <_ZN5alloc7raw_vec19RawVec$LT$T$C$A$GT$16reserve_for_push17h9bdce92e6fb390bfE>
 - func[214] size=245 <_ZN5alloc7raw_vec19RawVec$LT$T$C$A$GT$16reserve_for_push17hb05279cce7573048E>
 - func[215] size=245 <_ZN5alloc7raw_vec19RawVec$LT$T$C$A$GT$16reserve_for_push17hc21cfcb862ced6d9E>
 - func[216] size=243 <_ZN5alloc7raw_vec19RawVec$LT$T$C$A$GT$16reserve_for_push17hc2406fcad8cc7680E>
 - func[217] size=243 <_ZN5alloc7raw_vec19RawVec$LT$T$C$A$GT$16reserve_for_push17he17f151176c92dd4E>
 - func[218] size=243 <_ZN5alloc7raw_vec19RawVec$LT$T$C$A$GT$16reserve_for_push17hfc0cc7a9807dac76E>
 - func[219] size=245 <_ZN5alloc7raw_vec19RawVec$LT$T$C$A$GT$7reserve21do_reserve_and_handle17h2698607530d6ab45E>
 - func[220] size=232 <_ZN5alloc7raw_vec19RawVec$LT$T$C$A$GT$7reserve21do_reserve_and_handle17h5e2e46a4dded97c3E>
 - func[221] size=245 <_ZN5alloc7raw_vec19RawVec$LT$T$C$A$GT$7reserve21do_reserve_and_handle17ha7507ea0cf841871E>
 - func[222] size=245 <_ZN5alloc7raw_vec19RawVec$LT$T$C$A$GT$7reserve21do_reserve_and_handle17hee3fe016847d6c32E>
 - func[223] size=245 <_ZN5alloc7raw_vec19RawVec$LT$T$C$A$GT$7reserve21do_reserve_and_handle17heeeb75d44646eea0E>
 - func[224] size=319 <_ZN101_$LT$parity_scale_codec..compact..Compact$LT$u32$GT$$u20$as$u20$parity_scale_codec..codec..Decode$GT$6decode17h218601b37f0d9c70E>
 - func[225] size=324 <_ZN101_$LT$parity_scale_codec..compact..Compact$LT$u32$GT$$u20$as$u20$parity_scale_codec..codec..Decode$GT$6decode17h66ff4f7752c6d8caE>
 - func[226] size=533 <_ZN101_$LT$parity_scale_codec..compact..Compact$LT$u64$GT$$u20$as$u20$parity_scale_codec..codec..Decode$GT$6decode17h9e7ec1a19ed7dc8fE>
 - func[227] size=528 <_ZN101_$LT$parity_scale_codec..compact..Compact$LT$u64$GT$$u20$as$u20$parity_scale_codec..codec..Decode$GT$6decode17hdf21abd13bd7b6a7E.llvm.8771510674240836652>
 - func[228] size=726 <_ZN102_$LT$parity_scale_codec..compact..Compact$LT$u128$GT$$u20$as$u20$parity_scale_codec..codec..Decode$GT$6decode17hc9d23212a3309ba7E>
 - func[229] size=419 <_ZN104_$LT$parity_scale_codec..compact..CompactRef$LT$u32$GT$$u20$as$u20$parity_scale_codec..codec..Encode$GT$9encode_to17hcb2fd939b742aa20E>
 - func[230] size=665 <_ZN104_$LT$parity_scale_codec..compact..CompactRef$LT$u64$GT$$u20$as$u20$parity_scale_codec..codec..Encode$GT$9encode_to17h0a6f748ab23435f9E>
 - func[231] size=755 <_ZN105_$LT$parity_scale_codec..compact..CompactRef$LT$u128$GT$$u20$as$u20$parity_scale_codec..codec..Encode$GT$9encode_to17h956d9b80c960e97cE>
 - func[232] size=90 <_ZN10scale_info5impls96_$LT$impl$u20$scale_info..TypeInfo$u20$for$u20$parity_scale_codec..compact..Compact$LT$T$GT$$GT$9type_info17h11141a559861ebeaE>
 - func[233] size=90 <_ZN10scale_info5impls96_$LT$impl$u20$scale_info..TypeInfo$u20$for$u20$parity_scale_codec..compact..Compact$LT$T$GT$$GT$9type_info17h4a23172c9155ca33E>
 - func[234] size=90 <_ZN10scale_info5impls96_$LT$impl$u20$scale_info..TypeInfo$u20$for$u20$parity_scale_codec..compact..Compact$LT$T$GT$$GT$9type_info17h61b1f3e49ed34d16E>
 - func[235] size=90 <_ZN10scale_info5impls96_$LT$impl$u20$scale_info..TypeInfo$u20$for$u20$parity_scale_codec..compact..Compact$LT$T$GT$$GT$9type_info17h8d7122fc84462605E>
 - func[236] size=898 <_ZN152_$LT$pallet_transaction_payment..payment..CurrencyAdapter$LT$C$C$OU$GT$$u20$as$u20$pallet_transaction_payment..payment..OnChargeTransaction$LT$T$GT$$GT$23correct_and_deposit_fee17h0985dbc3a2bdab35E>
 - func[237] size=472 <_ZN15pallet_template6pallet1_89_$LT$impl$u20$scale_info..TypeInfo$u20$for$u20$pallet_template..pallet..Call$LT$T$GT$$GT$9type_info17hfa1c296f650bebb2E>
 - func[238] size=760 <_ZN15pallet_template6pallet1_90_$LT$impl$u20$scale_info..TypeInfo$u20$for$u20$pallet_template..pallet..Error$LT$T$GT$$GT$9type_info17h5b9eb5a8a4e92bf8E>
 - func[239] size=227 <_ZN15pallet_template6pallet1_102_$LT$impl$u20$parity_scale_codec..codec..Encode$u20$for$u20$pallet_template..pallet..Call$LT$T$GT$$GT$9encode_to17hc2ca3168890235e0E>
 - func[240] size=253 <_ZN15pallet_template6pallet1_103_$LT$impl$u20$parity_scale_codec..codec..Encode$u20$for$u20$pallet_template..pallet..Event$LT$T$GT$$GT$9encode_to17h991cde8ecf877904E>
 - func[241] size=448 <_ZN15pallet_template6pallet1_90_$LT$impl$u20$scale_info..TypeInfo$u20$for$u20$pallet_template..pallet..Event$LT$T$GT$$GT$9type_info17h8f91fe99d5fef1e5E>
 - func[242] size=16 <_ZN167_$LT$pallet_template..pallet..Pallet$LT$T$GT$$u20$as$u20$frame_support..traits..hooks..OnIdle$LT$$LT$T$u20$as$u20$frame_system..pallet..Config$GT$..BlockNumber$GT$$GT$7on_idle17hc24857aa0ba93c81E>
 - func[243] size=690 <_ZN18parity_scale_codec5codec6Encode6encode17h32bef1d39111d903E>
 - func[244] size=230 <_ZN18parity_scale_codec5codec6Encode6encode17h4b5637bd6f81d79bE>
 - func[245] size=276 <_ZN26pallet_transaction_payment5types1_126_$LT$impl$u20$parity_scale_codec..codec..Encode$u20$for$u20$pallet_transaction_payment..types..InclusionFee$LT$Balance$GT$$GT$9encode_to17h86297e4664da18c0E>
 - func[246] size=251 <_ZN18parity_scale_codec5codec6Encode6encode17hc8e3a49f90ae8e8dE>
 - func[247] size=698 <_ZN20sp_consensus_grandpa1_103_$LT$impl$u20$scale_info..TypeInfo$u20$for$u20$sp_consensus_grandpa..EquivocationProof$LT$H$C$N$GT$$GT$9type_info17h73a4a90f9fe97b56E>
 - func[248] size=476 <_ZN20sp_consensus_grandpa1_98_$LT$impl$u20$scale_info..TypeInfo$u20$for$u20$sp_consensus_grandpa..Equivocation$LT$H$C$N$GT$$GT$9type_info17h1c6a788cc4f4f71dE>
 - func[249] size=406 <_ZN99_$LT$parity_scale_codec..compact..Compact$LT$T$GT$$u20$as$u20$parity_scale_codec..codec..Encode$GT$9encode_to17h79056b7e92960d6aE>
 - func[250] size=156 <_ZN44_$LT$$RF$T$u20$as$u20$core..fmt..Display$GT$3fmt17h2ca9e037480cfd3aE>
 - func[251] size=274 <_ZN55_$LT$X$u20$as$u20$parity_scale_codec..codec..Encode$GT$9encode_to17hbb152d9877affe46E>
 - func[252] size=491 <_ZN66_$LT$T$u20$as$u20$parity_scale_codec..depth_limit..DecodeLimit$GT$27decode_all_with_depth_limit17ha270cd60bfd4b603E>
 - func[253] size=133 <_ZN81_$LT$alloc..borrow..Cow$LT$T$GT$$u20$as$u20$parity_scale_codec..codec..Decode$GT$6decode17hcba50b2e6b7b8b35E>
 - func[254] size=40 <_ZN99_$LT$pallet_template..pallet..Call$LT$T$GT$$u20$as$u20$frame_support..dispatch..GetDispatchInfo$GT$17get_dispatch_info17hf235e6ca721187b0E>
 - func[255] size=241 <_ZN13frame_support7storage5types5value56StorageValue$LT$Prefix$C$Value$C$QueryKind$C$OnEmpty$GT$10decode_len17he180fb6b7237b59fE>
 - func[256] size=407 <_ZN13frame_support7storage5types5value56StorageValue$LT$Prefix$C$Value$C$QueryKind$C$OnEmpty$GT$3get17hc50f805ccd3c55c1E>
 - func[257] size=127 <_ZN13frame_support7storage5types5value56StorageValue$LT$Prefix$C$Value$C$QueryKind$C$OnEmpty$GT$3put17h8eb9fdc1ae7a74ffE>
 - func[258] size=293 <_ZN13frame_support7storage5types5value56StorageValue$LT$Prefix$C$Value$C$QueryKind$C$OnEmpty$GT$3put17hf421e92b8d1161d6E>
 - func[259] size=460 <_ZN13frame_support7storage5types5value56StorageValue$LT$Prefix$C$Value$C$QueryKind$C$OnEmpty$GT$6append17h0e7f781c4c6b8271E>
 - func[260] size=339 <_ZN13frame_support7storage5types5value56StorageValue$LT$Prefix$C$Value$C$QueryKind$C$OnEmpty$GT$6append17h210a8c03fc56a734E>
 - func[261] size=597 <_ZN13frame_support7storage5types5value56StorageValue$LT$Prefix$C$Value$C$QueryKind$C$OnEmpty$GT$6mutate17hb233e1c9da61666cE>
 - func[262] size=600 <_ZN13frame_support7storage5types5value56StorageValue$LT$Prefix$C$Value$C$QueryKind$C$OnEmpty$GT$6mutate17hce64c488b4238e81E>
 - func[263] size=483 <_ZN13frame_support7storage5types5value56StorageValue$LT$Prefix$C$Value$C$QueryKind$C$OnEmpty$GT$6mutate17hf95eaabcb22865afE>
 - func[264] size=406 <_ZN173_$LT$frame_support..storage..types..value..StorageValue$LT$Prefix$C$Value$C$QueryKind$C$OnEmpty$GT$$u20$as$u20$frame_support..storage..types..StorageEntryMetadataBuilder$GT$14build_metadata17h9a3856280adadf68E>
 - func[265] size=445 <_ZN173_$LT$frame_support..storage..types..value..StorageValue$LT$Prefix$C$Value$C$QueryKind$C$OnEmpty$GT$$u20$as$u20$frame_support..storage..types..StorageEntryMetadataBuilder$GT$14build_metadata17hb8679391156f5dd4E>
 - func[266] size=846 <_ZN4core3ptr55drop_in_place$LT$node_template_runtime..RuntimeCall$GT$17h1a652cb8af7ee3fdE.llvm.16815759223583224368>
 - func[267] size=20 <_ZN44_$LT$$RF$T$u20$as$u20$core..fmt..Display$GT$3fmt17hca80dc17a9a37fbcE>
 - func[268] size=310 <_ZN12frame_system10extensions12check_weight1_111_$LT$impl$u20$scale_info..TypeInfo$u20$for$u20$frame_system..extensions..check_weight..CheckWeight$LT$T$GT$$GT$9type_info17h5d153acc0cce666eE>
 - func[269] size=2017 <_ZN12frame_system10extensions12check_weight20CheckWeight$LT$T$GT$15do_pre_dispatch17h0e7a8b360a24b0c6E.llvm.2314689094233035969>
 - func[270] size=154 <_ZN116_$LT$frame_system..extensions..check_weight..CheckWeight$LT$T$GT$$u20$as$u20$sp_runtime..traits..SignedExtension$GT$13post_dispatch17h4edf3df1ec137c5cE>
 - func[271] size=429 <_ZN12frame_system10extensions12check_weight20CheckWeight$LT$T$GT$11do_validate17h14ff8c4be7655cf6E.llvm.2314689094233035969>
 - func[272] size=520 <_ZN11pallet_sudo6pallet1_85_$LT$impl$u20$scale_info..TypeInfo$u20$for$u20$pallet_sudo..pallet..Call$LT$T$GT$$GT$9type_info17h1b79dd2467687958E>
 - func[273] size=567 <_ZN11pallet_sudo6pallet1_86_$LT$impl$u20$scale_info..TypeInfo$u20$for$u20$pallet_sudo..pallet..Error$LT$T$GT$$GT$9type_info17h67e3519cbd2d46aeE>
 - func[274] size=355 <_ZN11pallet_sudo6pallet15Pallet$LT$T$GT$16storage_metadata17h9c4bacd8b23e295aE>
 - func[275] size=496 <_ZN11pallet_sudo6pallet1_86_$LT$impl$u20$scale_info..TypeInfo$u20$for$u20$pallet_sudo..pallet..Event$LT$T$GT$$GT$9type_info17h355424c55e7073feE>
 - func[276] size=1147 <_ZN11pallet_sudo6pallet1_98_$LT$impl$u20$parity_scale_codec..codec..Decode$u20$for$u20$pallet_sudo..pallet..Call$LT$T$GT$$GT$6decode17h82c93de81fb0dbd3E>
 - func[277] size=1007 <_ZN4core3ptr80drop_in_place$LT$alloc..boxed..Box$LT$node_template_runtime..RuntimeCall$GT$$GT$17h5538b4edb8cd00f4E>
 - func[278] size=443 <_ZN11pallet_sudo6pallet1_98_$LT$impl$u20$parity_scale_codec..codec..Encode$u20$for$u20$pallet_sudo..pallet..Call$LT$T$GT$$GT$9encode_to17hf68f30bdc3cf69e9E>
 - func[279] size=535 <_ZN11pallet_sudo6pallet1_99_$LT$impl$u20$parity_scale_codec..codec..Encode$u20$for$u20$pallet_sudo..pallet..Event$LT$T$GT$$GT$9encode_to17hc9add6ab3f0490f3E>
 - func[280] size=277 <_ZN13sp_arithmetic10per_things7Percent13from_rational17h0976353a60d7d2e3E>
 - func[281] size=16 <_ZN163_$LT$pallet_sudo..pallet..Pallet$LT$T$GT$$u20$as$u20$frame_support..traits..hooks..OnIdle$LT$$LT$T$u20$as$u20$frame_system..pallet..Config$GT$..BlockNumber$GT$$GT$7on_idle17hfa753ec3a3ecce05E>
 - func[282] size=496 <_ZN19bounded_collections11bounded_vec1_108_$LT$impl$u20$scale_info..TypeInfo$u20$for$u20$bounded_collections..bounded_vec..BoundedVec$LT$T$C$S$GT$$GT$9type_info17h4c27b6d55963cb47E>
 - func[283] size=496 <_ZN19bounded_collections11bounded_vec1_108_$LT$impl$u20$scale_info..TypeInfo$u20$for$u20$bounded_collections..bounded_vec..BoundedVec$LT$T$C$S$GT$$GT$9type_info17h7e13a521e013ac99E>
 - func[284] size=495 <_ZN19bounded_collections11bounded_vec1_108_$LT$impl$u20$scale_info..TypeInfo$u20$for$u20$bounded_collections..bounded_vec..BoundedVec$LT$T$C$S$GT$$GT$9type_info17hfd3dee54f4b88b2bE>
 - func[285] size=519 <_ZN42_$LT$$RF$T$u20$as$u20$core..fmt..Debug$GT$3fmt17h461223056f9a88c7E>
 - func[286] size=609 <_ZN42_$LT$$RF$T$u20$as$u20$core..fmt..Debug$GT$3fmt17h8132ebf943b9d58cE>
 - func[287] size=212 <_ZN42_$LT$$RF$T$u20$as$u20$core..fmt..Debug$GT$3fmt17h83344b0bcecf5a62E>
 - func[288] size=374 <_ZN42_$LT$$RF$T$u20$as$u20$core..fmt..Debug$GT$3fmt17h9b14aa2c65e52cd3E>
 - func[289] size=20 <_ZN42_$LT$$RF$T$u20$as$u20$core..fmt..Debug$GT$3fmt17ha0ab1c76edc08a49E.llvm.2314689094233035969>
 - func[290] size=370 <_ZN42_$LT$$RF$T$u20$as$u20$core..fmt..Debug$GT$3fmt17hd94f9dcaaca9901dE>
 - func[291] size=2 <_ZN4core3ptr28drop_in_place$LT$$RF$str$GT$17hd8bf2e923ada5034E.llvm.2314689094233035969>
 - func[292] size=281 <_ZN55_$LT$X$u20$as$u20$parity_scale_codec..codec..Encode$GT$13using_encoded17h5d9c07a896bf68daE>
 - func[293] size=2477 <_ZN5alloc5slice10merge_sort17hde616fd2d0697673E>
 - func[294] size=311 <_ZN95_$LT$pallet_sudo..pallet..Call$LT$T$GT$$u20$as$u20$frame_support..dispatch..GetDispatchInfo$GT$17get_dispatch_info17h52288317e59ed97eE>
 - func[295] size=772 <_ZN21node_template_runtime6opaque11SessionKeys8generate17hce58381ad4211549E>
 - func[296] size=730 <_ZN21node_template_runtime6opaque11SessionKeys27decode_into_raw_public_keys17hb876ce0a1adca990E>
 - func[297] size=1097 <_ZN18parity_scale_codec5codec6Encode13using_encoded17h801fcea52399b27fE>
 - func[298] size=723 <_ZN21node_template_runtime1_98_$LT$impl$u20$parity_scale_codec..codec..Encode$u20$for$u20$node_template_runtime..RuntimeCall$GT$9encode_to17h96c4d3b1ee984045E>
 - func[299] size=4 <_ZN4core3ops8function2Fn4call17h809592978d1d343aE.llvm.9960300954485291629>
 - func[300] size=4 <_ZN4core3ops8function5FnMut8call_mut17h8e9e4b62a87674e4E.llvm.9960300954485291629>
 - func[301] size=4 <_ZN4core3ops8function6FnOnce40call_once$u7b$$u7b$vtable.shim$u7d$$u7d$17h738cbcabf21f87b5E.llvm.9960300954485291629>
 - func[302] size=4 <_ZN4core3ops8function6FnOnce40call_once$u7b$$u7b$vtable.shim$u7d$$u7d$17h9b5050b15a384180E.llvm.9960300954485291629>
 - func[303] size=2 <_ZN4core3ptr174drop_in_place$LT$$LT$node_template_runtime..RuntimeOrigin$u20$as$u20$core..convert..From$LT$node_template_runtime..OriginCaller$GT$$GT$..from..$u7b$$u7b$closure$u7d$$u7d$$GT$17h4450ab14ab77e630E.llvm.9960300954485291629>
 - func[304] size=846 <_ZN4core3ptr55drop_in_place$LT$node_template_runtime..RuntimeCall$GT$17h1a652cb8af7ee3fdE.llvm.9960300954485291629>
 - func[305] size=1315 <_ZN21node_template_runtime1_98_$LT$impl$u20$parity_scale_codec..codec..Decode$u20$for$u20$node_template_runtime..RuntimeCall$GT$6decode17hd0c4f55e202e8fbaE>
 - func[306] size=340 <_ZN215_$LT$node_template_runtime..RuntimeOrigin$u20$as$u20$core..convert..From$LT$frame_support..dispatch..RawOrigin$LT$$LT$node_template_runtime..Runtime$u20$as$u20$frame_system..pallet..Config$GT$..AccountId$GT$$GT$$GT$4from17h49ae9573e4d52841E>
 - func[307] size=4 <_ZN119_$LT$node_template_runtime..RuntimeOrigin$u20$as$u20$core..convert..From$LT$node_template_runtime..OriginCaller$GT$$GT$4from28_$u7b$$u7b$closure$u7d$$u7d$17h459c50511027ca5fE.llvm.9960300954485291629>
 - func[308] size=20 <_ZN97_$LT$node_template_runtime..PalletInfo$u20$as$u20$frame_support..traits..metadata..PalletInfo$GT$4name17h1f88f077ba79c576E>
 - func[309] size=20 <_ZN97_$LT$node_template_runtime..PalletInfo$u20$as$u20$frame_support..traits..metadata..PalletInfo$GT$4name17h80ad74595934b99eE>
 - func[310] size=214 <_ZN95_$LT$node_template_runtime..RuntimeCall$u20$as$u20$frame_support..dispatch..GetDispatchInfo$GT$17get_dispatch_info17h73c82f218656cc4dE>
 - func[311] size=369 <_ZN87_$LT$node_template_runtime..RuntimeCall$u20$as$u20$sp_runtime..traits..Dispatchable$GT$8dispatch17h1fcc165d6f9ed04aE>
 - func[312] size=1770 <_ZN110_$LT$node_template_runtime..RuntimeCall$u20$as$u20$frame_support..traits..dispatch..UnfilteredDispatchable$GT$22dispatch_bypass_filter17h3fdf7958f2937decE>
 - func[313] size=2791 <_ZN21node_template_runtime7Runtime8metadata17ha07c7d804ae441c1E>
 - func[314] size=238 <_ZN21node_template_runtime1_81_$LT$impl$u20$scale_info..TypeInfo$u20$for$u20$node_template_runtime..Runtime$GT$9type_info17h48fa29a0ce13fee3E>
 - func[315] size=616 <_ZN21node_template_runtime1_99_$LT$impl$u20$parity_scale_codec..codec..Encode$u20$for$u20$node_template_runtime..RuntimeEvent$GT$9encode_to17h2020af706242d897E>
 - func[316] size=457 <_ZN21node_template_runtime1_86_$LT$impl$u20$scale_info..TypeInfo$u20$for$u20$node_template_runtime..RuntimeEvent$GT$9type_info17h22ddd9e9196404d9E>
 - func[317] size=457 <_ZN21node_template_runtime1_85_$LT$impl$u20$scale_info..TypeInfo$u20$for$u20$node_template_runtime..RuntimeCall$GT$9type_info17hff87ea685372bd6fE>
 - func[318] size=559 <_ZN1369_$LT$node_template_runtime..Runtime$u20$as$u20$sp_block_builder..runtime_decl_for_block_builder..BlockBuilderV6$LT$sp_runtime..generic..block..Block$LT$sp_runtime..generic..header..Header$LT$u32$C$sp_runtime..traits..BlakeTwo256$GT$$C$sp_runtime..generic..unchecked_extrinsic..UncheckedExtrinsic$LT$sp_runtime..multiaddress..MultiAddress$LT$$LT$$LT$sp_runtime..MultiSignature$u20$as$u20$sp_runtime..traits..Verify$GT$..Signer$u20$as$u20$sp_runtime..traits..IdentifyAccount$GT$..AccountId$C$$LP$$RP$$GT$$C$node_template_runtime..RuntimeCall$C$sp_runtime..MultiSignature$C$$LP$frame_system..extensions..check_non_zero_sender..CheckNonZeroSender$LT$node_template_runtime..Runtime$GT$$C$frame_system..extensions..check_spec_version..CheckSpecVersion$LT$node_template_runtime..Runtime$GT$$C$frame_system..extensions..check_tx_version..CheckTxVersion$LT$node_template_runtime..Runtime$GT$$C$frame_system..extensions..check_genesis..CheckGenesis$LT$node_template_runtime..Runtime$GT$$C$frame_system..extensions..check_mortality..CheckMortality$LT$node_template_runtime..Runtime$GT$$C$frame_system..extensions..check_nonce..CheckNonce$LT$node_template_runtime..Runtime$GT$$C$frame_system..extensions..check_weight..CheckWeight$LT$node_template_runtime..Runtime$GT$$C$pallet_transaction_payment..ChargeTransactionPayment$LT$node_template_runtime..Runtime$GT$$RP$$GT$$GT$$GT$$GT$15check_inherents17h4ba7a8f595d370e4E>
 - func[319] size=322 <_ZN101_$LT$pallet_balances..imbalances..NegativeImbalance$LT$T$C$I$GT$$u20$as$u20$core..ops..drop..Drop$GT$4drop17h50f83df9af5a7acfE>
 - func[320] size=514 <_ZN10scale_info5impls80_$LT$impl$u20$scale_info..TypeInfo$u20$for$u20$core..option..Option$LT$T$GT$$GT$9type_info17hc132929710f58b2eE>
 - func[321] size=513 <_ZN10scale_info5impls80_$LT$impl$u20$scale_info..TypeInfo$u20$for$u20$core..option..Option$LT$T$GT$$GT$9type_info17hcef7e66449cf2cd0E>
 - func[322] size=999 <_ZN18parity_scale_codec5codec6Encode13using_encoded17h6adf7d48ed9c662bE>
 - func[323] size=791 <_ZN10sp_runtime7generic6header1_120_$LT$impl$u20$parity_scale_codec..codec..Decode$u20$for$u20$sp_runtime..generic..header..Header$LT$Number$C$Hash$GT$$GT$6decode17h21777f51c9442031E>
 - func[324] size=554 <_ZN13frame_support7storage9generator3map10StorageMap21storage_map_final_key17h7fbbab8446d541ffE.llvm.1166637917870734857>
 - func[325] size=479 <_ZN13frame_support7storage9generator3map10StorageMap21storage_map_final_key17h060bd247405995a9E.llvm.1166637917870734857>
 - func[326] size=949 <_ZN13frame_support7storage5types3map81StorageMap$LT$Prefix$C$Hasher$C$Key$C$Value$C$QueryKind$C$OnEmpty$C$MaxValues$GT$17try_mutate_exists17h1f4619255f128a8aE>
 - func[327] size=639 <_ZN13frame_support7storage9generator3map10StorageMap21storage_map_final_key17h7eac9ddf0a688ac3E.llvm.1166637917870734857>
 - func[328] size=764 <_ZN13frame_support7storage5types3map81StorageMap$LT$Prefix$C$Hasher$C$Key$C$Value$C$QueryKind$C$OnEmpty$C$MaxValues$GT$3get17hfeaee37eaf6f6f53E>
 - func[329] size=554 <_ZN13frame_support7storage9generator3map10StorageMap21storage_map_final_key17ha76557e115d3b34dE.llvm.1166637917870734857>
 - func[330] size=806 <_ZN13frame_support7storage5types3map81StorageMap$LT$Prefix$C$Hasher$C$Key$C$Value$C$QueryKind$C$OnEmpty$C$MaxValues$GT$6insert17h6f989df155c92ef7E>
 - func[331] size=393 <_ZN13frame_support7storage5types3map81StorageMap$LT$Prefix$C$Hasher$C$Key$C$Value$C$QueryKind$C$OnEmpty$C$MaxValues$GT$6mutate17h89d568b54bd273a9E>
 - func[332] size=262 <_ZN18parity_scale_codec5codec6Encode6encode17h5e94f9124d997f4cE>
 - func[333] size=930 <_ZN18parity_scale_codec5codec6Encode6encode17h9a52ec66f093eaa9E>
 - func[334] size=350 <_ZN196_$LT$frame_support..storage..types..map..StorageMap$LT$Prefix$C$Hasher$C$Key$C$Value$C$QueryKind$C$OnEmpty$C$MaxValues$GT$$u20$as$u20$frame_support..storage..types..StorageEntryMetadataBuilder$GT$14build_metadata17h04b0931ea2b7b360E>
 - func[335] size=377 <_ZN196_$LT$frame_support..storage..types..map..StorageMap$LT$Prefix$C$Hasher$C$Key$C$Value$C$QueryKind$C$OnEmpty$C$MaxValues$GT$$u20$as$u20$frame_support..storage..types..StorageEntryMetadataBuilder$GT$14build_metadata17h632457328bc683f6E>
 - func[336] size=330 <_ZN196_$LT$frame_support..storage..types..map..StorageMap$LT$Prefix$C$Hasher$C$Key$C$Value$C$QueryKind$C$OnEmpty$C$MaxValues$GT$$u20$as$u20$frame_support..storage..types..StorageEntryMetadataBuilder$GT$14build_metadata17h709b34e772111879E>
 - func[337] size=376 <_ZN196_$LT$frame_support..storage..types..map..StorageMap$LT$Prefix$C$Hasher$C$Key$C$Value$C$QueryKind$C$OnEmpty$C$MaxValues$GT$$u20$as$u20$frame_support..storage..types..StorageEntryMetadataBuilder$GT$14build_metadata17h925420acbbc33229E>
 - func[338] size=500 <_ZN196_$LT$frame_support..storage..types..map..StorageMap$LT$Prefix$C$Hasher$C$Key$C$Value$C$QueryKind$C$OnEmpty$C$MaxValues$GT$$u20$as$u20$frame_support..storage..types..StorageEntryMetadataBuilder$GT$14build_metadata17ha94987e724919600E>
 - func[339] size=339 <_ZN196_$LT$frame_support..storage..types..map..StorageMap$LT$Prefix$C$Hasher$C$Key$C$Value$C$QueryKind$C$OnEmpty$C$MaxValues$GT$$u20$as$u20$frame_support..storage..types..StorageEntryMetadataBuilder$GT$14build_metadata17hf57309e8ef70b36bE>
 - func[340] size=226 <_ZN83_$LT$core..option..Option$LT$T$GT$$u20$as$u20$parity_scale_codec..codec..Encode$GT$9encode_to17h9ebddb9303f71d27E>
 - func[341] size=277 <_ZN83_$LT$core..option..Option$LT$T$GT$$u20$as$u20$parity_scale_codec..codec..Encode$GT$9encode_to17he355f2e03aa83828E>
 - func[342] size=496 <_ZN10pallet_poe6pallet1_84_$LT$impl$u20$scale_info..TypeInfo$u20$for$u20$pallet_poe..pallet..Call$LT$T$GT$$GT$9type_info17h4ffc6d0714c4621bE>
 - func[343] size=1046 <_ZN10pallet_poe6pallet1_85_$LT$impl$u20$scale_info..TypeInfo$u20$for$u20$pallet_poe..pallet..Error$LT$T$GT$$GT$9type_info17h82ec1927457989d3E>
 - func[344] size=496 <_ZN10pallet_poe6pallet1_85_$LT$impl$u20$scale_info..TypeInfo$u20$for$u20$pallet_poe..pallet..Event$LT$T$GT$$GT$9type_info17h8b211a93efb4b869E>
 - func[345] size=583 <_ZN10pallet_poe6pallet1_97_$LT$impl$u20$parity_scale_codec..codec..Decode$u20$for$u20$pallet_poe..pallet..Call$LT$T$GT$$GT$6decode17hd813eef04ecda87cE>
 - func[346] size=683 <_ZN10pallet_poe6pallet1_97_$LT$impl$u20$parity_scale_codec..codec..Encode$u20$for$u20$pallet_poe..pallet..Call$LT$T$GT$$GT$9encode_to17h1204409d25d3d3b1E>
 - func[347] size=396 <_ZN10pallet_poe6pallet1_98_$LT$impl$u20$parity_scale_codec..codec..Encode$u20$for$u20$pallet_poe..pallet..Event$LT$T$GT$$GT$9encode_to17hcc8c23d6be85f5eeE>
 - func[348] size=812 <_ZN15pallet_balances1_94_$LT$impl$u20$scale_info..TypeInfo$u20$for$u20$pallet_balances..BalanceLock$LT$Balance$GT$$GT$9type_info17he477f0d13c39344eE>
 - func[349] size=178 <_ZN10scale_info5impls64_$LT$impl$u20$scale_info..TypeInfo$u20$for$u20$$LP$A$C$B$RP$$GT$9type_info17hfaa16196c12d7495E>
 - func[350] size=696 <_ZN15pallet_balances1_114_$LT$impl$u20$scale_info..TypeInfo$u20$for$u20$pallet_balances..ReserveData$LT$ReserveIdentifier$C$Balance$GT$$GT$9type_info17h60df027d7aeb802eE>
 - func[351] size=468 <_ZN10scale_info5impls84_$LT$impl$u20$scale_info..TypeInfo$u20$for$u20$core..result..Result$LT$T$C$E$GT$$GT$9type_info17habb519cd1348a101E>
 - func[352] size=310 <_ZN12frame_system10extensions13check_genesis1_113_$LT$impl$u20$scale_info..TypeInfo$u20$for$u20$frame_system..extensions..check_genesis..CheckGenesis$LT$T$GT$$GT$9type_info17h73cab2889fb2c257E>
 - func[353] size=310 <_ZN12frame_system10extensions16check_tx_version1_118_$LT$impl$u20$scale_info..TypeInfo$u20$for$u20$frame_system..extensions..check_tx_version..CheckTxVersion$LT$T$GT$$GT$9type_info17h280c95ee76230e9cE>
 - func[354] size=446 <_ZN12frame_system10extensions11check_nonce1_109_$LT$impl$u20$scale_info..TypeInfo$u20$for$u20$frame_system..extensions..check_nonce..CheckNonce$LT$T$GT$$GT$9type_info17hdfb548a9fe01db0aE>
 - func[355] size=446 <_ZN26pallet_transaction_payment1_112_$LT$impl$u20$scale_info..TypeInfo$u20$for$u20$pallet_transaction_payment..ChargeTransactionPayment$LT$T$GT$$GT$9type_info17hc283b643e77d466bE>
 - func[356] size=310 <_ZN12frame_system10extensions18check_spec_version1_122_$LT$impl$u20$scale_info..TypeInfo$u20$for$u20$frame_system..extensions..check_spec_version..CheckSpecVersion$LT$T$GT$$GT$9type_info17hbd53065b5c4d64cbE>
 - func[357] size=762 <_ZN114_$LT$frame_system..extensions..check_nonce..CheckNonce$LT$T$GT$$u20$as$u20$sp_runtime..traits..SignedExtension$GT$12pre_dispatch17h37cc8e247b24de3eE>
 - func[358] size=752 <_ZN114_$LT$frame_system..extensions..check_nonce..CheckNonce$LT$T$GT$$u20$as$u20$sp_runtime..traits..SignedExtension$GT$8validate17hb0e8fa02f23967fdE>
 - func[359] size=512 <_ZN117_$LT$pallet_transaction_payment..ChargeTransactionPayment$LT$T$GT$$u20$as$u20$sp_runtime..traits..SignedExtension$GT$12pre_dispatch17h9478ffc89a3be63cE>
 - func[360] size=787 <_ZN117_$LT$pallet_transaction_payment..ChargeTransactionPayment$LT$T$GT$$u20$as$u20$sp_runtime..traits..SignedExtension$GT$13post_dispatch17h08060d1cf0e795ddE>
 - func[361] size=1380 <_ZN117_$LT$pallet_transaction_payment..ChargeTransactionPayment$LT$T$GT$$u20$as$u20$sp_runtime..traits..SignedExtension$GT$8validate17he613381adac6e1ceE>
 - func[362] size=671 <_ZN11pallet_aura6pallet15Pallet$LT$T$GT$16storage_metadata17h5dfb78a143349033E>
 - func[363] size=206 <_ZN13frame_support8dispatch1_101_$LT$impl$u20$parity_scale_codec..codec..Encode$u20$for$u20$frame_support..dispatch..DispatchInfo$GT$9encode_to17h817178069d65ca17E>
 - func[364] size=815 <_ZN13frame_support8dispatch1_101_$LT$impl$u20$scale_info..TypeInfo$u20$for$u20$frame_support..dispatch..PerDispatchClass$LT$T$GT$$GT$9type_info17hfd417b4946c1496aE>
 - func[365] size=278 <_ZN13frame_support8dispatch1_114_$LT$impl$u20$parity_scale_codec..codec..Decode$u20$for$u20$frame_support..dispatch..PerDispatchClass$LT$T$GT$$GT$6decode17hac666280addca3ebE>
 - func[366] size=295 <_ZN13frame_support8dispatch1_114_$LT$impl$u20$parity_scale_codec..codec..Encode$u20$for$u20$frame_support..dispatch..PerDispatchClass$LT$T$GT$$GT$9encode_to17hef3606b5716f05baE>
 - func[367] size=624 <_ZN143_$LT$sp_runtime..generic..unchecked_extrinsic..UncheckedExtrinsic$LT$Address$C$Call$C$Signature$C$Extra$GT$$u20$as$u20$scale_info..TypeInfo$GT$9type_info17h08775cd9eb5bef5bE>
 - func[368] size=1010 <_ZN14pallet_grandpa1_103_$LT$impl$u20$scale_info..TypeInfo$u20$for$u20$pallet_grandpa..StoredPendingChange$LT$N$C$Limit$GT$$GT$9type_info17had3c5d5adee012afE>
 - func[369] size=677 <_ZN14pallet_grandpa1_87_$LT$impl$u20$scale_info..TypeInfo$u20$for$u20$pallet_grandpa..StoredState$LT$N$GT$$GT$9type_info17h81144a81f9790aa6E>
 - func[370] size=905 <_ZN156_$LT$sp_runtime..generic..unchecked_extrinsic..UncheckedExtrinsic$LT$Address$C$Call$C$Signature$C$Extra$GT$$u20$as$u20$parity_scale_codec..codec..Decode$GT$6decode17ha5e77d2b677516a1E>
 - func[371] size=846 <_ZN4core3ptr55drop_in_place$LT$node_template_runtime..RuntimeCall$GT$17h1a652cb8af7ee3fdE.llvm.7247773951996875002>
 - func[372] size=456 <_ZN156_$LT$sp_runtime..generic..unchecked_extrinsic..UncheckedExtrinsic$LT$Address$C$Call$C$Signature$C$Extra$GT$$u20$as$u20$parity_scale_codec..codec..Encode$GT$6encode17h2bc651c2e4071776E>
 - func[373] size=373 <_ZN15pallet_balances1_107_$LT$impl$u20$parity_scale_codec..codec..Encode$u20$for$u20$pallet_balances..AccountData$LT$Balance$GT$$GT$9encode_to17h3d40ff629d7b9161E>
 - func[374] size=979 <_ZN15pallet_balances1_94_$LT$impl$u20$scale_info..TypeInfo$u20$for$u20$pallet_balances..AccountData$LT$Balance$GT$$GT$9type_info17hd08f5992de5c0636E>
 - func[375] size=16 <_ZN162_$LT$pallet_poe..pallet..Pallet$LT$T$GT$$u20$as$u20$frame_support..traits..hooks..OnIdle$LT$$LT$T$u20$as$u20$frame_system..pallet..Config$GT$..BlockNumber$GT$$GT$7on_idle17h66c07bc9811c1725E>
 - func[376] size=1182 <_ZN166_$LT$sp_runtime..generic..unchecked_extrinsic..UncheckedExtrinsic$LT$Address$C$Call$C$Signature$C$Extra$GT$$u20$as$u20$sp_runtime..traits..Checkable$LT$Lookup$GT$$GT$5check17hd2f081410eb268afE>
 - func[377] size=873 <_ZN169_$LT$pallet_aura..pallet..Pallet$LT$T$GT$$u20$as$u20$frame_support..traits..hooks..OnInitialize$LT$$LT$T$u20$as$u20$frame_system..pallet..Config$GT$..BlockNumber$GT$$GT$13on_initialize17h3294d6a450e2a04fE>
 - func[378] size=609 <_ZN18parity_scale_codec5codec16inner_tuple_impl109_$LT$impl$u20$parity_scale_codec..codec..Encode$u20$for$u20$$LP$K0$C$L0$C$M0$C$N0$C$O0$C$P0$C$Q0$C$R0$RP$$GT$9encode_to17haf63059b052e29f1E>
 - func[379] size=509 <_ZN18parity_scale_codec5codec6Encode6encode17h31d7b7bf3a004eb3E>
 - func[380] size=247 <_ZN18parity_scale_codec5codec6Encode13using_encoded17hf00447839a67a170E>
 - func[381] size=382 <_ZN18parity_scale_codec5codec6Encode6encode17h2950dd20a8c1c42dE>
 - func[382] size=372 <_ZN18parity_scale_codec5codec6Encode6encode17h6ab6855639ced3c1E>
 - func[383] size=289 <_ZN18parity_scale_codec5codec6Encode6encode17ha7a96f51fa4a478dE>
 - func[384] size=261 <_ZN18parity_scale_codec5codec6Encode6encode17hbdb97dd2822f7547E>
 - func[385] size=2 <_ZN4core3ptr27drop_in_place$LT$$RF$u8$GT$17h66785c9f884b0a05E.llvm.7247773951996875002>
 - func[386] size=254 <_ZN55_$LT$X$u20$as$u20$parity_scale_codec..codec..Encode$GT$13using_encoded17h06cefc5fb5d135fbE>
 - func[387] size=488 <_ZN66_$LT$T$u20$as$u20$parity_scale_codec..depth_limit..DecodeLimit$GT$27decode_all_with_depth_limit17hb4507d1e3f7683a4E>
 - func[388] size=378 <_ZN85_$LT$sp_inherents..InherentData$u20$as$u20$node_template_runtime..InherentDataExt$GT$16check_extrinsics17h0739650e378114f3E>
 - func[389] size=469 <_ZN10pallet_poe6pallet117_$LT$impl$u20$core..convert..From$LT$pallet_poe..pallet..Error$LT$T$GT$$GT$$u20$for$u20$sp_runtime..DispatchError$GT$4from17h0999a131287e60afE>
 - func[390] size=548 <_ZN10sp_runtime12multiaddress1_121_$LT$impl$u20$scale_info..TypeInfo$u20$for$u20$sp_runtime..multiaddress..MultiAddress$LT$AccountId$C$AccountIndex$GT$$GT$9type_info17hd1edd4b78f061857E>
 - func[391] size=605 <_ZN10sp_runtime12multiaddress1_134_$LT$impl$u20$parity_scale_codec..codec..Decode$u20$for$u20$sp_runtime..multiaddress..MultiAddress$LT$AccountId$C$AccountIndex$GT$$GT$6decode17h51e7818f9282379aE>
 - func[392] size=851 <_ZN10sp_runtime12multiaddress1_134_$LT$impl$u20$parity_scale_codec..codec..Encode$u20$for$u20$sp_runtime..multiaddress..MultiAddress$LT$AccountId$C$AccountIndex$GT$$GT$9encode_to17h0f327c2b8e3c7aadE>
 - func[393] size=1209 <_ZN10sp_runtime1_89_$LT$impl$u20$parity_scale_codec..codec..Encode$u20$for$u20$sp_runtime..DispatchError$GT$9encode_to17h37de12ac0d7f6b4cE>
 - func[394] size=630 <_ZN10sp_runtime20transaction_validity1_114_$LT$impl$u20$parity_scale_codec..codec..Encode$u20$for$u20$sp_runtime..transaction_validity..ValidTransaction$GT$9encode_to17hda26007a3c1fb407E>
 - func[395] size=643 <_ZN10sp_runtime20transaction_validity1_122_$LT$impl$u20$parity_scale_codec..codec..Encode$u20$for$u20$sp_runtime..transaction_validity..TransactionValidityError$GT$9encode_to17he8fbf07e7c054a34E>
 - func[396] size=446 <_ZN12frame_system10extensions15check_mortality1_117_$LT$impl$u20$scale_info..TypeInfo$u20$for$u20$frame_system..extensions..check_mortality..CheckMortality$LT$T$GT$$GT$9type_info17hfc8152590038d071E>
 - func[397] size=627 <_ZN10sp_runtime7generic5block1_123_$LT$impl$u20$parity_scale_codec..codec..Decode$u20$for$u20$sp_runtime..generic..block..Block$LT$Header$C$Extrinsic$GT$$GT$6decode17h734764eab75c1041E.llvm.3307198572981677325>
 - func[398] size=415 <_ZN11pallet_sudo6pallet118_$LT$impl$u20$core..convert..From$LT$pallet_sudo..pallet..Error$LT$T$GT$$GT$$u20$for$u20$sp_runtime..DispatchError$GT$4from17hf9bbbc25b4e2a22aE>
 - func[399] size=533 <_ZN122_$LT$frame_system..extensions..check_mortality..CheckMortality$LT$T$GT$$u20$as$u20$sp_runtime..traits..SignedExtension$GT$17additional_signed17h00685ae31bd1caf5E>
 - func[400] size=469 <_ZN12frame_system6pallet119_$LT$impl$u20$core..convert..From$LT$frame_system..pallet..Error$LT$T$GT$$GT$$u20$for$u20$sp_runtime..DispatchError$GT$4from17hc04b03e4a2304fe7E>
 - func[401] size=1083 <_ZN13frame_support7storage13transactional18with_storage_layer17h0868385d72c9ed8fE>
 - func[402] size=2131 <_ZN13frame_support7storage13transactional18with_storage_layer17h0a7a3617a8a04549E>
 - func[403] size=520 <_ZN4core3ptr80drop_in_place$LT$alloc..boxed..Box$LT$node_template_runtime..RuntimeCall$GT$$GT$17h5538b4edb8cd00f4E.llvm.3307198572981677325>
 - func[404] size=1275 <_ZN13frame_support7storage13transactional18with_storage_layer17h0c53bb77cd6d1270E>
 - func[405] size=2231 <_ZN13frame_support7storage13transactional18with_storage_layer17h24a4a7215861a38fE>
 - func[406] size=1176 <_ZN13frame_support7storage13transactional18with_storage_layer17h31316f83472d384cE>
 - func[407] size=2262 <_ZN13frame_support7storage13transactional18with_storage_layer17h3c555a5134b14d2aE>
 - func[408] size=1118 <_ZN13frame_support7storage13transactional18with_storage_layer17h3f6e175f591a69d7E>
 - func[409] size=1303 <_ZN13frame_support7storage13transactional18with_storage_layer17h410e98e66b9d0ce4E>
 - func[410] size=1461 <_ZN13frame_support7storage13transactional18with_storage_layer17h52371e344aa89fe3E>
 - func[411] size=825 <_ZN13frame_support7storage13transactional18with_storage_layer17h56b65708606826fbE>
 - func[412] size=2122 <_ZN13frame_support7storage13transactional18with_storage_layer17h5fef495689e8c833E>
 - func[413] size=1211 <_ZN13frame_support7storage13transactional18with_storage_layer17h61a5e76cd380afa2E>
 - func[414] size=981 <_ZN13frame_support7storage13transactional18with_storage_layer17h633825f8fdaa8adcE>
 - func[415] size=1949 <_ZN13frame_support7storage13transactional18with_storage_layer17h72320d69c669ebf3E>
 - func[416] size=1500 <_ZN13frame_support7storage13transactional18with_storage_layer17h8d14fefe235109f1E>
 - func[417] size=1180 <_ZN13frame_support7storage13transactional18with_storage_layer17h9d534ae21c367c96E>
 - func[418] size=445 <_ZN15pallet_template6pallet122_$LT$impl$u20$core..convert..From$LT$pallet_template..pallet..Error$LT$T$GT$$GT$$u20$for$u20$sp_runtime..DispatchError$GT$4from17h126319474ccac44fE>
 - func[419] size=1082 <_ZN13frame_support7storage13transactional18with_storage_layer17hab57b2035bcba907E>
 - func[420] size=1303 <_ZN13frame_support7storage13transactional18with_storage_layer17hac48d3e2f4be854aE>
 - func[421] size=1110 <_ZN13frame_support7storage13transactional18with_storage_layer17hcc2067ea6a79c040E>
 - func[422] size=2373 <_ZN13frame_support7storage13transactional18with_storage_layer17hda81a78088ee54fbE>
 - func[423] size=1039 <_ZN13frame_support7storage13transactional18with_storage_layer17he23bf0df2053969aE>
 - func[424] size=1045 <_ZN13frame_support7storage13transactional18with_storage_layer17hf6c6f836fa169d31E>
 - func[425] size=2605 <_ZN13frame_support7storage13transactional18with_storage_layer17hfd453539fb9c3f71E>
 - func[426] size=792 <_ZN14pallet_grandpa6pallet15Pallet$LT$T$GT$12note_stalled17h8718d5a607dc506eE>
 - func[427] size=496 <_ZN14pallet_grandpa6pallet1_88_$LT$impl$u20$scale_info..TypeInfo$u20$for$u20$pallet_grandpa..pallet..Call$LT$T$GT$$GT$9type_info17hee05a610c0e2cc9eE>
 - func[428] size=1758 <_ZN14pallet_grandpa6pallet1_89_$LT$impl$u20$scale_info..TypeInfo$u20$for$u20$pallet_grandpa..pallet..Error$LT$T$GT$$GT$9type_info17h826fe84a47105598E>
 - func[429] size=1722 <_ZN14pallet_grandpa6pallet15Pallet$LT$T$GT$16storage_metadata17h602da9fb1a8ff7a1E>
 - func[430] size=562 <_ZN14pallet_grandpa6pallet15Pallet$LT$T$GT$25pallet_constants_metadata17h4d2838a12a410c88E>
 - func[431] size=393 <_ZN14pallet_grandpa6pallet1_101_$LT$impl$u20$parity_scale_codec..codec..Decode$u20$for$u20$pallet_grandpa..pallet..Call$LT$T$GT$$GT$6decode17h04c2fbd4c1cf7e39E>
 - func[432] size=207 <_ZN14pallet_grandpa6pallet1_101_$LT$impl$u20$parity_scale_codec..codec..Encode$u20$for$u20$pallet_grandpa..pallet..Call$LT$T$GT$$GT$9encode_to17hff63e2e21dee4a91E>
 - func[433] size=232 <_ZN14pallet_grandpa6pallet1_93_$LT$impl$u20$parity_scale_codec..codec..Encode$u20$for$u20$pallet_grandpa..pallet..Event$GT$9encode_to17h2a411a21c7c2f1ceE>
 - func[434] size=2810 <_ZN15frame_executive104Executive$LT$System$C$Block$C$Context$C$UnsignedValidator$C$AllPalletsWithSystem$C$COnRuntimeUpgrade$GT$13execute_block17h2bb064922718a508E>
 - func[435] size=1373 <_ZN15frame_executive104Executive$LT$System$C$Block$C$Context$C$UnsignedValidator$C$AllPalletsWithSystem$C$COnRuntimeUpgrade$GT$16initialize_block17hdd11b5fa0ee57ea4E>
 - func[436] size=1245 <_ZN15frame_executive104Executive$LT$System$C$Block$C$Context$C$UnsignedValidator$C$AllPalletsWithSystem$C$COnRuntimeUpgrade$GT$15apply_extrinsic17h4357386cebfa0d37E>
 - func[437] size=607 <_ZN15frame_executive104Executive$LT$System$C$Block$C$Context$C$UnsignedValidator$C$AllPalletsWithSystem$C$COnRuntimeUpgrade$GT$22idle_and_finalize_hook17hea56de7e09d37ec3E.llvm.3307198572981677325>
 - func[438] size=118 <_ZN50_$LT$T$u20$as$u20$core..convert..Into$LT$U$GT$$GT$4into17h6cf1909587180d0dE>
 - func[439] size=102 <_ZN4core9panicking13panic_display17hd79cb534dbf6058fE>
 - func[440] size=141 <_ZN15frame_executive104Executive$LT$System$C$Block$C$Context$C$UnsignedValidator$C$AllPalletsWithSystem$C$COnRuntimeUpgrade$GT$14finalize_block17h04b0eab124af296eE>
 - func[441] size=446 <_ZN15frame_executive104Executive$LT$System$C$Block$C$Context$C$UnsignedValidator$C$AllPalletsWithSystem$C$COnRuntimeUpgrade$GT$15offchain_worker17hdac9fa2d63a738d7E>
 - func[442] size=2128 <_ZN15frame_executive104Executive$LT$System$C$Block$C$Context$C$UnsignedValidator$C$AllPalletsWithSystem$C$COnRuntimeUpgrade$GT$20validate_transaction17hf965f5a16fc3e51eE>
 - func[443] size=496 <_ZN4core3ptr85drop_in_place$LT$frame_system..pallet..Call$LT$node_template_runtime..Runtime$GT$$GT$17hc1388f8efd1102c7E.llvm.3307198572981677325>
 - func[444] size=3699 <_ZN170_$LT$pallet_grandpa..pallet..Pallet$LT$T$GT$$u20$as$u20$frame_support..traits..hooks..OnFinalize$LT$$LT$T$u20$as$u20$frame_system..pallet..Config$GT$..BlockNumber$GT$$GT$11on_finalize17h02ffd2e12c3fe798E>
 - func[445] size=464 <_ZN15pallet_balances6pallet126_$LT$impl$u20$core..convert..From$LT$pallet_balances..pallet..Error$LT$T$C$I$GT$$GT$$u20$for$u20$sp_runtime..DispatchError$GT$4from17h88398d88277c3b54E>
 - func[446] size=16 <_ZN166_$LT$pallet_grandpa..pallet..Pallet$LT$T$GT$$u20$as$u20$frame_support..traits..hooks..OnIdle$LT$$LT$T$u20$as$u20$frame_system..pallet..Config$GT$..BlockNumber$GT$$GT$7on_idle17h583664b44404c2caE>
 - func[447] size=1081 <_ZN18parity_scale_codec5codec16inner_tuple_impl84_$LT$impl$u20$parity_scale_codec..codec..Decode$u20$for$u20$$LP$P0$C$Q0$C$R0$RP$$GT$6decode17hc77124852fc3167fE>
 - func[448] size=688 <_ZN18parity_scale_codec5codec16inner_tuple_impl84_$LT$impl$u20$parity_scale_codec..codec..Encode$u20$for$u20$$LP$P0$C$Q0$C$R0$RP$$GT$9encode_to17hecb49fc1263f9d4eE>
 - func[449] size=732 <_ZN18parity_scale_codec5codec6Encode6encode17h235f335602bef0ffE>
 - func[450] size=30 <_ZN42_$LT$$RF$T$u20$as$u20$core..fmt..Debug$GT$3fmt17hf3f2abbd85e6e120E>
 - func[451] size=550 <_ZN4core3ptr1025drop_in_place$LT$sp_runtime..generic..unchecked_extrinsic..UncheckedExtrinsic$LT$sp_runtime..multiaddress..MultiAddress$LT$sp_core..crypto..AccountId32$C$$LP$$RP$$GT$$C$node_template_runtime..RuntimeCall$C$sp_runtime..MultiSignature$C$$LP$frame_system..extensions..check_non_zero_sender..CheckNonZeroSender$LT$node_template_runtime..Runtime$GT$$C$frame_system..extensions..check_spec_version..CheckSpecVersion$LT$node_template_runtime..Runtime$GT$$C$frame_system..extensions..check_tx_version..CheckTxVersion$LT$node_template_runtime..Runtime$GT$$C$frame_system..extensions..check_genesis..CheckGenesis$LT$node_template_runtime..Runtime$GT$$C$frame_system..extensions..check_mortality..CheckMortality$LT$node_template_runtime..Runtime$GT$$C$frame_system..extensions..check_nonce..CheckNonce$LT$node_template_runtime..Runtime$GT$$C$frame_system..extensions..check_weight..CheckWeight$LT$node_template_runtime..Runtime$GT$$C$pallet_transaction_payment..ChargeTransactionPayment$LT$node_template_runtime..Runtime$GT$$RP$$GT$$GT$17h8c78544513789368E.llvm.3307198572981677325>
 - func[452] size=37 <_ZN4core3ptr46drop_in_place$LT$alloc..vec..Vec$LT$u8$GT$$GT$17h843db23956c47db8E.llvm.3307198572981677325>
 - func[453] size=1446 <_ZN66_$LT$T$u20$as$u20$parity_scale_codec..depth_limit..DecodeLimit$GT$27decode_all_with_depth_limit17h28fd8bf5547add85E>
 - func[454] size=718 <_ZN66_$LT$T$u20$as$u20$parity_scale_codec..depth_limit..DecodeLimit$GT$27decode_all_with_depth_limit17h8674561c3df1cf52E>
 - func[455] size=596 <_ZN66_$LT$T$u20$as$u20$parity_scale_codec..depth_limit..DecodeLimit$GT$27decode_all_with_depth_limit17h9120fd8c32d36fb5E>
 - func[456] size=798 <_ZN80_$LT$sp_version..RuntimeVersion$u20$as$u20$parity_scale_codec..codec..Decode$GT$6decode17hc5cd82755fa0b00dE>
 - func[457] size=178 <_ZN10scale_info5impls64_$LT$impl$u20$scale_info..TypeInfo$u20$for$u20$$LP$A$C$B$RP$$GT$9type_info17hc68b93e3f9a4c191E>
 - func[458] size=91 <_ZN10scale_info5impls75_$LT$impl$u20$scale_info..TypeInfo$u20$for$u20$alloc..vec..Vec$LT$T$GT$$GT$9type_info17h3590b34cc35955e5E>
 - func[459] size=91 <_ZN10scale_info5impls75_$LT$impl$u20$scale_info..TypeInfo$u20$for$u20$alloc..vec..Vec$LT$T$GT$$GT$9type_info17h01bd8a4ee56be878E>
 - func[460] size=91 <_ZN10scale_info5impls75_$LT$impl$u20$scale_info..TypeInfo$u20$for$u20$alloc..vec..Vec$LT$T$GT$$GT$9type_info17h05f2e2ea4802f26bE>
 - func[461] size=91 <_ZN10scale_info5impls75_$LT$impl$u20$scale_info..TypeInfo$u20$for$u20$alloc..vec..Vec$LT$T$GT$$GT$9type_info17h154ddf6ca4af8779E>
 - func[462] size=91 <_ZN10scale_info5impls75_$LT$impl$u20$scale_info..TypeInfo$u20$for$u20$alloc..vec..Vec$LT$T$GT$$GT$9type_info17h16616dd981178087E>
 - func[463] size=90 <_ZN10scale_info5impls75_$LT$impl$u20$scale_info..TypeInfo$u20$for$u20$alloc..vec..Vec$LT$T$GT$$GT$9type_info17hb1b457869876c2f4E>
 - func[464] size=90 <_ZN10scale_info5impls75_$LT$impl$u20$scale_info..TypeInfo$u20$for$u20$alloc..vec..Vec$LT$T$GT$$GT$9type_info17hbc60590d8d29936cE>
 - func[465] size=91 <_ZN10scale_info5impls75_$LT$impl$u20$scale_info..TypeInfo$u20$for$u20$alloc..vec..Vec$LT$T$GT$$GT$9type_info17hd72aa60f568ccf0cE>
 - func[466] size=90 <_ZN10scale_info5impls75_$LT$impl$u20$scale_info..TypeInfo$u20$for$u20$alloc..vec..Vec$LT$T$GT$$GT$9type_info17hdd6ce63adc41aaf2E>
 - func[467] size=90 <_ZN10scale_info5impls75_$LT$impl$u20$scale_info..TypeInfo$u20$for$u20$alloc..vec..Vec$LT$T$GT$$GT$9type_info17hf6a1bb1b7c7834f7E>
 - func[468] size=299 <_ZN137_$LT$alloc..vec..Vec$LT$T$GT$$u20$as$u20$alloc..vec..spec_from_iter..SpecFromIter$LT$T$C$alloc..vec..into_iter..IntoIter$LT$T$GT$$GT$$GT$9from_iter17hc356c49e3304f2e2E>
 - func[469] size=299 <_ZN137_$LT$alloc..vec..Vec$LT$T$GT$$u20$as$u20$alloc..vec..spec_from_iter..SpecFromIter$LT$T$C$alloc..vec..into_iter..IntoIter$LT$T$GT$$GT$$GT$9from_iter17hfe8f9a98f95479adE>
 - func[470] size=510 <_ZN18parity_scale_codec5codec16inner_tuple_impl79_$LT$impl$u20$parity_scale_codec..codec..Decode$u20$for$u20$$LP$Q0$C$R0$RP$$GT$6decode17h1afdfbf570ebb8afE>
 - func[471] size=340 <_ZN18parity_scale_codec5codec16inner_tuple_impl79_$LT$impl$u20$parity_scale_codec..codec..Decode$u20$for$u20$$LP$Q0$C$R0$RP$$GT$6decode17hcb008403b47c6af3E>
 - func[472] size=246 <_ZN18parity_scale_codec5codec16inner_tuple_impl79_$LT$impl$u20$parity_scale_codec..codec..Encode$u20$for$u20$$LP$Q0$C$R0$RP$$GT$9encode_to17h7fb116f6fcced552E>
 - func[473] size=471 <_ZN18parity_scale_codec5codec6Encode13using_encoded17h42fafb5aee58cb54E>
 - func[474] size=951 <_ZN4core3ptr55drop_in_place$LT$node_template_runtime..RuntimeCall$GT$17h1a652cb8af7ee3fdE.llvm.602467795807004753>
 - func[475] size=236 <_ZN55_$LT$X$u20$as$u20$parity_scale_codec..codec..Encode$GT$6encode17h4e6dce4d36b77f69E>
 - func[476] size=277 <_ZN55_$LT$X$u20$as$u20$parity_scale_codec..codec..Encode$GT$9encode_to17h40524c738b339c63E>
 - func[477] size=307 <_ZN55_$LT$X$u20$as$u20$parity_scale_codec..codec..Encode$GT$9encode_to17hc45fd244d501c952E>
 - func[478] size=218 <_ZN65_$LT$alloc..vec..Vec$LT$T$C$A$GT$$u20$as$u20$core..fmt..Debug$GT$3fmt17hfdc2083485896fddE>
 - func[479] size=811 <_ZN67_$LT$alloc..vec..Vec$LT$T$C$A$GT$$u20$as$u20$core..clone..Clone$GT$5clone17hc490a10cd8a46655E>
 - func[480] size=328 <_ZN70_$LT$alloc..vec..Vec$LT$T$C$A$GT$$u20$as$u20$core..ops..drop..Drop$GT$4drop17h0f7c2d60261ef7dfE>
 - func[481] size=120 <_ZN70_$LT$alloc..vec..Vec$LT$T$C$A$GT$$u20$as$u20$core..ops..drop..Drop$GT$4drop17h3e1d63ad3113d755E>
 - func[482] size=511 <_ZN98_$LT$alloc..vec..Vec$LT$T$GT$$u20$as$u20$alloc..vec..spec_from_iter..SpecFromIter$LT$T$C$I$GT$$GT$9from_iter17h65bc064adb7e6ec5E>
 - func[483] size=389 <_ZN98_$LT$alloc..vec..Vec$LT$T$GT$$u20$as$u20$alloc..vec..spec_from_iter..SpecFromIter$LT$T$C$I$GT$$GT$9from_iter17hda4fe466356e0d20E>
 - func[484] size=384 <_ZN10scale_info5build17Variants$LT$F$GT$7variant17h07a281ace06aefb5E>
 - func[485] size=566 <_ZN10scale_info5build17Variants$LT$F$GT$7variant17h0967e9e3b9995a6bE>
 - func[486] size=315 <_ZN10scale_info5build17Variants$LT$F$GT$7variant17h0aaa73636e15d21dE>
 - func[487] size=317 <_ZN10scale_info5build17Variants$LT$F$GT$7variant17h0c3874839ac5fe1fE>
 - func[488] size=575 <_ZN10scale_info5build17Variants$LT$F$GT$7variant17h0e970f9a95173d2eE>
 - func[489] size=608 <_ZN10scale_info5build17Variants$LT$F$GT$7variant17h0efe198c11a9daf8E>
 - func[490] size=316 <_ZN10scale_info5build17Variants$LT$F$GT$7variant17h15c88685c154a180E>
 - func[491] size=434 <_ZN10scale_info5build17Variants$LT$F$GT$7variant17h168378171b458ed6E>
 - func[492] size=317 <_ZN10scale_info5build17Variants$LT$F$GT$7variant17h168c0b68cef4239bE>
 - func[493] size=315 <_ZN10scale_info5build17Variants$LT$F$GT$7variant17h1831161c96d1b85aE>
 - func[494] size=486 <_ZN10scale_info5build17Variants$LT$F$GT$7variant17h1980cc5b469ab79bE>
 - func[495] size=434 <_ZN10scale_info5build17Variants$LT$F$GT$7variant17h19c684e7ebdef932E>
 - func[496] size=317 <_ZN10scale_info5build17Variants$LT$F$GT$7variant17h23d4b0a4557456fdE>
 - func[497] size=434 <_ZN10scale_info5build17Variants$LT$F$GT$7variant17h2cbe79413579e15cE>
 - func[498] size=391 <_ZN10scale_info5build17Variants$LT$F$GT$7variant17h2f2eab4eaa2fed69E>
 - func[499] size=316 <_ZN10scale_info5build17Variants$LT$F$GT$7variant17h304a1daba90ca8e1E>
 - func[500] size=558 <_ZN10scale_info5build17Variants$LT$F$GT$7variant17h32183b1f9437a424E>
 - func[501] size=479 <_ZN10scale_info5build17Variants$LT$F$GT$7variant17h34609ced804b33f4E>
 - func[502] size=315 <_ZN10scale_info5build17Variants$LT$F$GT$7variant17h35ea005a4a84378aE>
 - func[503] size=566 <_ZN10scale_info5build17Variants$LT$F$GT$7variant17h39ccf77f584bfc01E>
 - func[504] size=310 <_ZN10scale_info5build17Variants$LT$F$GT$7variant17h44377ff2d761710aE>
 - func[505] size=558 <_ZN10scale_info5build17Variants$LT$F$GT$7variant17h4925805f51739818E>
 - func[506] size=558 <_ZN10scale_info5build17Variants$LT$F$GT$7variant17h4d23fcd2968c6af8E>
 - func[507] size=558 <_ZN10scale_info5build17Variants$LT$F$GT$7variant17h4f0a0e1dc4d6d3d5E>
 - func[508] size=384 <_ZN10scale_info5build17Variants$LT$F$GT$7variant17h54180bd2f42b8b44E>
 - func[509] size=479 <_ZN10scale_info5build17Variants$LT$F$GT$7variant17h5755766ec84a873cE>
 - func[510] size=326 <_ZN10scale_info5build17Variants$LT$F$GT$7variant17h5c5db28c145ff050E>
 - func[511] size=479 <_ZN10scale_info5build17Variants$LT$F$GT$7variant17h5fc663d78de02922E>
 - func[512] size=383 <_ZN10scale_info5build17Variants$LT$F$GT$7variant17h6971c8ef90eba5edE>
 - func[513] size=721 <_ZN10scale_info5build17Variants$LT$F$GT$7variant17h6cdc67967653a91aE>
 - func[514] size=661 <_ZN10scale_info5build17Variants$LT$F$GT$7variant17h707394ec7791c417E>
 - func[515] size=383 <_ZN10scale_info5build17Variants$LT$F$GT$7variant17h785b82c61e41e04cE>
 - func[516] size=316 <_ZN10scale_info5build17Variants$LT$F$GT$7variant17h7c7718c93b537c79E>
 - func[517] size=566 <_ZN10scale_info5build17Variants$LT$F$GT$7variant17h7d97ef19d0188fb4E>
 - func[518] size=558 <_ZN10scale_info5build17Variants$LT$F$GT$7variant17h7fb5222047cfd266E>
 - func[519] size=309 <_ZN10scale_info5build17Variants$LT$F$GT$7variant17h81120af395ce9048E>
 - func[520] size=317 <_ZN10scale_info5build17Variants$LT$F$GT$7variant17h84ef133bf91a6d44E>
 - func[521] size=500 <_ZN10scale_info5build17Variants$LT$F$GT$7variant17h88b079f2d6bb09f3E>
 - func[522] size=790 <_ZN10scale_info5build17Variants$LT$F$GT$7variant17h8ba6f7fd790ed5a9E>
 - func[523] size=610 <_ZN10scale_info5build17Variants$LT$F$GT$7variant17h8f801c0adb61e4b1E>
 - func[524] size=469 <_ZN10scale_info5build17Variants$LT$F$GT$7variant17h92b2d5fb388b6400E>
 - func[525] size=316 <_ZN10scale_info5build17Variants$LT$F$GT$7variant17h9338c3a32d0ff8faE>
 - func[526] size=737 <_ZN10scale_info5build17Variants$LT$F$GT$7variant17h9749434e8623feb4E>
 - func[527] size=316 <_ZN10scale_info5build17Variants$LT$F$GT$7variant17h9938892ae756aa70E>
 - func[528] size=326 <_ZN10scale_info5build17Variants$LT$F$GT$7variant17h9e296626ff39f842E>
 - func[529] size=400 <_ZN10scale_info5build17Variants$LT$F$GT$7variant17h9e7e6f0d834a66a9E>
 - func[530] size=720 <_ZN10scale_info5build17Variants$LT$F$GT$7variant17h9ef5a529857a2487E>
 - func[531] size=500 <_ZN10scale_info5build17Variants$LT$F$GT$7variant17ha740cd2612e301ddE>
 - func[532] size=843 <_ZN10scale_info5build17Variants$LT$F$GT$7variant17ha7512b1fb4b7762aE>
 - func[533] size=906 <_ZN10scale_info5build17Variants$LT$F$GT$7variant17ha89a0381826eea8eE>
 - func[534] size=316 <_ZN10scale_info5build17Variants$LT$F$GT$7variant17hb3ea97f805ef12f5E>
 - func[535] size=384 <_ZN10scale_info5build17Variants$LT$F$GT$7variant17hb4eb8523d4b6dd86E>
 - func[536] size=564 <_ZN10scale_info5build17Variants$LT$F$GT$7variant17hbbf3d059c2d2d81dE>
 - func[537] size=316 <_ZN10scale_info5build17Variants$LT$F$GT$7variant17hc1e56f34fbcc47f1E>
 - func[538] size=309 <_ZN10scale_info5build17Variants$LT$F$GT$7variant17hc529be33e616e69fE>
 - func[539] size=384 <_ZN10scale_info5build17Variants$LT$F$GT$7variant17hca9216042682e726E>
 - func[540] size=383 <_ZN10scale_info5build17Variants$LT$F$GT$7variant17hcabe24ff928f41ddE>
 - func[541] size=209 <_ZN10scale_info5build17Variants$LT$F$GT$7variant17hcbfeec5d5e468e85E>
 - func[542] size=384 <_ZN10scale_info5build17Variants$LT$F$GT$7variant17hcc38eca89ed27503E>
 - func[543] size=310 <_ZN10scale_info5build17Variants$LT$F$GT$7variant17hd21ec3a7a4ab949cE>
 - func[544] size=575 <_ZN10scale_info5build17Variants$LT$F$GT$7variant17hd3e3f6c171d64bc8E>
 - func[545] size=316 <_ZN10scale_info5build17Variants$LT$F$GT$7variant17hd558d516902cfa99E>
 - func[546] size=558 <_ZN10scale_info5build17Variants$LT$F$GT$7variant17hda0a91acf18769d1E>
 - func[547] size=315 <_ZN10scale_info5build17Variants$LT$F$GT$7variant17hdae2c6c7cb623a6dE>
 - func[548] size=316 <_ZN10scale_info5build17Variants$LT$F$GT$7variant17hdcfb75f92fcb1131E>
 - func[549] size=680 <_ZN10scale_info5build17Variants$LT$F$GT$7variant17hdeb2b50c74312369E>
 - func[550] size=558 <_ZN10scale_info5build17Variants$LT$F$GT$7variant17he24324e8a0f8c1c4E>
 - func[551] size=317 <_ZN10scale_info5build17Variants$LT$F$GT$7variant17he47c5050b114dcddE>
 - func[552] size=644 <_ZN10scale_info5build17Variants$LT$F$GT$7variant17he50ecc22e627218eE>
 - func[553] size=559 <_ZN10scale_info5build17Variants$LT$F$GT$7variant17he6698408b6b777daE>
 - func[554] size=383 <_ZN10scale_info5build17Variants$LT$F$GT$7variant17he75d5559dbe525d7E>
 - func[555] size=316 <_ZN10scale_info5build17Variants$LT$F$GT$7variant17hea8e6ff54a53f2e5E>
 - func[556] size=383 <_ZN10scale_info5build17Variants$LT$F$GT$7variant17hed3ce16f968ad273E>
 - func[557] size=592 <_ZN10scale_info5build17Variants$LT$F$GT$7variant17hf69108543b8ea194E>
 - func[558] size=501 <_ZN10scale_info5build17Variants$LT$F$GT$7variant17hf75e931be0a24772E>
 - func[559] size=315 <_ZN10scale_info5build17Variants$LT$F$GT$7variant17hf84bf39c82c0925eE>
 - func[560] size=315 <_ZN10scale_info5build17Variants$LT$F$GT$7variant17hf8f1b7edae0bc790E>
 - func[561] size=444 <_ZN102_$LT$pallet_timestamp..pallet..Pallet$LT$T$GT$$u20$as$u20$frame_support..inherent..ProvideInherent$GT$14check_inherent17h21f97858591975aeE>
 - func[562] size=495 <_ZN13frame_support7storage8unhashed3get17ha9967ffdd7709b13E>
 - func[563] size=436 <_ZN102_$LT$pallet_timestamp..pallet..Pallet$LT$T$GT$$u20$as$u20$frame_support..inherent..ProvideInherent$GT$15create_inherent17h62e0b93b69863652E>
 - func[564] size=338 <_ZN136_$LT$alloc..collections..btree..map..BTreeMap$LT$K$C$V$GT$$u20$as$u20$core..iter..traits..collect..FromIterator$LT$$LP$K$C$V$RP$$GT$$GT$9from_iter17hd294c21c1cb35cdcE>
 - func[565] size=707 <_ZN99_$LT$alloc..collections..btree..map..BTreeMap$LT$K$C$V$C$A$GT$$u20$as$u20$core..ops..drop..Drop$GT$4drop17h4c66447527c22524E>
 - func[566] size=1261 <_ZN109_$LT$pallet_poe..pallet..Call$LT$T$GT$$u20$as$u20$frame_support..traits..dispatch..UnfilteredDispatchable$GT$22dispatch_bypass_filter28_$u7b$$u7b$closure$u7d$$u7d$17h87f481ee0af84222E>
 - func[567] size=178 <_ZN10scale_info5impls64_$LT$impl$u20$scale_info..TypeInfo$u20$for$u20$$LP$A$C$B$RP$$GT$9type_info17hcbc424f0dab1806eE>
 - func[568] size=179 <_ZN10scale_info5impls64_$LT$impl$u20$scale_info..TypeInfo$u20$for$u20$$LP$A$C$B$RP$$GT$9type_info17h171e608ea12a8ab0E>
 - func[569] size=98 <_ZN10scale_info5impls73_$LT$impl$u20$scale_info..TypeInfo$u20$for$u20$$u5b$T$u3b$$u20$N$u5d$$GT$9type_info17h2ea5b21f337b8ff4E>
 - func[570] size=98 <_ZN10scale_info5impls73_$LT$impl$u20$scale_info..TypeInfo$u20$for$u20$$u5b$T$u3b$$u20$N$u5d$$GT$9type_info17h8ceac68c4e889712E>
 - func[571] size=98 <_ZN10scale_info5impls73_$LT$impl$u20$scale_info..TypeInfo$u20$for$u20$$u5b$T$u3b$$u20$N$u5d$$GT$9type_info17ha7abfab335f9e48dE>
 - func[572] size=1192 <_ZN12frame_system1_103_$LT$impl$u20$scale_info..TypeInfo$u20$for$u20$frame_system..AccountInfo$LT$Index$C$AccountData$GT$$GT$9type_info17ha32825fc19630af3E>
 - func[573] size=280 <_ZN18parity_scale_codec5codec6Encode9encode_to17hca8157978a60cb7dE>
 - func[574] size=1804 <_ZN110_$LT$pallet_sudo..pallet..Call$LT$T$GT$$u20$as$u20$frame_support..traits..dispatch..UnfilteredDispatchable$GT$22dispatch_bypass_filter28_$u7b$$u7b$closure$u7d$$u7d$17haebe749bf446002eE>
 - func[575] size=3842 <_ZN111_$LT$frame_system..pallet..Call$LT$T$GT$$u20$as$u20$frame_support..traits..dispatch..UnfilteredDispatchable$GT$22dispatch_bypass_filter28_$u7b$$u7b$closure$u7d$$u7d$17hc33b6284f31cb52cE>
 - func[576] size=1722 <_ZN13environmental9local_key17LocalKey$LT$T$GT$4with17h5e8354173dc6b9adE>
 - func[577] size=734 <_ZN99_$LT$alloc..collections..btree..map..BTreeMap$LT$K$C$V$C$A$GT$$u20$as$u20$core..ops..drop..Drop$GT$4drop17h30c64241cbc72d37E>
 - func[578] size=2890 <_ZN118_$LT$pallet_balances..pallet..Call$LT$T$C$I$GT$$u20$as$u20$frame_support..traits..dispatch..UnfilteredDispatchable$GT$22dispatch_bypass_filter28_$u7b$$u7b$closure$u7d$$u7d$17hada0fd398e26f42bE>
 - func[579] size=862 <_ZN12frame_system1_89_$LT$impl$u20$scale_info..TypeInfo$u20$for$u20$frame_system..EventRecord$LT$E$C$T$GT$$GT$9type_info17h52ff2d7685b5e6c0E>
 - func[580] size=1037 <_ZN13environmental9local_key17LocalKey$LT$T$GT$4with17h41a42d5f4307b1b7E>
 - func[581] size=1587 <_ZN13environmental9local_key17LocalKey$LT$T$GT$4with17h464d058c2fe16e7fE>
 - func[582] size=2245 <_ZN13environmental9local_key17LocalKey$LT$T$GT$4with17ha2ff441dc26a1417E>
 - func[583] size=1035 <_ZN13environmental9local_key17LocalKey$LT$T$GT$4with17had33cc48e64c6d06E>
 - func[584] size=1035 <_ZN13environmental9local_key17LocalKey$LT$T$GT$4with17hcec7119a9314daa2E>
 - func[585] size=1660 <_ZN13environmental9local_key17LocalKey$LT$T$GT$4with17hd3bbc2b532e3fa2eE>
 - func[586] size=891 <_ZN13frame_support7storage8unhashed14get_or_default17hd9ef84b709aee69bE>
 - func[587] size=527 <_ZN13frame_support7storage8unhashed3get17h03adcddd373f735eE>
 - func[588] size=743 <_ZN13frame_support7storage8unhashed3get17h12bbe81fee40f24eE>
 - func[589] size=495 <_ZN13frame_support7storage8unhashed3get17h24a4bfc790b76a5eE>
 - func[590] size=618 <_ZN13frame_support7storage8unhashed3get17h3ac64b530b11db84E>
 - func[591] size=791 <_ZN13frame_support7storage8unhashed3get17h43b7e4791cbe0ff3E>
 - func[592] size=537 <_ZN13frame_support7storage8unhashed3get17h53cc240bd470b6c9E>
 - func[593] size=557 <_ZN13frame_support7storage8unhashed3get17h5595bf671fb2b204E>
 - func[594] size=519 <_ZN13frame_support7storage8unhashed3get17h5be8e9a912794645E>
 - func[595] size=1070 <_ZN13frame_support7storage8unhashed3get17h6c5bed966319e621E>
 - func[596] size=485 <_ZN13frame_support7storage8unhashed3get17h7eb17769f4b69b33E>
 - func[597] size=560 <_ZN13frame_support7storage8unhashed3get17h8ecc82f3de54f5faE>
 - func[598] size=745 <_ZN13frame_support7storage8unhashed3get17hb9c5c2700d9a4b45E>
 - func[599] size=670 <_ZN13frame_support7storage8unhashed3get17heee4e55cc94b085cE>
 - func[600] size=316 <_ZN13frame_support7storage8unhashed3put17h22c579c19c5b35bfE>
 - func[601] size=377 <_ZN13frame_support7storage8unhashed3put17h25edffcf15eee5f5E>
 - func[602] size=370 <_ZN13frame_support7storage8unhashed3put17h48572a4874dd11d6E>
 - func[603] size=288 <_ZN13frame_support7storage8unhashed3put17h83c9159189698079E>
 - func[604] size=309 <_ZN13frame_support7storage8unhashed3put17ha3902214d7df8b4aE>
 - func[605] size=258 <_ZN18parity_scale_codec5codec6Encode13using_encoded17hef48b39682af1c44E>
 - func[606] size=318 <_ZN13frame_support7storage8unhashed3put17hfdaf0ae6009294e0E>
 - func[607] size=846 <_ZN13frame_support7storage8unhashed4take17h04ad7f5fc6862b62E>
 - func[608] size=16 <_ZN168_$LT$pallet_timestamp..pallet..Pallet$LT$T$GT$$u20$as$u20$frame_support..traits..hooks..OnIdle$LT$$LT$T$u20$as$u20$frame_system..pallet..Config$GT$..BlockNumber$GT$$GT$7on_idle17hcc498cc0207c3fe2E>
 - func[609] size=448 <_ZN16pallet_timestamp6pallet1_90_$LT$impl$u20$scale_info..TypeInfo$u20$for$u20$pallet_timestamp..pallet..Call$LT$T$GT$$GT$9type_info17h6ab1c85642e9d01aE>
 - func[610] size=624 <_ZN16pallet_timestamp6pallet15Pallet$LT$T$GT$16storage_metadata17h5236dbe880a41989E>
 - func[611] size=311 <_ZN16pallet_timestamp6pallet15Pallet$LT$T$GT$25pallet_constants_metadata17h8247f24dacafe4dcE>
 - func[612] size=577 <_ZN18parity_scale_codec5codec6Encode6encode17h6e34d9a19e841828E>
 - func[613] size=280 <_ZN18parity_scale_codec5codec6Encode6encode17h92a4ac6258faecaeE>
 - func[614] size=305 <_ZN18parity_scale_codec5codec6Encode6encode17hb3ef7a29ea8291a4E>
 - func[615] size=2 <_ZN4core3ptr40drop_in_place$LT$sp_inherents..Error$GT$17h888a93527bd2070eE.llvm.16665248970420330041>
 - func[616] size=118 <_ZN4core9panicking13assert_failed17h87a167ab80a421c6E>
 - func[617] size=118 <_ZN4core9panicking13assert_failed17hf82ced36d403a0b8E>
 - func[618] size=118 <_ZN4core9panicking13assert_failed17hf8acbac4d09bad4dE>
 - func[619] size=701 <_ZN55_$LT$X$u20$as$u20$parity_scale_codec..codec..Encode$GT$9encode_to17h76f9923ce5a0c071E>
 - func[620] size=691 <_ZN93_$LT$sp_runtime..generic..digest..DigestItem$u20$as$u20$parity_scale_codec..codec..Decode$GT$6decode17h3d43512524c4f8f2E>
 - func[621] size=643 <_ZN93_$LT$sp_runtime..generic..digest..DigestItem$u20$as$u20$parity_scale_codec..codec..Decode$GT$6decode17he67649c8c0d24bbeE>
 - func[622] size=2251 <_ZN5alloc11collections5btree6append178_$LT$impl$u20$alloc..collections..btree..node..NodeRef$LT$alloc..collections..btree..node..marker..Owned$C$K$C$V$C$alloc..collections..btree..node..marker..LeafOrInternal$GT$$GT$9bulk_push17h3158b3c705220422E>
 - func[623] size=10 <_ZN10scale_info5impls77_$LT$impl$u20$scale_info..TypeInfo$u20$for$u20$alloc..boxed..Box$LT$T$GT$$GT$9type_info17hc4c48011aca3dfbeE.llvm.2254544610208359308>
 - func[624] size=179 <_ZN10scale_info5impls64_$LT$impl$u20$scale_info..TypeInfo$u20$for$u20$$LP$A$C$B$RP$$GT$9type_info17h753e8c6c0d3bb4e3E.llvm.2254544610208359308>
 - func[625] size=655 <_ZN16finality_grandpa1_89_$LT$impl$u20$scale_info..TypeInfo$u20$for$u20$finality_grandpa..Prevote$LT$H$C$N$GT$$GT$9type_info17h31ec7555aa2b52a5E.llvm.2254544610208359308>
 - func[626] size=178 <_ZN10scale_info5impls64_$LT$impl$u20$scale_info..TypeInfo$u20$for$u20$$LP$A$C$B$RP$$GT$9type_info17h91c792bf39de2403E.llvm.2254544610208359308>
 - func[627] size=655 <_ZN16finality_grandpa1_91_$LT$impl$u20$scale_info..TypeInfo$u20$for$u20$finality_grandpa..Precommit$LT$H$C$N$GT$$GT$9type_info17hac65c4bbc25f6c33E.llvm.2254544610208359308>
 - func[628] size=10 <_ZN10scale_info5impls77_$LT$impl$u20$scale_info..TypeInfo$u20$for$u20$alloc..boxed..Box$LT$T$GT$$GT$9type_info17h17ceea3968642450E.llvm.2254544610208359308>
 - func[629] size=10 <_ZN10scale_info5impls77_$LT$impl$u20$scale_info..TypeInfo$u20$for$u20$alloc..boxed..Box$LT$T$GT$$GT$9type_info17h6bce882cb338a54cE.llvm.2254544610208359308>
 - func[630] size=679 <_ZN10scale_info5impls88_$LT$impl$u20$scale_info..TypeInfo$u20$for$u20$$LP$A$C$B$C$C$C$D$C$E$C$F$C$G$C$H$RP$$GT$9type_info17h57ccb3e55fb4e7a8E.llvm.2254544610208359308>
 - func[631] size=266 <_ZN12frame_system10extensions21check_non_zero_sender1_127_$LT$impl$u20$scale_info..TypeInfo$u20$for$u20$frame_system..extensions..check_non_zero_sender..CheckNonZeroSender$LT$T$GT$$GT$9type_info17h14d024ef834c2fb5E.llvm.2254544610208359308>
 - func[632] size=1042 <_ZN16finality_grandpa1_99_$LT$impl$u20$scale_info..TypeInfo$u20$for$u20$finality_grandpa..Equivocation$LT$Id$C$V$C$S$GT$$GT$9type_info17h45b9cf51c9477632E.llvm.2254544610208359308>
 - func[633] size=449 <_ZN19bounded_collections16weak_bounded_vec1_117_$LT$impl$u20$scale_info..TypeInfo$u20$for$u20$bounded_collections..weak_bounded_vec..WeakBoundedVec$LT$T$C$S$GT$$GT$9type_info17ha0371d2f2d567b03E.llvm.2254544610208359308>
 - func[634] size=1041 <_ZN16finality_grandpa1_99_$LT$impl$u20$scale_info..TypeInfo$u20$for$u20$finality_grandpa..Equivocation$LT$Id$C$V$C$S$GT$$GT$9type_info17hbdb5cbb60c422864E.llvm.2254544610208359308>
 - func[635] size=449 <_ZN19bounded_collections16weak_bounded_vec1_117_$LT$impl$u20$scale_info..TypeInfo$u20$for$u20$bounded_collections..weak_bounded_vec..WeakBoundedVec$LT$T$C$S$GT$$GT$9type_info17hb4d1b0b7688f25eaE.llvm.2254544610208359308>
 - func[636] size=410 <_ZN120_$LT$bounded_collections..weak_bounded_vec..WeakBoundedVec$LT$T$C$S$GT$$u20$as$u20$parity_scale_codec..codec..Decode$GT$6decode17h5332eaa064ced1bfE>
 - func[637] size=531 <_ZN13frame_support6traits6tokens9imbalance13on_unbalanced12OnUnbalanced13on_unbalanced17he0565babd8eb1cf4E>
 - func[638] size=647 <_ZN13frame_support6traits6tokens9imbalance13on_unbalanced12OnUnbalanced14on_unbalanceds17h1d0f85873d5cbe19E>
 - func[639] size=1564 <_ZN16finality_grandpa1_112_$LT$impl$u20$parity_scale_codec..codec..Decode$u20$for$u20$finality_grandpa..Equivocation$LT$Id$C$V$C$S$GT$$GT$6decode17hd6f6543417b5e425E>
 - func[640] size=595 <_ZN189_$LT$$LP$TupleElement0$C$TupleElement1$C$TupleElement2$C$TupleElement3$C$TupleElement4$C$TupleElement5$C$TupleElement6$C$TupleElement7$RP$$u20$as$u20$sp_runtime..traits..SignedExtension$GT$12pre_dispatch17hb6769ae1d725f8bfE>
 - func[641] size=581 <_ZN189_$LT$$LP$TupleElement0$C$TupleElement1$C$TupleElement2$C$TupleElement3$C$TupleElement4$C$TupleElement5$C$TupleElement6$C$TupleElement7$RP$$u20$as$u20$sp_runtime..traits..SignedExtension$GT$13post_dispatch17hbdb0ca428178fac2E>
 - func[642] size=575 <_ZN189_$LT$$LP$TupleElement0$C$TupleElement1$C$TupleElement2$C$TupleElement3$C$TupleElement4$C$TupleElement5$C$TupleElement6$C$TupleElement7$RP$$u20$as$u20$sp_runtime..traits..SignedExtension$GT$17additional_signed17h32f4167b090a82d9E>
 - func[643] size=1798 <_ZN189_$LT$$LP$TupleElement0$C$TupleElement1$C$TupleElement2$C$TupleElement3$C$TupleElement4$C$TupleElement5$C$TupleElement6$C$TupleElement7$RP$$u20$as$u20$sp_runtime..traits..SignedExtension$GT$17validate_unsigned17hcf067ddfbe155185E>
 - func[644] size=464 <_ZN4core3ptr71drop_in_place$LT$sp_runtime..transaction_validity..ValidTransaction$GT$17h539e55e75fcc37b6E>
 - func[645] size=2083 <_ZN189_$LT$$LP$TupleElement0$C$TupleElement1$C$TupleElement2$C$TupleElement3$C$TupleElement4$C$TupleElement5$C$TupleElement6$C$TupleElement7$RP$$u20$as$u20$sp_runtime..traits..SignedExtension$GT$8metadata17h922321c8dc1d32c7E>
 - func[646] size=2469 <_ZN189_$LT$$LP$TupleElement0$C$TupleElement1$C$TupleElement2$C$TupleElement3$C$TupleElement4$C$TupleElement5$C$TupleElement6$C$TupleElement7$RP$$u20$as$u20$sp_runtime..traits..SignedExtension$GT$8validate17h56745c693f037c56E>
 - func[647] size=279 <_ZN18parity_scale_codec5codec16inner_tuple_impl109_$LT$impl$u20$parity_scale_codec..codec..Encode$u20$for$u20$$LP$K0$C$L0$C$M0$C$N0$C$O0$C$P0$C$Q0$C$R0$RP$$GT$9encode_to17h4b069fcf8609289aE>
 - func[648] size=2 <_ZN4core3ptr47drop_in_place$LT$core..cell..BorrowMutError$GT$17ha1da34791c0997e3E.llvm.2254544610208359308>
 - func[649] size=373 <_ZN55_$LT$X$u20$as$u20$parity_scale_codec..codec..Decode$GT$6decode17hbcdf2cb99c8e1946E>
 - func[650] size=51 <_ZN103_$LT$pallet_balances..pallet..Call$LT$T$C$I$GT$$u20$as$u20$frame_support..dispatch..GetDispatchInfo$GT$17get_dispatch_info17hfbffcfd0534a04dfE>
 - func[651] size=1834 <_ZN138_$LT$sp_runtime..generic..checked_extrinsic..CheckedExtrinsic$LT$AccountId$C$Call$C$Extra$GT$$u20$as$u20$sp_runtime..traits..Applyable$GT$5apply17hf5f9cdcb7abb1a82E>
 - func[652] size=846 <_ZN4core3ptr55drop_in_place$LT$node_template_runtime..RuntimeCall$GT$17h1a652cb8af7ee3fdE.llvm.385722808160403130>
 - func[653] size=628 <_ZN138_$LT$sp_runtime..generic..checked_extrinsic..CheckedExtrinsic$LT$AccountId$C$Call$C$Extra$GT$$u20$as$u20$sp_runtime..traits..Applyable$GT$8validate17h0abc583490631f5dE>
 - func[654] size=604 <_ZN15pallet_balances191_$LT$impl$u20$frame_support..traits..tokens..fungible..Inspect$LT$$LT$T$u20$as$u20$frame_system..pallet..Config$GT$..AccountId$GT$$u20$for$u20$pallet_balances..pallet..Pallet$LT$T$C$I$GT$$GT$17reducible_balance17hb58f36236696372aE>
 - func[655] size=330 <_ZN15pallet_balances192_$LT$impl$u20$frame_support..traits..tokens..currency..Currency$LT$$LT$T$u20$as$u20$frame_system..pallet..Config$GT$..AccountId$GT$$u20$for$u20$pallet_balances..pallet..Pallet$LT$T$C$I$GT$$GT$19ensure_can_withdraw17hec0501ed841b49c2E>
 - func[656] size=530 <_ZN15pallet_balances192_$LT$impl$u20$frame_support..traits..tokens..currency..Currency$LT$$LT$T$u20$as$u20$frame_system..pallet..Config$GT$..AccountId$GT$$u20$for$u20$pallet_balances..pallet..Pallet$LT$T$C$I$GT$$GT$21deposit_into_existing17ha69ef487f896897fE>
 - func[657] size=1165 <_ZN15pallet_balances192_$LT$impl$u20$frame_support..traits..tokens..currency..Currency$LT$$LT$T$u20$as$u20$frame_system..pallet..Config$GT$..AccountId$GT$$u20$for$u20$pallet_balances..pallet..Pallet$LT$T$C$I$GT$$GT$8transfer17he6865b732b86201cE>
 - func[658] size=562 <_ZN15pallet_balances192_$LT$impl$u20$frame_support..traits..tokens..currency..Currency$LT$$LT$T$u20$as$u20$frame_system..pallet..Config$GT$..AccountId$GT$$u20$for$u20$pallet_balances..pallet..Pallet$LT$T$C$I$GT$$GT$8withdraw17h2ac82412b09bfd00E>
 - func[659] size=730 <_ZN15pallet_balances214_$LT$impl$u20$frame_support..traits..tokens..currency..reservable..ReservableCurrency$LT$$LT$T$u20$as$u20$frame_system..pallet..Config$GT$..AccountId$GT$$u20$for$u20$pallet_balances..pallet..Pallet$LT$T$C$I$GT$$GT$9unreserve17h52aa0c23bc938d4cE>
 - func[660] size=508 <_ZN15pallet_balances62_$LT$impl$u20$pallet_balances..pallet..Pallet$LT$T$C$I$GT$$GT$14mutate_account17hf874c508e2df013fE>
 - func[661] size=599 <_ZN15pallet_balances6pallet1_93_$LT$impl$u20$scale_info..TypeInfo$u20$for$u20$pallet_balances..pallet..Call$LT$T$C$I$GT$$GT$9type_info17hcb240acf9ebf0134E>
 - func[662] size=1946 <_ZN15pallet_balances6pallet1_94_$LT$impl$u20$scale_info..TypeInfo$u20$for$u20$pallet_balances..pallet..Error$LT$T$C$I$GT$$GT$9type_info17hcb30f636f756ed36E>
 - func[663] size=1801 <_ZN15pallet_balances6pallet19Pallet$LT$T$C$I$GT$16storage_metadata17h38fc2338acfa72edE>
 - func[664] size=690 <_ZN15pallet_balances6pallet19Pallet$LT$T$C$I$GT$25pallet_constants_metadata17h90d44eb1b8d5bfd5E>
 - func[665] size=2527 <_ZN15pallet_balances6pallet1_106_$LT$impl$u20$parity_scale_codec..codec..Decode$u20$for$u20$pallet_balances..pallet..Call$LT$T$C$I$GT$$GT$6decode17h83567575bff3f013E>
 - func[666] size=877 <_ZN15pallet_balances6pallet1_106_$LT$impl$u20$parity_scale_codec..codec..Encode$u20$for$u20$pallet_balances..pallet..Call$LT$T$C$I$GT$$GT$9encode_to17h47e30223414c9374E>
 - func[667] size=3223 <_ZN15pallet_balances6pallet1_107_$LT$impl$u20$parity_scale_codec..codec..Encode$u20$for$u20$pallet_balances..pallet..Event$LT$T$C$I$GT$$GT$9encode_to17hb55bd41af0740d30E>
 - func[668] size=695 <_ZN15pallet_balances6pallet1_94_$LT$impl$u20$scale_info..TypeInfo$u20$for$u20$pallet_balances..pallet..Event$LT$T$C$I$GT$$GT$9type_info17h153ca85c0081a505E>
 - func[669] size=16 <_ZN171_$LT$pallet_balances..pallet..Pallet$LT$T$C$I$GT$$u20$as$u20$frame_support..traits..hooks..OnIdle$LT$$LT$T$u20$as$u20$frame_system..pallet..Config$GT$..BlockNumber$GT$$GT$7on_idle17h3541dea036d26c97E>
 - func[670] size=486 <_ZN26pallet_transaction_payment69_$LT$impl$u20$pallet_transaction_payment..pallet..Pallet$LT$T$GT$$GT$10query_info17hf03d200b6289150bE>
 - func[671] size=612 <_ZN26pallet_transaction_payment69_$LT$impl$u20$pallet_transaction_payment..pallet..Pallet$LT$T$GT$$GT$15compute_fee_raw17hb4a4f280e74b5368E.llvm.385722808160403130>
 - func[672] size=520 <_ZN26pallet_transaction_payment6pallet15Pallet$LT$T$GT$16storage_metadata17hf00958837325cfb3E>
 - func[673] size=692 <_ZN26pallet_transaction_payment6pallet15Pallet$LT$T$GT$25pallet_constants_metadata17h6926dbba86e0dd5cE>
 - func[674] size=448 <_ZN26pallet_transaction_payment6pallet1_101_$LT$impl$u20$scale_info..TypeInfo$u20$for$u20$pallet_transaction_payment..pallet..Event$LT$T$GT$$GT$9type_info17h464aed7897ba6963E>
 - func[675] size=363 <_ZN26pallet_transaction_payment6pallet1_114_$LT$impl$u20$parity_scale_codec..codec..Encode$u20$for$u20$pallet_transaction_payment..pallet..Event$LT$T$GT$$GT$9encode_to17h682d55c1ce9ca358E>
 - func[676] size=378 <Core_version>
 - func[677] size=415 <Core_execute_block>
 - func[678] size=1187 <Core_initialize_block>
 - func[679] size=285 <Metadata_metadata>
 - func[680] size=875 <BlockBuilder_apply_extrinsic>
 - func[681] size=593 <BlockBuilder_finalize_block>
 - func[682] size=933 <BlockBuilder_inherent_extrinsics>
 - func[683] size=723 <BlockBuilder_check_inherents>
 - func[684] size=1194 <TaggedTransactionQueue_validate_transaction>
 - func[685] size=1187 <OffchainWorkerApi_offchain_worker>
 - func[686] size=205 <AuraApi_slot_duration>
 - func[687] size=402 <AuraApi_authorities>
 - func[688] size=616 <SessionKeys_generate_session_keys>
 - func[689] size=919 <SessionKeys_decode_session_keys>
 - func[690] size=325 <GrandpaApi_grandpa_authorities>
 - func[691] size=379 <GrandpaApi_current_set_id>
 - func[692] size=458 <GrandpaApi_submit_report_equivocation_unsigned_extrinsic>
 - func[693] size=362 <GrandpaApi_generate_key_ownership_proof>
 - func[694] size=479 <AccountNonceApi_account_nonce>
 - func[695] size=447 <TransactionPaymentApi_query_info>
 - func[696] size=611 <TransactionPaymentApi_query_fee_details>
 - func[697] size=524 <TransactionPaymentApi_query_weight_to_fee>
 - func[698] size=387 <TransactionPaymentApi_query_length_to_fee>
 - func[699] size=959 <TransactionPaymentCallApi_query_call_info>
 - func[700] size=703 <TransactionPaymentCallApi_query_call_fee_details>
 - func[701] size=524 <TransactionPaymentCallApi_query_weight_to_fee>
 - func[702] size=387 <TransactionPaymentCallApi_query_length_to_fee>
 - func[703] size=2549 <_ZN104_$LT$$LP$TupleElement0$C$TupleElement1$RP$$u20$as$u20$frame_support..traits..hooks..OnRuntimeUpgrade$GT$18on_runtime_upgrade17h22f33dbc7067d81aE>
 - func[704] size=2721 <_ZN12frame_system245_$LT$impl$u20$frame_support..traits..stored_map..StoredMap$LT$$LT$T$u20$as$u20$frame_system..pallet..Config$GT$..AccountId$C$$LT$T$u20$as$u20$frame_system..pallet..Config$GT$..AccountData$GT$$u20$for$u20$frame_system..pallet..Pallet$LT$T$GT$$GT$17try_mutate_exists17h2803963ebfeb0daeE>
 - func[705] size=2151 <_ZN12frame_system245_$LT$impl$u20$frame_support..traits..stored_map..StoredMap$LT$$LT$T$u20$as$u20$frame_system..pallet..Config$GT$..AccountId$C$$LT$T$u20$as$u20$frame_system..pallet..Config$GT$..AccountData$GT$$u20$for$u20$frame_system..pallet..Pallet$LT$T$GT$$GT$17try_mutate_exists17h7dbe0084bf4cd823E>
 - func[706] size=754 <_ZN12frame_system55_$LT$impl$u20$frame_system..pallet..Pallet$LT$T$GT$$GT$21deposit_event_indexed17h6b33acf6e8230485E.llvm.7856937635361847341>
 - func[707] size=1854 <_ZN12frame_system245_$LT$impl$u20$frame_support..traits..stored_map..StoredMap$LT$$LT$T$u20$as$u20$frame_system..pallet..Config$GT$..AccountId$C$$LT$T$u20$as$u20$frame_system..pallet..Config$GT$..AccountData$GT$$u20$for$u20$frame_system..pallet..Pallet$LT$T$GT$$GT$17try_mutate_exists17h3c7bd8ee27746e79E>
 - func[708] size=1540 <_ZN12frame_system245_$LT$impl$u20$frame_support..traits..stored_map..StoredMap$LT$$LT$T$u20$as$u20$frame_system..pallet..Config$GT$..AccountId$C$$LT$T$u20$as$u20$frame_system..pallet..Config$GT$..AccountData$GT$$u20$for$u20$frame_system..pallet..Pallet$LT$T$GT$$GT$17try_mutate_exists17h7fcbd43155c0bccbE>
 - func[709] size=1982 <_ZN12frame_system245_$LT$impl$u20$frame_support..traits..stored_map..StoredMap$LT$$LT$T$u20$as$u20$frame_system..pallet..Config$GT$..AccountId$C$$LT$T$u20$as$u20$frame_system..pallet..Config$GT$..AccountData$GT$$u20$for$u20$frame_system..pallet..Pallet$LT$T$GT$$GT$17try_mutate_exists17hd97da999c0a83e7eE>
 - func[710] size=1805 <_ZN12frame_system245_$LT$impl$u20$frame_support..traits..stored_map..StoredMap$LT$$LT$T$u20$as$u20$frame_system..pallet..Config$GT$..AccountId$C$$LT$T$u20$as$u20$frame_system..pallet..Config$GT$..AccountData$GT$$u20$for$u20$frame_system..pallet..Pallet$LT$T$GT$$GT$17try_mutate_exists17hda00fb340a313c40E>
 - func[711] size=814 <_ZN12frame_system55_$LT$impl$u20$frame_system..pallet..Pallet$LT$T$GT$$GT$10initialize17h55f32ea7c410734bE>
 - func[712] size=539 <_ZN12frame_system55_$LT$impl$u20$frame_system..pallet..Pallet$LT$T$GT$$GT$12can_set_code17h9099cbe7b0740df3E>
 - func[713] size=414 <_ZN12frame_system55_$LT$impl$u20$frame_system..pallet..Pallet$LT$T$GT$$GT$12reset_events17hf585f4b40dedcf6fE>
 - func[714] size=1204 <_ZN12frame_system55_$LT$impl$u20$frame_system..pallet..Pallet$LT$T$GT$$GT$22note_applied_extrinsic17h877250a4b6920f2bE>
 - func[715] size=364 <_ZN4core3fmt3num50_$LT$impl$u20$core..fmt..Debug$u20$for$u20$u32$GT$3fmt17h37f0322cef62a07eE>
 - func[716] size=112 <_ZN12frame_system55_$LT$impl$u20$frame_system..pallet..Pallet$LT$T$GT$$GT$22update_code_in_storage17h585b7f5b336696caE>
 - func[717] size=279 <_ZN12frame_system55_$LT$impl$u20$frame_system..pallet..Pallet$LT$T$GT$$GT$24note_finished_extrinsics17hd0d3ebc5b0eccc74E>
 - func[718] size=4299 <_ZN12frame_system55_$LT$impl$u20$frame_system..pallet..Pallet$LT$T$GT$$GT$8finalize17ha38c06e79f44ff6cE>
 - func[719] size=616 <_ZN12frame_system6pallet1_86_$LT$impl$u20$scale_info..TypeInfo$u20$for$u20$frame_system..pallet..Call$LT$T$GT$$GT$9type_info17h604272345757bb25E>
 - func[720] size=1598 <_ZN12frame_system6pallet1_87_$LT$impl$u20$scale_info..TypeInfo$u20$for$u20$frame_system..pallet..Error$LT$T$GT$$GT$9type_info17hdafc3ab34778a55fE>
 - func[721] size=4340 <_ZN12frame_system6pallet15Pallet$LT$T$GT$16storage_metadata17hc1d35092a14e80a3E>
 - func[722] size=1989 <_ZN12frame_system6pallet15Pallet$LT$T$GT$25pallet_constants_metadata17h834021791e70d6e2E>
 - func[723] size=1077 <_ZN12frame_system6pallet1_100_$LT$impl$u20$parity_scale_codec..codec..Encode$u20$for$u20$frame_system..pallet..Event$LT$T$GT$$GT$9encode_to17hbdb9c1770c922f93E>
 - func[724] size=740 <_ZN12frame_system6pallet1_87_$LT$impl$u20$scale_info..TypeInfo$u20$for$u20$frame_system..pallet..Event$LT$T$GT$$GT$9type_info17he65acd95317814a4E>
 - func[725] size=973 <_ZN12frame_system6pallet1_99_$LT$impl$u20$parity_scale_codec..codec..Decode$u20$for$u20$frame_system..pallet..Call$LT$T$GT$$GT$6decode17h91512591a1417ff3E>
 - func[726] size=1540 <_ZN12frame_system6pallet1_99_$LT$impl$u20$parity_scale_codec..codec..Encode$u20$for$u20$frame_system..pallet..Call$LT$T$GT$$GT$9encode_to17hf558717b70b188feE>
 - func[727] size=16 <_ZN164_$LT$frame_system..pallet..Pallet$LT$T$GT$$u20$as$u20$frame_support..traits..hooks..OnIdle$LT$$LT$T$u20$as$u20$frame_system..pallet..Config$GT$..BlockNumber$GT$$GT$7on_idle17h7bc05f24b82db47cE>
 - func[728] size=389 <_ZN225_$LT$$LP$TupleElement0$C$TupleElement1$C$TupleElement2$C$TupleElement3$C$TupleElement4$C$TupleElement5$C$TupleElement6$C$TupleElement7$C$TupleElement8$RP$$u20$as$u20$frame_support..traits..hooks..OnIdle$LT$BlockNumber$GT$$GT$7on_idle17h928092aefdd930c3E>
 - func[729] size=2 <_ZN4core3ptr53drop_in_place$LT$parity_scale_codec..error..Error$GT$17hb4ed9f0bf1f9e312E>
 - func[730] size=368 <_ZN96_$LT$frame_system..pallet..Call$LT$T$GT$$u20$as$u20$frame_support..dispatch..GetDispatchInfo$GT$17get_dispatch_info17he78f84d3df69a33fE>
 - func[731] size=273 <_ZN5alloc7raw_vec11finish_grow17h69c9ef25f44587f8E.llvm.5807660321424388612>
 - func[732] size=243 <_ZN5alloc7raw_vec19RawVec$LT$T$C$A$GT$16reserve_for_push17h396a822fc65022a4E>
 - func[733] size=245 <_ZN5alloc7raw_vec19RawVec$LT$T$C$A$GT$7reserve21do_reserve_and_handle17hc389d403a8a43a37E>
 - func[734] size=299 <_ZN137_$LT$alloc..vec..Vec$LT$T$GT$$u20$as$u20$alloc..vec..spec_from_iter..SpecFromIter$LT$T$C$alloc..vec..into_iter..IntoIter$LT$T$GT$$GT$$GT$9from_iter17hb3c4f998260aa4e6E>
 - func[735] size=637 <_ZN15pallet_balances1_75_$LT$impl$u20$scale_info..TypeInfo$u20$for$u20$pallet_balances..Reasons$GT$9type_info17ha57453fc0838e0f5E>
 - func[736] size=273 <_ZN5alloc7raw_vec11finish_grow17h717aaf7a873371a6E.llvm.13866935588365906072>
 - func[737] size=243 <_ZN5alloc7raw_vec19RawVec$LT$T$C$A$GT$16reserve_for_push17h360c318324122226E>
 - func[738] size=243 <_ZN5alloc7raw_vec19RawVec$LT$T$C$A$GT$16reserve_for_push17h3841e9fda55755caE>
 - func[739] size=245 <_ZN5alloc7raw_vec19RawVec$LT$T$C$A$GT$7reserve21do_reserve_and_handle17h029df671436033ddE>
 - func[740] size=91 <_ZN10scale_info5impls75_$LT$impl$u20$scale_info..TypeInfo$u20$for$u20$alloc..vec..Vec$LT$T$GT$$GT$9type_info17h3e7dc73b8f3f9966E>
 - func[741] size=299 <_ZN137_$LT$alloc..vec..Vec$LT$T$GT$$u20$as$u20$alloc..vec..spec_from_iter..SpecFromIter$LT$T$C$alloc..vec..into_iter..IntoIter$LT$T$GT$$GT$$GT$9from_iter17h6743bb8d1a86d8b2E>
 - func[742] size=383 <_ZN10scale_info5build17Variants$LT$F$GT$7variant17h067cc7587c81ce23E>
 - func[743] size=731 <_ZN14pallet_grandpa6pallet1_80_$LT$impl$u20$scale_info..TypeInfo$u20$for$u20$pallet_grandpa..pallet..Event$GT$9type_info17ha2e319cb37aeaa8aE>
 - func[744] size=178 <_ZN10scale_info5impls64_$LT$impl$u20$scale_info..TypeInfo$u20$for$u20$$LP$A$C$B$RP$$GT$9type_info17hea8e2ddf0d5bc0edE>
 - func[745] size=511 <_ZN26pallet_transaction_payment1_87_$LT$impl$u20$scale_info..TypeInfo$u20$for$u20$pallet_transaction_payment..Releases$GT$9type_info17h8d2181207482b62aE>
 - func[746] size=273 <_ZN5alloc7raw_vec11finish_grow17h15020cc1cc215dc7E.llvm.8378376015337363081>
 - func[747] size=243 <_ZN5alloc7raw_vec19RawVec$LT$T$C$A$GT$16reserve_for_push17hfeb7e7b8a62a941bE>
 - func[748] size=245 <_ZN5alloc7raw_vec19RawVec$LT$T$C$A$GT$7reserve21do_reserve_and_handle17hf4d71a3d17d6548aE>
 - func[749] size=299 <_ZN137_$LT$alloc..vec..Vec$LT$T$GT$$u20$as$u20$alloc..vec..spec_from_iter..SpecFromIter$LT$T$C$alloc..vec..into_iter..IntoIter$LT$T$GT$$GT$$GT$9from_iter17h9c12f1fdbb116b5fE>
 - func[750] size=364 <_ZN4core3fmt3num52_$LT$impl$u20$core..fmt..Debug$u20$for$u20$usize$GT$3fmt17ha5102538a7a70669E.llvm.8146613307230284552>
 - func[751] size=30 <_ZN71_$LT$parity_scale_codec..error..Error$u20$as$u20$core..fmt..Display$GT$3fmt17hbe2aeeb3541bc30dE>
 - func[752] size=30 <_ZN69_$LT$parity_scale_codec..error..Error$u20$as$u20$core..fmt..Debug$GT$3fmt17h023c813a8a4b1f66E>
 - func[753] size=248 <_ZN5alloc7raw_vec11finish_grow17h4727aaa188d30157E.llvm.15831061846655436958>
 - func[754] size=232 <_ZN5alloc7raw_vec19RawVec$LT$T$C$A$GT$7reserve21do_reserve_and_handle17hf82f5b12bb34ab6dE>
 - func[755] size=300 <_ZN102_$LT$parity_scale_codec..compact..PrefixInput$LT$T$GT$$u20$as$u20$parity_scale_codec..codec..Input$GT$4read17h12dbdf94d9f33400E>
 - func[756] size=393 <_ZN99_$LT$parity_scale_codec..compact..Compact$LT$T$GT$$u20$as$u20$parity_scale_codec..codec..Encode$GT$9encode_to17h66ed16bbeb5eeddeE>
 - func[757] size=469 <_ZN101_$LT$parity_scale_codec..compact..Compact$LT$u32$GT$$u20$as$u20$parity_scale_codec..codec..Decode$GT$6decode17he6b6dc47b0f392c4E>
 - func[758] size=373 <_ZN15primitive_types1_72_$LT$impl$u20$scale_info..TypeInfo$u20$for$u20$primitive_types..H256$GT$9type_info17h3eb14c3bddc1e7e0E>
 - func[759] size=273 <_ZN5alloc7raw_vec11finish_grow17h79b9291e08cd9cddE.llvm.1546836553066571878>
 - func[760] size=243 <_ZN5alloc7raw_vec19RawVec$LT$T$C$A$GT$16reserve_for_push17hc4ceaf79250954c3E>
 - func[761] size=245 <_ZN5alloc7raw_vec19RawVec$LT$T$C$A$GT$7reserve21do_reserve_and_handle17h17c6b37c0234a297E>
 - func[762] size=98 <_ZN10scale_info5impls73_$LT$impl$u20$scale_info..TypeInfo$u20$for$u20$$u5b$T$u3b$$u20$N$u5d$$GT$9type_info17h540efbeca381a97cE>
 - func[763] size=299 <_ZN137_$LT$alloc..vec..Vec$LT$T$GT$$u20$as$u20$alloc..vec..spec_from_iter..SpecFromIter$LT$T$C$alloc..vec..into_iter..IntoIter$LT$T$GT$$GT$$GT$9from_iter17h6ecf03fc0cdfed26E>
 - func[764] size=2204 <_ZN5alloc11collections5btree4node210Handle$LT$alloc..collections..btree..node..NodeRef$LT$alloc..collections..btree..node..marker..Mut$C$K$C$V$C$alloc..collections..btree..node..marker..Leaf$GT$$C$alloc..collections..btree..node..marker..Edge$GT$16insert_recursing17h9fbbabbff675e6a8E>
 - func[765] size=4130 <_ZN5alloc11collections5btree4node210Handle$LT$alloc..collections..btree..node..NodeRef$LT$alloc..collections..btree..node..marker..Mut$C$K$C$V$C$alloc..collections..btree..node..marker..Leaf$GT$$C$alloc..collections..btree..node..marker..Edge$GT$16insert_recursing17hfc780a35a8ee0ac6E>
 - func[766] size=273 <_ZN5alloc7raw_vec11finish_grow17h4831b9f5e39f3c5aE.llvm.10694975156633818596>
 - func[767] size=191 <_ZN5alloc7raw_vec19RawVec$LT$T$C$A$GT$11allocate_in17h533210948df7cf31E>
 - func[768] size=244 <_ZN5alloc7raw_vec19RawVec$LT$T$C$A$GT$16reserve_for_push17h722c40059ab5f64dE>
 - func[769] size=244 <_ZN5alloc7raw_vec19RawVec$LT$T$C$A$GT$16reserve_for_push17hf13be85888cba0a1E>
 - func[770] size=246 <_ZN5alloc7raw_vec19RawVec$LT$T$C$A$GT$7reserve21do_reserve_and_handle17h185341a5ae9c05d9E>
 - func[771] size=245 <_ZN5alloc7raw_vec19RawVec$LT$T$C$A$GT$7reserve21do_reserve_and_handle17h695ad45353947af8E>
 - func[772] size=245 <_ZN5alloc7raw_vec19RawVec$LT$T$C$A$GT$7reserve21do_reserve_and_handle17ha105682d8c7f62d2E>
 - func[773] size=245 <_ZN5alloc7raw_vec19RawVec$LT$T$C$A$GT$7reserve21do_reserve_and_handle17he48ce278776c84f3E>
 - func[774] size=210 <_ZN102_$LT$core..iter..adapters..map..Map$LT$I$C$F$GT$$u20$as$u20$core..iter..traits..iterator..Iterator$GT$4fold17h52e7e92b9e5421e0E>
 - func[775] size=618 <_ZN102_$LT$core..iter..adapters..map..Map$LT$I$C$F$GT$$u20$as$u20$core..iter..traits..iterator..Iterator$GT$4fold17h6fc9bb37d7fb9bf4E>
 - func[776] size=535 <_ZN102_$LT$core..iter..adapters..map..Map$LT$I$C$F$GT$$u20$as$u20$core..iter..traits..iterator..Iterator$GT$8try_fold17h0358f606182977b1E>
 - func[777] size=1088 <_ZN4core3str21_$LT$impl$u20$str$GT$18trim_start_matches17h10ca2d0274df328bE>
 - func[778] size=64 <_ZN10scale_info5impls55_$LT$impl$u20$scale_info..TypeInfo$u20$for$u20$bool$GT$9type_info17h28e93122c5b9a52dE>
 - func[779] size=65 <_ZN10scale_info5impls53_$LT$impl$u20$scale_info..TypeInfo$u20$for$u20$u8$GT$9type_info17hffc23daf484d37fbE>
 - func[780] size=65 <_ZN10scale_info5impls54_$LT$impl$u20$scale_info..TypeInfo$u20$for$u20$u16$GT$9type_info17hc780884f15e1c27eE>
 - func[781] size=65 <_ZN10scale_info5impls54_$LT$impl$u20$scale_info..TypeInfo$u20$for$u20$u32$GT$9type_info17h72a8ef7ff2d04067E>
 - func[782] size=65 <_ZN10scale_info5impls54_$LT$impl$u20$scale_info..TypeInfo$u20$for$u20$u64$GT$9type_info17hb8a89882bbc7c72fE>
 - func[783] size=65 <_ZN10scale_info5impls55_$LT$impl$u20$scale_info..TypeInfo$u20$for$u20$u128$GT$9type_info17hccb5bb30256837eeE>
 - func[784] size=83 <_ZN10scale_info5impls59_$LT$impl$u20$scale_info..TypeInfo$u20$for$u20$$LP$$RP$$GT$9type_info17h10d2742e8c5a963aE>
 - func[785] size=418 <_ZN10scale_info5utils18is_rust_identifier17h5476116e851c54f0E>
 - func[786] size=891 <_ZN4core3ops8function5impls80_$LT$impl$u20$core..ops..function..FnOnce$LT$A$GT$$u20$for$u20$$RF$mut$u20$F$GT$9call_once17he96dc6839e61a050E>
 - func[787] size=2 <_ZN4core3ptr30drop_in_place$LT$$RF$usize$GT$17hbf009afe516e1a68E>
 - func[788] size=1842 <_ZN10scale_info8registry8Registry13register_type17hb80e605c9484e25cE>
 - func[789] size=379 <_ZN10scale_info2ty4path4Path3new17h3e603bd48b8b3da6E>
 - func[790] size=313 <_ZN10scale_info2ty4path4Path7prelude17h9701a4d894f7ae75E>
 - func[791] size=297 <_ZN68_$LT$scale_info..ty..path..PathError$u20$as$u20$core..fmt..Debug$GT$3fmt17hcb53b7597601a163E>
 - func[792] size=299 <_ZN137_$LT$alloc..vec..Vec$LT$T$GT$$u20$as$u20$alloc..vec..spec_from_iter..SpecFromIter$LT$T$C$alloc..vec..into_iter..IntoIter$LT$T$GT$$GT$$GT$9from_iter17h2e1b95ed134cfedbE>
 - func[793] size=870 <_ZN5alloc3vec16in_place_collect108_$LT$impl$u20$alloc..vec..spec_from_iter..SpecFromIter$LT$T$C$I$GT$$u20$for$u20$alloc..vec..Vec$LT$T$GT$$GT$9from_iter17h712898c2c77993eaE>
 - func[794] size=541 <_ZN67_$LT$alloc..vec..Vec$LT$T$C$A$GT$$u20$as$u20$core..clone..Clone$GT$5clone17h692776556518f37cE>
 - func[795] size=517 <_ZN67_$LT$alloc..vec..Vec$LT$T$C$A$GT$$u20$as$u20$core..clone..Clone$GT$5clone17hdcfc031559ed128aE>
 - func[796] size=351 <_ZN67_$LT$alloc..vec..Vec$LT$T$C$A$GT$$u20$as$u20$core..clone..Clone$GT$5clone17hc1748bfbb02a3e74E>
 - func[797] size=1045 <_ZN90_$LT$core..str..iter..Split$LT$P$GT$$u20$as$u20$core..iter..traits..iterator..Iterator$GT$4next17h281a5fcf84eab362E.llvm.7502330796226634698>
 - func[798] size=291 <_ZN98_$LT$alloc..vec..Vec$LT$T$GT$$u20$as$u20$alloc..vec..spec_from_iter..SpecFromIter$LT$T$C$I$GT$$GT$9from_iter17h4e312437d195716eE>
 - func[799] size=902 <_ZN98_$LT$alloc..vec..Vec$LT$T$GT$$u20$as$u20$alloc..vec..spec_from_iter..SpecFromIter$LT$T$C$I$GT$$GT$9from_iter17h77631f2c5b1c7a42E>
 - func[800] size=392 <_ZN98_$LT$alloc..vec..Vec$LT$T$GT$$u20$as$u20$alloc..vec..spec_from_iter..SpecFromIter$LT$T$C$I$GT$$GT$9from_iter17hc4feb041846f6010E>
 - func[801] size=942 <_ZN78_$LT$scale_info..ty..TypeDef$u20$as$u20$scale_info..registry..IntoPortable$GT$13into_portable17hb9bae9388d1c48d4E>
 - func[802] size=575 <_ZN108_$LT$alloc..collections..btree..map..Iter$LT$K$C$V$GT$$u20$as$u20$core..iter..traits..iterator..Iterator$GT$4next17h4572026941aa26a3E>
 - func[803] size=677 <_ZN99_$LT$alloc..collections..btree..map..BTreeMap$LT$K$C$V$C$A$GT$$u20$as$u20$core..ops..drop..Drop$GT$4drop17h3450f0a2867f55deE>
 - func[804] size=656 <_ZN99_$LT$alloc..collections..btree..map..BTreeMap$LT$K$C$V$C$A$GT$$u20$as$u20$core..ops..drop..Drop$GT$4drop17haa49a43819f3cdc6E>
 - func[805] size=909 <_ZN5alloc11collections5btree3map5entry28VacantEntry$LT$K$C$V$C$A$GT$6insert17h23f1248ed42727fdE>
 - func[806] size=559 <_ZN5alloc11collections5btree3map5entry28VacantEntry$LT$K$C$V$C$A$GT$6insert17hb932bdd049c40c53E>
 - func[807] size=370 <_ZN42_$LT$$RF$T$u20$as$u20$core..fmt..Debug$GT$3fmt17h0122e11f99c05453E>
 - func[808] size=20 <_ZN42_$LT$$RF$T$u20$as$u20$core..fmt..Debug$GT$3fmt17h0ff6b9be392ef93bE>
 - func[809] size=733 <_ZN4core3ptr79drop_in_place$LT$scale_info..ty..Type$LT$scale_info..form..PortableForm$GT$$GT$17hb6c6f6a0c7016bf7E.llvm.1923044490418807390>
 - func[810] size=385 <_ZN10scale_info8interner17Interner$LT$T$GT$13intern_or_get17hdb02f0b935944147E>
 - func[811] size=273 <_ZN5alloc7raw_vec11finish_grow17hef565a5dba755906E.llvm.6450960483865191428>
 - func[812] size=243 <_ZN5alloc7raw_vec19RawVec$LT$T$C$A$GT$16reserve_for_push17h3465fb82447c3ca4E>
 - func[813] size=243 <_ZN5alloc7raw_vec19RawVec$LT$T$C$A$GT$16reserve_for_push17h8fe7f00114deba4cE>
 - func[814] size=245 <_ZN5alloc7raw_vec19RawVec$LT$T$C$A$GT$7reserve21do_reserve_and_handle17h50750b4c22322debE>
 - func[815] size=245 <_ZN5alloc7raw_vec19RawVec$LT$T$C$A$GT$7reserve21do_reserve_and_handle17h5d912746cad35c20E>
 - func[816] size=995 <_ZN13sp_arithmetic14helpers_128bit9double1289Double1283div17h274587e85fd50222E>
 - func[817] size=399 <_ZN13sp_arithmetic11fixed_point1_88_$LT$impl$u20$scale_info..TypeInfo$u20$for$u20$sp_arithmetic..fixed_point..FixedU128$GT$9type_info17hcde7bd8695b02cc2E>
 - func[818] size=299 <_ZN137_$LT$alloc..vec..Vec$LT$T$GT$$u20$as$u20$alloc..vec..spec_from_iter..SpecFromIter$LT$T$C$alloc..vec..into_iter..IntoIter$LT$T$GT$$GT$$GT$9from_iter17h462e266002918838E>
 - func[819] size=299 <_ZN137_$LT$alloc..vec..Vec$LT$T$GT$$u20$as$u20$alloc..vec..spec_from_iter..SpecFromIter$LT$T$C$alloc..vec..into_iter..IntoIter$LT$T$GT$$GT$$GT$9from_iter17h78044694c3d267bcE>
 - func[820] size=637 <_ZN13sp_arithmetic1_81_$LT$impl$u20$scale_info..TypeInfo$u20$for$u20$sp_arithmetic..ArithmeticError$GT$9type_info17h87c69931fb805a39E>
 - func[821] size=273 <_ZN5alloc7raw_vec11finish_grow17h5378ea1163addd8bE.llvm.2619779649146916606>
 - func[822] size=243 <_ZN5alloc7raw_vec19RawVec$LT$T$C$A$GT$16reserve_for_push17ha3fb5c0165ce09b4E>
 - func[823] size=245 <_ZN5alloc7raw_vec19RawVec$LT$T$C$A$GT$7reserve21do_reserve_and_handle17h075b3ae1af3d2203E>
 - func[824] size=299 <_ZN137_$LT$alloc..vec..Vec$LT$T$GT$$u20$as$u20$alloc..vec..spec_from_iter..SpecFromIter$LT$T$C$alloc..vec..into_iter..IntoIter$LT$T$GT$$GT$$GT$9from_iter17hbffeacc4346d3965E>
 - func[825] size=398 <_ZN17sp_consensus_aura7sr2551911app_sr255191_98_$LT$impl$u20$scale_info..TypeInfo$u20$for$u20$sp_consensus_aura..sr25519..app_sr25519..Public$GT$9type_info17h30ae5f03ff53a3abE>
 - func[826] size=273 <_ZN5alloc7raw_vec11finish_grow17hf2c8312a1c97987dE.llvm.11050665762092383256>
 - func[827] size=243 <_ZN5alloc7raw_vec19RawVec$LT$T$C$A$GT$16reserve_for_push17h7092af70a2a7b492E>
 - func[828] size=245 <_ZN5alloc7raw_vec19RawVec$LT$T$C$A$GT$7reserve21do_reserve_and_handle17he090b29feaf70990E>
 - func[829] size=299 <_ZN137_$LT$alloc..vec..Vec$LT$T$GT$$u20$as$u20$alloc..vec..spec_from_iter..SpecFromIter$LT$T$C$alloc..vec..into_iter..IntoIter$LT$T$GT$$GT$$GT$9from_iter17haa38499783015d33E>
 - func[830] size=337 <_ZN44_$LT$T$u20$as$u20$alloc..borrow..ToOwned$GT$8to_owned17h80e3258c9af2b574E>
 - func[831] size=373 <_ZN20sp_consensus_grandpa3app1_84_$LT$impl$u20$scale_info..TypeInfo$u20$for$u20$sp_consensus_grandpa..app..Public$GT$9type_info17hbde45d254bbd72abE>
 - func[832] size=374 <_ZN20sp_consensus_grandpa3app1_87_$LT$impl$u20$scale_info..TypeInfo$u20$for$u20$sp_consensus_grandpa..app..Signature$GT$9type_info17h2d5d1835fbef913aE>
 - func[833] size=273 <_ZN5alloc7raw_vec11finish_grow17h106db5754382b96eE.llvm.2420109233546714739>
 - func[834] size=243 <_ZN5alloc7raw_vec19RawVec$LT$T$C$A$GT$16reserve_for_push17h50732bab2a4ca748E>
 - func[835] size=245 <_ZN5alloc7raw_vec19RawVec$LT$T$C$A$GT$7reserve21do_reserve_and_handle17ha0aaa3d9fedc3bb6E>
 - func[836] size=299 <_ZN137_$LT$alloc..vec..Vec$LT$T$GT$$u20$as$u20$alloc..vec..spec_from_iter..SpecFromIter$LT$T$C$alloc..vec..into_iter..IntoIter$LT$T$GT$$GT$$GT$9from_iter17h8ecb9496464cf47aE>
 - func[837] size=373 <_ZN18sp_consensus_slots1_75_$LT$impl$u20$scale_info..TypeInfo$u20$for$u20$sp_consensus_slots..Slot$GT$9type_info17hc31637e440a793a6E>
 - func[838] size=273 <_ZN5alloc7raw_vec11finish_grow17h0b1c577229c24863E.llvm.11580869963335601200>
 - func[839] size=243 <_ZN5alloc7raw_vec19RawVec$LT$T$C$A$GT$16reserve_for_push17hd88043f3743d0526E>
 - func[840] size=245 <_ZN5alloc7raw_vec19RawVec$LT$T$C$A$GT$7reserve21do_reserve_and_handle17h1b816b11f77b7d18E>
 - func[841] size=245 <_ZN5alloc7raw_vec19RawVec$LT$T$C$A$GT$7reserve21do_reserve_and_handle17he1f884f6bdce96c7E>
 - func[842] size=374 <_ZN7sp_core5ecdsa1_76_$LT$impl$u20$scale_info..TypeInfo$u20$for$u20$sp_core..ecdsa..Signature$GT$9type_info17hcd8ad6e8634bf67aE>
 - func[843] size=238 <_ZN7sp_core1_64_$LT$impl$u20$scale_info..TypeInfo$u20$for$u20$sp_core..Void$GT$9type_info17h10d139fe635f3ba6E>
 - func[844] size=98 <_ZN10scale_info5impls73_$LT$impl$u20$scale_info..TypeInfo$u20$for$u20$$u5b$T$u3b$$u20$N$u5d$$GT$9type_info17h90b1929ad54f402bE>
 - func[845] size=99 <_ZN10scale_info5impls73_$LT$impl$u20$scale_info..TypeInfo$u20$for$u20$$u5b$T$u3b$$u20$N$u5d$$GT$9type_info17hbdce70522742218cE>
 - func[846] size=99 <_ZN10scale_info5impls73_$LT$impl$u20$scale_info..TypeInfo$u20$for$u20$$u5b$T$u3b$$u20$N$u5d$$GT$9type_info17hcca905aba12170a3E>
 - func[847] size=406 <_ZN99_$LT$parity_scale_codec..compact..Compact$LT$T$GT$$u20$as$u20$parity_scale_codec..codec..Encode$GT$9encode_to17hbd916ad4b2c92177E>
 - func[848] size=299 <_ZN137_$LT$alloc..vec..Vec$LT$T$GT$$u20$as$u20$alloc..vec..spec_from_iter..SpecFromIter$LT$T$C$alloc..vec..into_iter..IntoIter$LT$T$GT$$GT$$GT$9from_iter17h8ae690c49a8bd97bE>
 - func[849] size=299 <_ZN137_$LT$alloc..vec..Vec$LT$T$GT$$u20$as$u20$alloc..vec..spec_from_iter..SpecFromIter$LT$T$C$alloc..vec..into_iter..IntoIter$LT$T$GT$$GT$$GT$9from_iter17hcc20bd14bcf4350cE>
 - func[850] size=241 <_ZN55_$LT$X$u20$as$u20$parity_scale_codec..codec..Encode$GT$6encode17hd7dab68ed0702df0E>
 - func[851] size=373 <_ZN7sp_core7ed255191_75_$LT$impl$u20$scale_info..TypeInfo$u20$for$u20$sp_core..ed25519..Public$GT$9type_info17hb609b8105b4a9af3E>
 - func[852] size=374 <_ZN7sp_core7ed255191_78_$LT$impl$u20$scale_info..TypeInfo$u20$for$u20$sp_core..ed25519..Signature$GT$9type_info17h1ada91c18298faa8E>
 - func[853] size=373 <_ZN7sp_core7sr255191_75_$LT$impl$u20$scale_info..TypeInfo$u20$for$u20$sp_core..sr25519..Public$GT$9type_info17h1d5bdad343af0538E>
 - func[854] size=374 <_ZN7sp_core7sr255191_78_$LT$impl$u20$scale_info..TypeInfo$u20$for$u20$sp_core..sr25519..Signature$GT$9type_info17hf8bf3ab2eb3d2909E>
 - func[855] size=373 <_ZN7sp_core6crypto1_79_$LT$impl$u20$scale_info..TypeInfo$u20$for$u20$sp_core..crypto..AccountId32$GT$9type_info17h71d004c5624cdf62E>
 - func[856] size=30 <_ZN42_$LT$$RF$T$u20$as$u20$core..fmt..Debug$GT$3fmt17h258812ad35885f9cE>
 - func[857] size=366 <_ZN4core5array69_$LT$impl$u20$core..fmt..Debug$u20$for$u20$$u5b$T$u3b$$u20$N$u5d$$GT$3fmt17hdf5fd152f8bd4f40E>
 - func[858] size=2 <_ZN4core3ptr27drop_in_place$LT$$RF$u8$GT$17he30874e8bdb6b52fE.llvm.1637812024920382065>
 - func[859] size=15 <_ZN42_$LT$$RF$T$u20$as$u20$core..fmt..Debug$GT$3fmt17ha885398bac1a827cE>
 - func[860] size=374 <_ZN42_$LT$$RF$T$u20$as$u20$core..fmt..Debug$GT$3fmt17hbfd174bcfe41c3deE>
 - func[861] size=2 <_ZN4core3ptr48drop_in_place$LT$$RF$$u5b$u8$u3b$$u20$8$u5d$$GT$17h5a197589501cc2c4E>
 - func[862] size=395 <_ZN56_$LT$sp_inherents..Error$u20$as$u20$core..fmt..Debug$GT$3fmt17h86434760ac60b5e4E>
 - func[863] size=126 <_ZN18parity_scale_codec5codec17decode_from_bytes17h06bffb2c427c0e95E>
 - func[864] size=226 <_ZN18parity_scale_codec5codec19decode_vec_with_len17h6f7823a01fa0bed1E>
 - func[865] size=305 <_ZN5sp_io1_88_$LT$impl$u20$parity_scale_codec..codec..Decode$u20$for$u20$sp_io..KillStorageResult$GT$6decode17h5b417c3382d9cd3aE>
 - func[866] size=96 <_ZN4core3fmt9Arguments6as_str17ha4226fc8a4da16bdE.llvm.18132745779020557047>
 - func[867] size=210 <_ZN4core6option15Option$LT$T$GT$11map_or_else17h560c0a7093f73c5bE.llvm.18132745779020557047>
 - func[868] size=175 <rust_begin_unwind>
 - func[869] size=38 <_ZN5sp_io3oom17hb8317157bb9d2d3eE>
 - func[870] size=15 <__rg_oom>
 - func[871] size=231 <_ZN5sp_io6crypto26extern_host_function_impls16ed25519_generate17h83955b86a83051fcE>
 - func[872] size=25 <_ZN5sp_io6crypto26extern_host_function_impls14ed25519_verify17h06dae3e99bf19792E>
 - func[873] size=11 <_ZN5sp_io6crypto26extern_host_function_impls19finish_batch_verify17h3d5834c575fe0b20E>
 - func[874] size=339 <_ZN5sp_io6crypto26extern_host_function_impls34secp256k1_ecdsa_recover_compressed17h36261bf38f041bd9E>
 - func[875] size=231 <_ZN5sp_io6crypto26extern_host_function_impls16sr25519_generate17hf3dd29a0b1945220E>
 - func[876] size=25 <_ZN5sp_io6crypto26extern_host_function_impls14sr25519_verify17hf7132aeeb66c66cdE>
 - func[877] size=8 <_ZN5sp_io6crypto26extern_host_function_impls18start_batch_verify17he815c1ccb70972ccE>
 - func[878] size=49 <_ZN5sp_io7logging26extern_host_function_impls3log17hdd458f5180b51436E>
 - func[879] size=86 <_ZN5sp_io7logging26extern_host_function_impls9max_level17hf3fb18ed4b473410E>
 - func[880] size=62 <_ZN5sp_io7hashing26extern_host_function_impls10blake2_12817hfd5c56043582f973E>
 - func[881] size=94 <_ZN5sp_io7hashing26extern_host_function_impls10blake2_25617ha76166d93d964c2bE>
 - func[882] size=62 <_ZN5sp_io7hashing26extern_host_function_impls8twox_12817h120530b5c2b45a50E>
 - func[883] size=46 <_ZN5sp_io7hashing26extern_host_function_impls7twox_6417h2b0fd84814d016c1E>
 - func[884] size=360 <_ZN20sp_runtime_interface5impls82_$LT$impl$u20$sp_runtime_interface..wasm..IntoFFIValue$u20$for$u20$$u5b$T$u5d$$GT$14into_ffi_value17h6543d61a982078a9E>
 - func[885] size=269 <_ZN116_$LT$sp_runtime_interface..pass_by..Codec$LT$T$GT$$u20$as$u20$sp_runtime_interface..pass_by..PassByImpl$LT$T$GT$$GT$14from_ffi_value17h0952bdf04c147e92E>
 - func[886] size=18 <_ZN45_$LT$$LP$$RP$$u20$as$u20$core..fmt..Debug$GT$3fmt17hd3919e2cb60ad48eE.llvm.5061338377777191846>
 - func[887] size=2 <_ZN4core3ptr29drop_in_place$LT$$LP$$RP$$GT$17h7029b9b941b5f8feE.llvm.5061338377777191846>
 - func[888] size=15 <_ZN44_$LT$$RF$T$u20$as$u20$core..fmt..Display$GT$3fmt17hef8f8a3f65ea546aE>
 - func[889] size=414 <_ZN5sp_io4trie26extern_host_function_impls23blake2_256_ordered_root17h0c5d87eb7fd037c5E>
 - func[890] size=18 <_ZN5sp_io4misc26extern_host_function_impls9print_hex17he0fba415039901bfE>
 - func[891] size=18 <_ZN5sp_io4misc26extern_host_function_impls10print_utf817hba00e646ef772a07E>
 - func[892] size=289 <_ZN5sp_io4misc26extern_host_function_impls15runtime_version17h050b914a4171a2ecE>
 - func[893] size=10 <_ZN5sp_io9allocator26extern_host_function_impls4free17hef40bdd7cd4d0433E>
 - func[894] size=10 <_ZN5sp_io9allocator26extern_host_function_impls6malloc17h7901224d9cf7bfe6E>
 - func[895] size=70 <_ZN5sp_io7storage26extern_host_function_impls6append17h8ce576ec0bc31e79E>
 - func[896] size=18 <_ZN5sp_io7storage26extern_host_function_impls5clear17h12dcaf19067a30eeE>
 - func[897] size=373 <_ZN5sp_io7storage26extern_host_function_impls12clear_prefix17h9dcc72783bbd7f3fE>
 - func[898] size=8 <_ZN5sp_io7storage26extern_host_function_impls18commit_transaction17hc4603b40e880d893E>
 - func[899] size=21 <_ZN5sp_io7storage26extern_host_function_impls6exists17h6c662ff36cb263e2E>
 - func[900] size=283 <_ZN5sp_io7storage26extern_host_function_impls3get17h367f9f202d104f1eE>
 - func[901] size=95 <_ZN5sp_io7storage26extern_host_function_impls4read17h77ecc3471e2db9c6E>
 - func[902] size=8 <_ZN5sp_io7storage26extern_host_function_impls20rollback_transaction17ha01b8c5fa848c919E>
 - func[903] size=65 <_ZN5sp_io7storage26extern_host_function_impls4root17hb3dd64bbf0c7c7edE>
 - func[904] size=28 <_ZN5sp_io7storage26extern_host_function_impls3set17h30dab56f3cf5e7a2E>
 - func[905] size=8 <_ZN5sp_io7storage26extern_host_function_impls17start_transaction17h54d48168b5039ab1E>
 - func[906] size=425 <_ZN87_$LT$core..result..Result$LT$T$C$E$GT$$u20$as$u20$parity_scale_codec..codec..Decode$GT$6decode17h3f3cea199be19c52E>
 - func[907] size=385 <_ZN18parity_scale_codec5codec6Encode6encode17hcf409ef3fe6a064dE>
 - func[908] size=515 <_ZN83_$LT$core..option..Option$LT$T$GT$$u20$as$u20$parity_scale_codec..codec..Decode$GT$6decode17h7318d15f00e2351aE>
 - func[909] size=263 <_ZN83_$LT$core..option..Option$LT$T$GT$$u20$as$u20$parity_scale_codec..codec..Decode$GT$6decode17h7aa2d462bfdbe386E>
 - func[910] size=242 <_ZN83_$LT$core..option..Option$LT$T$GT$$u20$as$u20$parity_scale_codec..codec..Decode$GT$6decode17h6380877453b2061cE>
 - func[911] size=469 <_ZN101_$LT$parity_scale_codec..compact..Compact$LT$u32$GT$$u20$as$u20$parity_scale_codec..codec..Decode$GT$6decode17h785b24b82b1b6a3dE>
 - func[912] size=300 <_ZN102_$LT$parity_scale_codec..compact..PrefixInput$LT$T$GT$$u20$as$u20$parity_scale_codec..codec..Input$GT$4read17h811ca8eb1e2fe791E>
 - func[913] size=406 <_ZN99_$LT$parity_scale_codec..compact..Compact$LT$T$GT$$u20$as$u20$parity_scale_codec..codec..Encode$GT$9encode_to17h86253c8162a8e8c5E>
 - func[914] size=273 <_ZN5alloc7raw_vec11finish_grow17h7d121c37cb77ac9dE.llvm.10581263871572552565>
 - func[915] size=243 <_ZN5alloc7raw_vec19RawVec$LT$T$C$A$GT$16reserve_for_push17h386a161fe6d89062E>
 - func[916] size=243 <_ZN5alloc7raw_vec19RawVec$LT$T$C$A$GT$16reserve_for_push17hcaa190e319bd214bE>
 - func[917] size=243 <_ZN5alloc7raw_vec19RawVec$LT$T$C$A$GT$16reserve_for_push17hcd022027e77b6ff0E>
 - func[918] size=246 <_ZN5alloc7raw_vec19RawVec$LT$T$C$A$GT$7reserve21do_reserve_and_handle17h07d68f76b14d6a35E>
 - func[919] size=245 <_ZN5alloc7raw_vec19RawVec$LT$T$C$A$GT$7reserve21do_reserve_and_handle17h76926f13f5c5794cE>
 - func[920] size=245 <_ZN5alloc7raw_vec19RawVec$LT$T$C$A$GT$7reserve21do_reserve_and_handle17h8fd9e65c8ac69f69E>
 - func[921] size=245 <_ZN5alloc7raw_vec19RawVec$LT$T$C$A$GT$7reserve21do_reserve_and_handle17habda88e70e028728E>
 - func[922] size=311 <_ZN10scale_info5build17Variants$LT$F$GT$7variant17h01a5ba2e720c931cE>
 - func[923] size=311 <_ZN10scale_info5build17Variants$LT$F$GT$7variant17h04acf876441eb80cE>
 - func[924] size=315 <_ZN10scale_info5build17Variants$LT$F$GT$7variant17h04ada81864be33ceE>
 - func[925] size=311 <_ZN10scale_info5build17Variants$LT$F$GT$7variant17h04d646085ce323bdE>
 - func[926] size=311 <_ZN10scale_info5build17Variants$LT$F$GT$7variant17h0540c066020e2511E>
 - func[927] size=311 <_ZN10scale_info5build17Variants$LT$F$GT$7variant17h0559f5de1f998ebaE>
 - func[928] size=311 <_ZN10scale_info5build17Variants$LT$F$GT$7variant17h06dfd7e62e01d566E>
 - func[929] size=310 <_ZN10scale_info5build17Variants$LT$F$GT$7variant17h08516da0f6c9e965E>
 - func[930] size=311 <_ZN10scale_info5build17Variants$LT$F$GT$7variant17h085447046fe8e3f2E>
 - func[931] size=311 <_ZN10scale_info5build17Variants$LT$F$GT$7variant17h08db24cce0f11b10E>
 - func[932] size=311 <_ZN10scale_info5build17Variants$LT$F$GT$7variant17h096513b97c529591E>
 - func[933] size=311 <_ZN10scale_info5build17Variants$LT$F$GT$7variant17h0d9e3277d81d6b71E>
 - func[934] size=310 <_ZN10scale_info5build17Variants$LT$F$GT$7variant17h0fa06ebf134b0489E>
 - func[935] size=316 <_ZN10scale_info5build17Variants$LT$F$GT$7variant17h124a69c2515a946bE>
 - func[936] size=311 <_ZN10scale_info5build17Variants$LT$F$GT$7variant17h125b33cc7629e0a5E>
 - func[937] size=311 <_ZN10scale_info5build17Variants$LT$F$GT$7variant17h1395eaa45e9e4f6cE>
 - func[938] size=311 <_ZN10scale_info5build17Variants$LT$F$GT$7variant17h148dd9e46fd98f9bE>
 - func[939] size=311 <_ZN10scale_info5build17Variants$LT$F$GT$7variant17h14cfb64efe76e656E>
 - func[940] size=311 <_ZN10scale_info5build17Variants$LT$F$GT$7variant17h1520ca40e401df66E>
 - func[941] size=310 <_ZN10scale_info5build17Variants$LT$F$GT$7variant17h164154b091e3fa4aE>
 - func[942] size=316 <_ZN10scale_info5build17Variants$LT$F$GT$7variant17h1801e7a4bdb57e8bE>
 - func[943] size=311 <_ZN10scale_info5build17Variants$LT$F$GT$7variant17h192c8b2c2be6448fE>
 - func[944] size=310 <_ZN10scale_info5build17Variants$LT$F$GT$7variant17h19c65f2a7ace9d74E>
 - func[945] size=311 <_ZN10scale_info5build17Variants$LT$F$GT$7variant17h1a072644d6b6a8c8E>
 - func[946] size=311 <_ZN10scale_info5build17Variants$LT$F$GT$7variant17h1a2ef2dd828e9c58E>
 - func[947] size=311 <_ZN10scale_info5build17Variants$LT$F$GT$7variant17h1aacaa4e985b7bf0E>
 - func[948] size=311 <_ZN10scale_info5build17Variants$LT$F$GT$7variant17h1af42b60a485b44fE>
 - func[949] size=311 <_ZN10scale_info5build17Variants$LT$F$GT$7variant17h1b7b10b1f72f4697E>
 - func[950] size=311 <_ZN10scale_info5build17Variants$LT$F$GT$7variant17h1b884a710d921482E>
 - func[951] size=311 <_ZN10scale_info5build17Variants$LT$F$GT$7variant17h1c1a56480d70100bE>
 - func[952] size=311 <_ZN10scale_info5build17Variants$LT$F$GT$7variant17h1c416d1354b9fa3dE>
 - func[953] size=311 <_ZN10scale_info5build17Variants$LT$F$GT$7variant17h1ce86dc7e837c6a5E>
 - func[954] size=311 <_ZN10scale_info5build17Variants$LT$F$GT$7variant17h1cf304bbef4a4290E>
 - func[955] size=311 <_ZN10scale_info5build17Variants$LT$F$GT$7variant17h1f36e611e7f5ca52E>
 - func[956] size=311 <_ZN10scale_info5build17Variants$LT$F$GT$7variant17h1fd6177183e7b359E>
 - func[957] size=311 <_ZN10scale_info5build17Variants$LT$F$GT$7variant17h20828d30cd8d7d9cE>
 - func[958] size=311 <_ZN10scale_info5build17Variants$LT$F$GT$7variant17h20db786f9234e3a0E>
 - func[959] size=310 <_ZN10scale_info5build17Variants$LT$F$GT$7variant17h22200ed001974ec6E>
 - func[960] size=311 <_ZN10scale_info5build17Variants$LT$F$GT$7variant17h22239a6d8e8bd4b8E>
 - func[961] size=311 <_ZN10scale_info5build17Variants$LT$F$GT$7variant17h2243c83cab14338aE>
 - func[962] size=311 <_ZN10scale_info5build17Variants$LT$F$GT$7variant17h22c86dd04a2dbcc9E>
 - func[963] size=310 <_ZN10scale_info5build17Variants$LT$F$GT$7variant17h22cf8d4dee74286aE>
 - func[964] size=311 <_ZN10scale_info5build17Variants$LT$F$GT$7variant17h23b5413d215d9b74E>
 - func[965] size=311 <_ZN10scale_info5build17Variants$LT$F$GT$7variant17h23e919e1945cc9f9E>
 - func[966] size=311 <_ZN10scale_info5build17Variants$LT$F$GT$7variant17h2401782b207ab259E>
 - func[967] size=311 <_ZN10scale_info5build17Variants$LT$F$GT$7variant17h2466aa2338d08af0E>
 - func[968] size=311 <_ZN10scale_info5build17Variants$LT$F$GT$7variant17h24705450119d88efE>
 - func[969] size=310 <_ZN10scale_info5build17Variants$LT$F$GT$7variant17h255e06c8995f022eE>
 - func[970] size=311 <_ZN10scale_info5build17Variants$LT$F$GT$7variant17h258f141c2f5ef0d5E>
 - func[971] size=310 <_ZN10scale_info5build17Variants$LT$F$GT$7variant17h26da2df0c7933caaE>
 - func[972] size=311 <_ZN10scale_info5build17Variants$LT$F$GT$7variant17h2770d99bc6162c92E>
 - func[973] size=310 <_ZN10scale_info5build17Variants$LT$F$GT$7variant17h28d32f043c03e5fcE>
 - func[974] size=311 <_ZN10scale_info5build17Variants$LT$F$GT$7variant17h293786a650d3d870E>
 - func[975] size=311 <_ZN10scale_info5build17Variants$LT$F$GT$7variant17h2ce0d9797870f8ddE>
 - func[976] size=311 <_ZN10scale_info5build17Variants$LT$F$GT$7variant17h2f61b3a638aeaf2eE>
 - func[977] size=311 <_ZN10scale_info5build17Variants$LT$F$GT$7variant17h31ef90939ea6b956E>
 - func[978] size=311 <_ZN10scale_info5build17Variants$LT$F$GT$7variant17h3230c32c0d6a20e7E>
 - func[979] size=311 <_ZN10scale_info5build17Variants$LT$F$GT$7variant17h33e423eccb06c85fE>
 - func[980] size=311 <_ZN10scale_info5build17Variants$LT$F$GT$7variant17h341b03b265d30ff4E>
 - func[981] size=311 <_ZN10scale_info5build17Variants$LT$F$GT$7variant17h34bc999ee3c17544E>
 - func[982] size=311 <_ZN10scale_info5build17Variants$LT$F$GT$7variant17h34f360bdf513f848E>
 - func[983] size=310 <_ZN10scale_info5build17Variants$LT$F$GT$7variant17h360aea7b685d82bbE>
 - func[984] size=311 <_ZN10scale_info5build17Variants$LT$F$GT$7variant17h374db26948baf8d4E>
 - func[985] size=310 <_ZN10scale_info5build17Variants$LT$F$GT$7variant17h37cda8f96faf5b3dE>
 - func[986] size=311 <_ZN10scale_info5build17Variants$LT$F$GT$7variant17h38910ba0b0c8ef72E>
 - func[987] size=311 <_ZN10scale_info5build17Variants$LT$F$GT$7variant17h38b9553b40d465e6E>
 - func[988] size=316 <_ZN10scale_info5build17Variants$LT$F$GT$7variant17h38e350ea6a67c18dE>
 - func[989] size=311 <_ZN10scale_info5build17Variants$LT$F$GT$7variant17h3af96c22e4cdb638E>
 - func[990] size=311 <_ZN10scale_info5build17Variants$LT$F$GT$7variant17h3b1a32ec005f1394E>
 - func[991] size=311 <_ZN10scale_info5build17Variants$LT$F$GT$7variant17h3b9929c3301d9973E>
 - func[992] size=311 <_ZN10scale_info5build17Variants$LT$F$GT$7variant17h3c9debd76d7b1474E>
 - func[993] size=315 <_ZN10scale_info5build17Variants$LT$F$GT$7variant17h3e61f76adc17df36E>
 - func[994] size=311 <_ZN10scale_info5build17Variants$LT$F$GT$7variant17h476902b5829b3a82E>
 - func[995] size=479 <_ZN10scale_info5build17Variants$LT$F$GT$7variant17h477cd920889f2a1aE>
 - func[996] size=311 <_ZN10scale_info5build17Variants$LT$F$GT$7variant17h48daf5463ef61be0E>
 - func[997] size=311 <_ZN10scale_info5build17Variants$LT$F$GT$7variant17h49a0a0ef06091aeeE>
 - func[998] size=311 <_ZN10scale_info5build17Variants$LT$F$GT$7variant17h4b14ed5da25ee2a3E>
 - func[999] size=310 <_ZN10scale_info5build17Variants$LT$F$GT$7variant17h4baf5a9b5de59ea6E>
 - func[1000] size=315 <_ZN10scale_info5build17Variants$LT$F$GT$7variant17h4e1f789c14d61e57E>
 - func[1001] size=310 <_ZN10scale_info5build17Variants$LT$F$GT$7variant17h4eeee069725958f7E>
 - func[1002] size=311 <_ZN10scale_info5build17Variants$LT$F$GT$7variant17h51b2a9af0ab543f7E>
 - func[1003] size=315 <_ZN10scale_info5build17Variants$LT$F$GT$7variant17h5243f9a6c31f6c9fE>
 - func[1004] size=311 <_ZN10scale_info5build17Variants$LT$F$GT$7variant17h52ca03635f4e375eE>
 - func[1005] size=311 <_ZN10scale_info5build17Variants$LT$F$GT$7variant17h52df7368ec64caa8E>
 - func[1006] size=311 <_ZN10scale_info5build17Variants$LT$F$GT$7variant17h5776f841440921efE>
 - func[1007] size=311 <_ZN10scale_info5build17Variants$LT$F$GT$7variant17h578328eebfc1d983E>
 - func[1008] size=311 <_ZN10scale_info5build17Variants$LT$F$GT$7variant17h589646399d580125E>
 - func[1009] size=310 <_ZN10scale_info5build17Variants$LT$F$GT$7variant17h589b1f645fc60c8bE>
 - func[1010] size=311 <_ZN10scale_info5build17Variants$LT$F$GT$7variant17h58c44bf35e3abf28E>
 - func[1011] size=315 <_ZN10scale_info5build17Variants$LT$F$GT$7variant17h58f0502975542400E>
 - func[1012] size=310 <_ZN10scale_info5build17Variants$LT$F$GT$7variant17h599b5617129bdedaE>
 - func[1013] size=311 <_ZN10scale_info5build17Variants$LT$F$GT$7variant17h5a4e71dcfe5a708dE>
 - func[1014] size=310 <_ZN10scale_info5build17Variants$LT$F$GT$7variant17h5d0823668af9c9f6E>
 - func[1015] size=311 <_ZN10scale_info5build17Variants$LT$F$GT$7variant17h5ec2dbe8c4cfb111E>
 - func[1016] size=311 <_ZN10scale_info5build17Variants$LT$F$GT$7variant17h61c7a8736e39b053E>
 - func[1017] size=311 <_ZN10scale_info5build17Variants$LT$F$GT$7variant17h6336c414df4ab917E>
 - func[1018] size=311 <_ZN10scale_info5build17Variants$LT$F$GT$7variant17h64f3e5f4d7297b21E>
 - func[1019] size=310 <_ZN10scale_info5build17Variants$LT$F$GT$7variant17h6523322b9af297bcE>
 - func[1020] size=311 <_ZN10scale_info5build17Variants$LT$F$GT$7variant17h68c936f00f00cbf7E>
 - func[1021] size=310 <_ZN10scale_info5build17Variants$LT$F$GT$7variant17h6a38d27fcd97729dE>
 - func[1022] size=311 <_ZN10scale_info5build17Variants$LT$F$GT$7variant17h6a930950f4d92c56E>
 - func[1023] size=311 <_ZN10scale_info5build17Variants$LT$F$GT$7variant17h6d34cc8fefb70c9cE>
 - func[1024] size=311 <_ZN10scale_info5build17Variants$LT$F$GT$7variant17h6dc90177b4d99751E>
 - func[1025] size=310 <_ZN10scale_info5build17Variants$LT$F$GT$7variant17h6e13ca746b0559faE>
 - func[1026] size=311 <_ZN10scale_info5build17Variants$LT$F$GT$7variant17h6e1e6eac33b5c468E>
 - func[1027] size=311 <_ZN10scale_info5build17Variants$LT$F$GT$7variant17h6e2379fd470af597E>
 - func[1028] size=311 <_ZN10scale_info5build17Variants$LT$F$GT$7variant17h6ed1e5a89b057999E>
 - func[1029] size=311 <_ZN10scale_info5build17Variants$LT$F$GT$7variant17h6f6f5ba42bc73a83E>
 - func[1030] size=310 <_ZN10scale_info5build17Variants$LT$F$GT$7variant17h706f9014f6f2e28cE>
 - func[1031] size=311 <_ZN10scale_info5build17Variants$LT$F$GT$7variant17h723629c743e27da2E>
 - func[1032] size=311 <_ZN10scale_info5build17Variants$LT$F$GT$7variant17h73b7b69388f57c8fE>
 - func[1033] size=311 <_ZN10scale_info5build17Variants$LT$F$GT$7variant17h7419ca99a7e6db17E>
 - func[1034] size=311 <_ZN10scale_info5build17Variants$LT$F$GT$7variant17h75220ec4a82835deE>
 - func[1035] size=311 <_ZN10scale_info5build17Variants$LT$F$GT$7variant17h7600994f523a0b4fE>
 - func[1036] size=311 <_ZN10scale_info5build17Variants$LT$F$GT$7variant17h772bd53056be52fcE>
 - func[1037] size=310 <_ZN10scale_info5build17Variants$LT$F$GT$7variant17h77d35c4dedc9669cE>
 - func[1038] size=479 <_ZN10scale_info5build17Variants$LT$F$GT$7variant17h77d957c312544862E>
 - func[1039] size=311 <_ZN10scale_info5build17Variants$LT$F$GT$7variant17h78c0387272ed84d2E>
 - func[1040] size=311 <_ZN10scale_info5build17Variants$LT$F$GT$7variant17h791e50db2ad1248aE>
 - func[1041] size=310 <_ZN10scale_info5build17Variants$LT$F$GT$7variant17h7931942f03b9997bE>
 - func[1042] size=311 <_ZN10scale_info5build17Variants$LT$F$GT$7variant17h7c1957dacbb56edcE>
 - func[1043] size=311 <_ZN10scale_info5build17Variants$LT$F$GT$7variant17h7c428feae4758d7eE>
 - func[1044] size=311 <_ZN10scale_info5build17Variants$LT$F$GT$7variant17h7d829887e3766100E>
 - func[1045] size=310 <_ZN10scale_info5build17Variants$LT$F$GT$7variant17h7daac54b393d8ab9E>
 - func[1046] size=311 <_ZN10scale_info5build17Variants$LT$F$GT$7variant17h7e6ea46f3ff4f4b3E>
 - func[1047] size=311 <_ZN10scale_info5build17Variants$LT$F$GT$7variant17h7f32d16e556204c7E>
 - func[1048] size=311 <_ZN10scale_info5build17Variants$LT$F$GT$7variant17h7f84bf05f66c009bE>
 - func[1049] size=311 <_ZN10scale_info5build17Variants$LT$F$GT$7variant17h806985daae2ffb42E>
 - func[1050] size=311 <_ZN10scale_info5build17Variants$LT$F$GT$7variant17h80a79e1f573bffaeE>
 - func[1051] size=311 <_ZN10scale_info5build17Variants$LT$F$GT$7variant17h81a319aa83c1de80E>
 - func[1052] size=311 <_ZN10scale_info5build17Variants$LT$F$GT$7variant17h81c9e4d9c4eb322cE>
 - func[1053] size=311 <_ZN10scale_info5build17Variants$LT$F$GT$7variant17h829ac2efa7e96fbaE>
 - func[1054] size=310 <_ZN10scale_info5build17Variants$LT$F$GT$7variant17h835054d5cc4e8590E>
 - func[1055] size=311 <_ZN10scale_info5build17Variants$LT$F$GT$7variant17h8391963ac14d9984E>
 - func[1056] size=310 <_ZN10scale_info5build17Variants$LT$F$GT$7variant17h83cbcf9a08287442E>
 - func[1057] size=311 <_ZN10scale_info5build17Variants$LT$F$GT$7variant17h83f497b0678393c4E>
 - func[1058] size=311 <_ZN10scale_info5build17Variants$LT$F$GT$7variant17h8602eaeb2e2bca5eE>
 - func[1059] size=310 <_ZN10scale_info5build17Variants$LT$F$GT$7variant17h878b5d8748a7f9deE>
 - func[1060] size=311 <_ZN10scale_info5build17Variants$LT$F$GT$7variant17h89fba3187b1bb802E>
 - func[1061] size=310 <_ZN10scale_info5build17Variants$LT$F$GT$7variant17h8bbbeba03fabe736E>
 - func[1062] size=311 <_ZN10scale_info5build17Variants$LT$F$GT$7variant17h8cbe6d1f5af93976E>
 - func[1063] size=311 <_ZN10scale_info5build17Variants$LT$F$GT$7variant17h8da14ee70b658f8eE>
 - func[1064] size=311 <_ZN10scale_info5build17Variants$LT$F$GT$7variant17h8f4e32ef5d3a5707E>
 - func[1065] size=311 <_ZN10scale_info5build17Variants$LT$F$GT$7variant17h8f94de160ce7aba5E>
 - func[1066] size=310 <_ZN10scale_info5build17Variants$LT$F$GT$7variant17h8fd388739dd3bec5E>
 - func[1067] size=311 <_ZN10scale_info5build17Variants$LT$F$GT$7variant17h904aec1b96993ba7E>
 - func[1068] size=311 <_ZN10scale_info5build17Variants$LT$F$GT$7variant17h9427210f71f76c04E>
 - func[1069] size=311 <_ZN10scale_info5build17Variants$LT$F$GT$7variant17h94d49d7541dbf564E>
 - func[1070] size=311 <_ZN10scale_info5build17Variants$LT$F$GT$7variant17h96afaae5b2efea78E>
 - func[1071] size=310 <_ZN10scale_info5build17Variants$LT$F$GT$7variant17h96bd491a8ab9d5cbE>
 - func[1072] size=310 <_ZN10scale_info5build17Variants$LT$F$GT$7variant17h96bf5be5af0f15daE>
 - func[1073] size=311 <_ZN10scale_info5build17Variants$LT$F$GT$7variant17h96fdbffaf0bbea73E>
 - func[1074] size=310 <_ZN10scale_info5build17Variants$LT$F$GT$7variant17h98b39b5efb544e55E>
 - func[1075] size=311 <_ZN10scale_info5build17Variants$LT$F$GT$7variant17h98d7a604387c436eE>
 - func[1076] size=310 <_ZN10scale_info5build17Variants$LT$F$GT$7variant17h99395f5c87c411fcE>
 - func[1077] size=311 <_ZN10scale_info5build17Variants$LT$F$GT$7variant17h9a0a1126078328bbE>
 - func[1078] size=311 <_ZN10scale_info5build17Variants$LT$F$GT$7variant17h9b53d2605f4f83e8E>
 - func[1079] size=311 <_ZN10scale_info5build17Variants$LT$F$GT$7variant17h9c2b404d26f956faE>
 - func[1080] size=311 <_ZN10scale_info5build17Variants$LT$F$GT$7variant17h9cb4da2db48d68b8E>
 - func[1081] size=311 <_ZN10scale_info5build17Variants$LT$F$GT$7variant17h9cf4bd4bbfd0fc79E>
 - func[1082] size=310 <_ZN10scale_info5build17Variants$LT$F$GT$7variant17h9d11b0166e485b82E>
 - func[1083] size=311 <_ZN10scale_info5build17Variants$LT$F$GT$7variant17h9d491bbaa6cb718cE>
 - func[1084] size=310 <_ZN10scale_info5build17Variants$LT$F$GT$7variant17h9e7a0b652dd19723E>
 - func[1085] size=311 <_ZN10scale_info5build17Variants$LT$F$GT$7variant17h9f041a7d27e5cf92E>
 - func[1086] size=311 <_ZN10scale_info5build17Variants$LT$F$GT$7variant17ha06ad340799531a4E>
 - func[1087] size=311 <_ZN10scale_info5build17Variants$LT$F$GT$7variant17ha06af0496606ee7eE>
 - func[1088] size=311 <_ZN10scale_info5build17Variants$LT$F$GT$7variant17ha18ce08b76f74d56E>
 - func[1089] size=310 <_ZN10scale_info5build17Variants$LT$F$GT$7variant17ha2c0199492ed2fedE>
 - func[1090] size=311 <_ZN10scale_info5build17Variants$LT$F$GT$7variant17ha3e1005b52f4664dE>
 - func[1091] size=311 <_ZN10scale_info5build17Variants$LT$F$GT$7variant17ha46062d892e9c6c1E>
 - func[1092] size=311 <_ZN10scale_info5build17Variants$LT$F$GT$7variant17ha5a78a5a87be3e43E>
 - func[1093] size=311 <_ZN10scale_info5build17Variants$LT$F$GT$7variant17ha7b69f5de32ef1eeE>
 - func[1094] size=311 <_ZN10scale_info5build17Variants$LT$F$GT$7variant17ha9d8704cb52d6f93E>
 - func[1095] size=311 <_ZN10scale_info5build17Variants$LT$F$GT$7variant17haa0625a7ff86e7f1E>
 - func[1096] size=311 <_ZN10scale_info5build17Variants$LT$F$GT$7variant17haa39c95c06efd0efE>
 - func[1097] size=310 <_ZN10scale_info5build17Variants$LT$F$GT$7variant17haa41be982e4630a5E>
 - func[1098] size=310 <_ZN10scale_info5build17Variants$LT$F$GT$7variant17haaf528a78f4b047bE>
 - func[1099] size=311 <_ZN10scale_info5build17Variants$LT$F$GT$7variant17habe991341640cf31E>
 - func[1100] size=311 <_ZN10scale_info5build17Variants$LT$F$GT$7variant17hac1857bb54f3b3c8E>
 - func[1101] size=310 <_ZN10scale_info5build17Variants$LT$F$GT$7variant17haf5999e467efac38E>
 - func[1102] size=311 <_ZN10scale_info5build17Variants$LT$F$GT$7variant17haf82f4e280a78844E>
 - func[1103] size=310 <_ZN10scale_info5build17Variants$LT$F$GT$7variant17hb00790b3504be0afE>
 - func[1104] size=311 <_ZN10scale_info5build17Variants$LT$F$GT$7variant17hb0702d6ed399e3abE>
 - func[1105] size=311 <_ZN10scale_info5build17Variants$LT$F$GT$7variant17hb15f9b9e2fa35ba0E>
 - func[1106] size=310 <_ZN10scale_info5build17Variants$LT$F$GT$7variant17hb196dadf906a5242E>
 - func[1107] size=311 <_ZN10scale_info5build17Variants$LT$F$GT$7variant17hb1ac37dad07edebcE>
 - func[1108] size=310 <_ZN10scale_info5build17Variants$LT$F$GT$7variant17hb30282b8958b7b6eE>
 - func[1109] size=311 <_ZN10scale_info5build17Variants$LT$F$GT$7variant17hb465ce748cf29b9dE>
 - func[1110] size=311 <_ZN10scale_info5build17Variants$LT$F$GT$7variant17hb4989fd6164e3e43E>
 - func[1111] size=311 <_ZN10scale_info5build17Variants$LT$F$GT$7variant17hb4a655ca3869629dE>
 - func[1112] size=311 <_ZN10scale_info5build17Variants$LT$F$GT$7variant17hb4b1f664d06fb570E>
 - func[1113] size=311 <_ZN10scale_info5build17Variants$LT$F$GT$7variant17hb506a64c4b04256aE>
 - func[1114] size=311 <_ZN10scale_info5build17Variants$LT$F$GT$7variant17hb6b05b580fc4f937E>
 - func[1115] size=311 <_ZN10scale_info5build17Variants$LT$F$GT$7variant17hb7e71627a336c831E>
 - func[1116] size=311 <_ZN10scale_info5build17Variants$LT$F$GT$7variant17hb81d780597585ffeE>
 - func[1117] size=310 <_ZN10scale_info5build17Variants$LT$F$GT$7variant17hba6a102831acacdfE>
 - func[1118] size=311 <_ZN10scale_info5build17Variants$LT$F$GT$7variant17hbb6c68a8b69fe4b2E>
 - func[1119] size=311 <_ZN10scale_info5build17Variants$LT$F$GT$7variant17hbc8ff3fea4a395b1E>
 - func[1120] size=311 <_ZN10scale_info5build17Variants$LT$F$GT$7variant17hbca9a0d3fbad1a67E>
 - func[1121] size=311 <_ZN10scale_info5build17Variants$LT$F$GT$7variant17hbec4481e67d22318E>
 - func[1122] size=311 <_ZN10scale_info5build17Variants$LT$F$GT$7variant17hbf1efcf1c4866103E>
 - func[1123] size=310 <_ZN10scale_info5build17Variants$LT$F$GT$7variant17hc2160fd3db78386eE>
 - func[1124] size=310 <_ZN10scale_info5build17Variants$LT$F$GT$7variant17hc21f3066a531f052E>
 - func[1125] size=310 <_ZN10scale_info5build17Variants$LT$F$GT$7variant17hc279889861037287E>
 - func[1126] size=311 <_ZN10scale_info5build17Variants$LT$F$GT$7variant17hc2d55e2d38c20999E>
 - func[1127] size=311 <_ZN10scale_info5build17Variants$LT$F$GT$7variant17hc48bd5446bb13bb9E>
 - func[1128] size=310 <_ZN10scale_info5build17Variants$LT$F$GT$7variant17hc5ae16e481ff7803E>
 - func[1129] size=311 <_ZN10scale_info5build17Variants$LT$F$GT$7variant17hc60f598b5e3ff1f2E>
 - func[1130] size=311 <_ZN10scale_info5build17Variants$LT$F$GT$7variant17hc6a18a43e888adc7E>
 - func[1131] size=310 <_ZN10scale_info5build17Variants$LT$F$GT$7variant17hc7499710e0e17f33E>
 - func[1132] size=311 <_ZN10scale_info5build17Variants$LT$F$GT$7variant17hcdb906355d6def49E>
 - func[1133] size=311 <_ZN10scale_info5build17Variants$LT$F$GT$7variant17hcec2fba5c1300f18E>
 - func[1134] size=310 <_ZN10scale_info5build17Variants$LT$F$GT$7variant17hcf1b552e4bb36d68E>
 - func[1135] size=311 <_ZN10scale_info5build17Variants$LT$F$GT$7variant17hcf2ffa2134cbd5edE>
 - func[1136] size=311 <_ZN10scale_info5build17Variants$LT$F$GT$7variant17hcf532eec96a5e4c1E>
 - func[1137] size=310 <_ZN10scale_info5build17Variants$LT$F$GT$7variant17hcf8db0ff2c657420E>
 - func[1138] size=310 <_ZN10scale_info5build17Variants$LT$F$GT$7variant17hcf9349e611d20b40E>
 - func[1139] size=310 <_ZN10scale_info5build17Variants$LT$F$GT$7variant17hcffcab1885899713E>
 - func[1140] size=311 <_ZN10scale_info5build17Variants$LT$F$GT$7variant17hd2326dd93989b758E>
 - func[1141] size=311 <_ZN10scale_info5build17Variants$LT$F$GT$7variant17hd54897ea3926d513E>
 - func[1142] size=310 <_ZN10scale_info5build17Variants$LT$F$GT$7variant17hd54fcf3a73b5bddaE>
 - func[1143] size=311 <_ZN10scale_info5build17Variants$LT$F$GT$7variant17hd5535a3d1dd9a7e9E>
 - func[1144] size=311 <_ZN10scale_info5build17Variants$LT$F$GT$7variant17hd5ad1c151af4806bE>
 - func[1145] size=311 <_ZN10scale_info5build17Variants$LT$F$GT$7variant17hd79ed0271836e6cbE>
 - func[1146] size=310 <_ZN10scale_info5build17Variants$LT$F$GT$7variant17hd8282191c61a5a73E>
 - func[1147] size=310 <_ZN10scale_info5build17Variants$LT$F$GT$7variant17hd99042578e446c61E>
 - func[1148] size=311 <_ZN10scale_info5build17Variants$LT$F$GT$7variant17hda7f2587dbd74049E>
 - func[1149] size=311 <_ZN10scale_info5build17Variants$LT$F$GT$7variant17hdd6490c418cf55c8E>
 - func[1150] size=311 <_ZN10scale_info5build17Variants$LT$F$GT$7variant17hde18472e75bcf23fE>
 - func[1151] size=311 <_ZN10scale_info5build17Variants$LT$F$GT$7variant17hde2d7656617dbfb9E>
 - func[1152] size=311 <_ZN10scale_info5build17Variants$LT$F$GT$7variant17hde63e23e23b24419E>
 - func[1153] size=310 <_ZN10scale_info5build17Variants$LT$F$GT$7variant17hdef9fbd6b4108012E>
 - func[1154] size=310 <_ZN10scale_info5build17Variants$LT$F$GT$7variant17hdf7e5ccaefc92e29E>
 - func[1155] size=311 <_ZN10scale_info5build17Variants$LT$F$GT$7variant17he0c55835f0070f27E>
 - func[1156] size=311 <_ZN10scale_info5build17Variants$LT$F$GT$7variant17he2cf3b62b3ee493bE>
 - func[1157] size=311 <_ZN10scale_info5build17Variants$LT$F$GT$7variant17he3048cfb4a9351a9E>
 - func[1158] size=311 <_ZN10scale_info5build17Variants$LT$F$GT$7variant17he405d878a21fee9aE>
 - func[1159] size=311 <_ZN10scale_info5build17Variants$LT$F$GT$7variant17he40ea26342c177c9E>
 - func[1160] size=311 <_ZN10scale_info5build17Variants$LT$F$GT$7variant17he64ec50f7602ddb2E>
 - func[1161] size=311 <_ZN10scale_info5build17Variants$LT$F$GT$7variant17he6b6e8e89fbff4d4E>
 - func[1162] size=311 <_ZN10scale_info5build17Variants$LT$F$GT$7variant17he725bac1ebb3d86fE>
 - func[1163] size=311 <_ZN10scale_info5build17Variants$LT$F$GT$7variant17he780deb4ab890305E>
 - func[1164] size=310 <_ZN10scale_info5build17Variants$LT$F$GT$7variant17he8060fa50c1246b7E>
 - func[1165] size=311 <_ZN10scale_info5build17Variants$LT$F$GT$7variant17he8dac1c3e91d6c35E>
 - func[1166] size=311 <_ZN10scale_info5build17Variants$LT$F$GT$7variant17he9eba387db4d005aE>
 - func[1167] size=310 <_ZN10scale_info5build17Variants$LT$F$GT$7variant17hea40c14d2964e85eE>
 - func[1168] size=311 <_ZN10scale_info5build17Variants$LT$F$GT$7variant17heae70c0533656840E>
 - func[1169] size=311 <_ZN10scale_info5build17Variants$LT$F$GT$7variant17hec2aebbd75bc5ad2E>
 - func[1170] size=311 <_ZN10scale_info5build17Variants$LT$F$GT$7variant17hece8780e95a3dcdeE>
 - func[1171] size=311 <_ZN10scale_info5build17Variants$LT$F$GT$7variant17hecf6c9c35c661831E>
 - func[1172] size=311 <_ZN10scale_info5build17Variants$LT$F$GT$7variant17hf06b40618e8f27d8E>
 - func[1173] size=311 <_ZN10scale_info5build17Variants$LT$F$GT$7variant17hf17a4e904ee6ec70E>
 - func[1174] size=479 <_ZN10scale_info5build17Variants$LT$F$GT$7variant17hf1d109ce44fb7b14E>
 - func[1175] size=311 <_ZN10scale_info5build17Variants$LT$F$GT$7variant17hf29a064588b17e23E>
 - func[1176] size=310 <_ZN10scale_info5build17Variants$LT$F$GT$7variant17hf53a08c77f41e8aeE>
 - func[1177] size=310 <_ZN10scale_info5build17Variants$LT$F$GT$7variant17hf5638780df90d45cE>
 - func[1178] size=311 <_ZN10scale_info5build17Variants$LT$F$GT$7variant17hf5eaa7ab535ce1a6E>
 - func[1179] size=311 <_ZN10scale_info5build17Variants$LT$F$GT$7variant17hf65d0448bc1ebadeE>
 - func[1180] size=311 <_ZN10scale_info5build17Variants$LT$F$GT$7variant17hf78196477a07d431E>
 - func[1181] size=310 <_ZN10scale_info5build17Variants$LT$F$GT$7variant17hf7cfa61ec6d673f1E>
 - func[1182] size=311 <_ZN10scale_info5build17Variants$LT$F$GT$7variant17hf8b655fa50c3586dE>
 - func[1183] size=311 <_ZN10scale_info5build17Variants$LT$F$GT$7variant17hfbc80ebe0e189959E>
 - func[1184] size=311 <_ZN10scale_info5build17Variants$LT$F$GT$7variant17hfdaca1cbe549192bE>
 - func[1185] size=311 <_ZN10scale_info5build17Variants$LT$F$GT$7variant17hfdc8d2d87fbb6ea5E>
 - func[1186] size=310 <_ZN10scale_info5build17Variants$LT$F$GT$7variant17hfed9272606df9d36E>
 - func[1187] size=310 <_ZN10scale_info5build17Variants$LT$F$GT$7variant17hff908dd53ff21917E>
 - func[1188] size=118 <_ZN44_$LT$$RF$T$u20$as$u20$core..fmt..Display$GT$3fmt17h38ab37a3a2980c9dE>
 - func[1189] size=2 <_ZN4core3ptr47drop_in_place$LT$$RF$mut$u20$sp_std..Writer$GT$17hf8497ea493420b5fE.llvm.14459537414123510621>
 - func[1190] size=327 <_ZN50_$LT$$RF$mut$u20$W$u20$as$u20$core..fmt..Write$GT$10write_char17h0378a7326bf8226dE.llvm.14459537414123510621>
 - func[1191] size=116 <_ZN50_$LT$$RF$mut$u20$W$u20$as$u20$core..fmt..Write$GT$9write_fmt17h48a02d3130330554E.llvm.14459537414123510621>
 - func[1192] size=83 <_ZN50_$LT$$RF$mut$u20$W$u20$as$u20$core..fmt..Write$GT$9write_str17h8616f8bbe606ceeeE.llvm.14459537414123510621>
 - func[1193] size=122 <_ZN82_$LT$sp_runtime..runtime_string..RuntimeString$u20$as$u20$scale_info..TypeInfo$GT$9type_info17h1bb32991afe5c98cE>
 - func[1194] size=2 <_ZN4core3ptr62drop_in_place$LT$sp_runtime..runtime_logger..RuntimeLogger$GT$17ha98b028d23180d0dE.llvm.14595567217688357968>
 - func[1195] size=4 <_ZN70_$LT$sp_runtime..runtime_logger..RuntimeLogger$u20$as$u20$log..Log$GT$7enabled17hd95ef22aa562ecfcE>
 - func[1196] size=234 <_ZN70_$LT$sp_runtime..runtime_logger..RuntimeLogger$u20$as$u20$log..Log$GT$3log17h581d379f2e176478E>
 - func[1197] size=2 <_ZN70_$LT$sp_runtime..runtime_logger..RuntimeLogger$u20$as$u20$log..Log$GT$5flush17ha52ac223baca1ffcE>
 - func[1198] size=499 <_ZN10sp_runtime20transaction_validity16ValidTransaction12combine_with17h206c42d6e9828285E>
 - func[1199] size=406 <_ZN99_$LT$parity_scale_codec..compact..Compact$LT$T$GT$$u20$as$u20$parity_scale_codec..codec..Encode$GT$9encode_to17h58e9a9ca49407fbeE>
 - func[1200] size=98 <_ZN10scale_info5impls73_$LT$impl$u20$scale_info..TypeInfo$u20$for$u20$$u5b$T$u3b$$u20$N$u5d$$GT$9type_info17ha0e0cb088d716110E.llvm.14820062177021773357>
 - func[1201] size=230 <_ZN55_$LT$X$u20$as$u20$parity_scale_codec..codec..Encode$GT$6encode17hc391cf1d668a9cf5E>
 - func[1202] size=91 <_ZN10scale_info5impls75_$LT$impl$u20$scale_info..TypeInfo$u20$for$u20$alloc..vec..Vec$LT$T$GT$$GT$9type_info17h94f9b9ac141e6235E>
 - func[1203] size=90 <_ZN10scale_info5impls75_$LT$impl$u20$scale_info..TypeInfo$u20$for$u20$alloc..vec..Vec$LT$T$GT$$GT$9type_info17haed45caf56c1c66fE>
 - func[1204] size=299 <_ZN137_$LT$alloc..vec..Vec$LT$T$GT$$u20$as$u20$alloc..vec..spec_from_iter..SpecFromIter$LT$T$C$alloc..vec..into_iter..IntoIter$LT$T$GT$$GT$$GT$9from_iter17h168a94c24932232fE>
 - func[1205] size=299 <_ZN137_$LT$alloc..vec..Vec$LT$T$GT$$u20$as$u20$alloc..vec..spec_from_iter..SpecFromIter$LT$T$C$alloc..vec..into_iter..IntoIter$LT$T$GT$$GT$$GT$9from_iter17h7457457e7d224457E>
 - func[1206] size=299 <_ZN137_$LT$alloc..vec..Vec$LT$T$GT$$u20$as$u20$alloc..vec..spec_from_iter..SpecFromIter$LT$T$C$alloc..vec..into_iter..IntoIter$LT$T$GT$$GT$$GT$9from_iter17hd402a0c965cc2768E>
 - func[1207] size=236 <_ZN55_$LT$X$u20$as$u20$parity_scale_codec..codec..Encode$GT$6encode17h15c809f135274b9dE>
 - func[1208] size=390 <_ZN10sp_runtime1_77_$LT$impl$u20$scale_info..TypeInfo$u20$for$u20$sp_runtime..MultiSignature$GT$9type_info17h6e05ca97d6e95795E>
 - func[1209] size=583 <_ZN10sp_runtime1_74_$LT$impl$u20$scale_info..TypeInfo$u20$for$u20$sp_runtime..ModuleError$GT$9type_info17h3547f68576307a6dE>
 - func[1210] size=537 <_ZN10sp_runtime1_81_$LT$impl$u20$scale_info..TypeInfo$u20$for$u20$sp_runtime..TransactionalError$GT$9type_info17hf84d1499ab951b30E>
 - func[1211] size=1542 <_ZN10sp_runtime1_76_$LT$impl$u20$scale_info..TypeInfo$u20$for$u20$sp_runtime..DispatchError$GT$9type_info17hef50fd22a7e0db98E>
 - func[1212] size=1187 <_ZN10sp_runtime1_73_$LT$impl$u20$scale_info..TypeInfo$u20$for$u20$sp_runtime..TokenError$GT$9type_info17h347e757a063213dfE>
 - func[1213] size=6613 <_ZN70_$LT$sp_runtime..generic..era..Era$u20$as$u20$scale_info..TypeInfo$GT$9type_info17hdcad0bfe67693aa6E>
 - func[1214] size=505 <_ZN80_$LT$sp_runtime..generic..digest..DigestItem$u20$as$u20$scale_info..TypeInfo$GT$9type_info17h5db41def55f6c838E>
 - func[1215] size=915 <_ZN96_$LT$sp_runtime..generic..digest..DigestItemRef$u20$as$u20$parity_scale_codec..codec..Encode$GT$6encode17h5d421919f4b5b147E>
 - func[1216] size=167 <_ZN93_$LT$sp_runtime..generic..digest..DigestItem$u20$as$u20$parity_scale_codec..codec..Encode$GT$6encode17h8c45d885f6d95989E>
 - func[1217] size=868 <_ZN90_$LT$sp_runtime..generic..digest..DigestItem$u20$as$u20$sp_runtime..traits..CheckEqual$GT$11check_equal17ha598241da97715cdE>
 - func[1218] size=411 <_ZN10sp_runtime7generic6digest1_86_$LT$impl$u20$scale_info..TypeInfo$u20$for$u20$sp_runtime..generic..digest..Digest$GT$9type_info17ha865372683875bf5E>
 - func[1219] size=273 <_ZN5alloc7raw_vec11finish_grow17h5e4c116b3aa6c6feE.llvm.6930155888873720759>
 - func[1220] size=238 <_ZN5alloc7raw_vec19RawVec$LT$T$C$A$GT$7reserve21do_reserve_and_handle17h8ec0077891a9e234E>
 - func[1221] size=273 <_ZN5alloc7raw_vec11finish_grow17he22613f5ca03ce00E.llvm.6697763764294076377>
 - func[1222] size=243 <_ZN5alloc7raw_vec19RawVec$LT$T$C$A$GT$16reserve_for_push17h65d41e2d6599d1c3E>
 - func[1223] size=245 <_ZN5alloc7raw_vec19RawVec$LT$T$C$A$GT$7reserve21do_reserve_and_handle17h49e5555bdf444ab1E>
 - func[1224] size=299 <_ZN137_$LT$alloc..vec..Vec$LT$T$GT$$u20$as$u20$alloc..vec..spec_from_iter..SpecFromIter$LT$T$C$alloc..vec..into_iter..IntoIter$LT$T$GT$$GT$$GT$9from_iter17hed1cb462ab196823E>
 - func[1225] size=90 <_ZN10scale_info5impls62_$LT$impl$u20$scale_info..TypeInfo$u20$for$u20$$u5b$T$u5d$$GT$9type_info17h092717522ecbdc5bE>
 - func[1226] size=178 <_ZN10scale_info5impls64_$LT$impl$u20$scale_info..TypeInfo$u20$for$u20$$LP$A$C$B$RP$$GT$9type_info17h8c061902ce58964bE>
 - func[1227] size=98 <_ZN10scale_info5impls73_$LT$impl$u20$scale_info..TypeInfo$u20$for$u20$$u5b$T$u3b$$u20$N$u5d$$GT$9type_info17h9ff268ea4bd07916E>
 - func[1228] size=1547 <_ZN10sp_version1_77_$LT$impl$u20$scale_info..TypeInfo$u20$for$u20$sp_version..RuntimeVersion$GT$9type_info17h628638e6e54097a6E>
 - func[1229] size=450 <_ZN10scale_info5impls78_$LT$impl$u20$scale_info..TypeInfo$u20$for$u20$alloc..borrow..Cow$LT$T$GT$$GT$9type_info17habab7a12647f8917E>
 - func[1230] size=273 <_ZN5alloc7raw_vec11finish_grow17h5a511227f4700c54E.llvm.14064439954596563907>
 - func[1231] size=243 <_ZN5alloc7raw_vec19RawVec$LT$T$C$A$GT$16reserve_for_push17h1ef17b005f207348E>
 - func[1232] size=245 <_ZN5alloc7raw_vec19RawVec$LT$T$C$A$GT$7reserve21do_reserve_and_handle17h4a8f1556fb02d580E>
 - func[1233] size=90 <_ZN10scale_info5impls96_$LT$impl$u20$scale_info..TypeInfo$u20$for$u20$parity_scale_codec..compact..Compact$LT$T$GT$$GT$9type_info17h06b0d318e4123b03E>
 - func[1234] size=557 <_ZN10sp_weights9weight_v21_80_$LT$impl$u20$scale_info..TypeInfo$u20$for$u20$sp_weights..weight_v2..Weight$GT$9type_info17h6b955c6074b62f32E>
 - func[1235] size=299 <_ZN137_$LT$alloc..vec..Vec$LT$T$GT$$u20$as$u20$alloc..vec..spec_from_iter..SpecFromIter$LT$T$C$alloc..vec..into_iter..IntoIter$LT$T$GT$$GT$$GT$9from_iter17h07e4dde5102ecd1eE>
 - func[1236] size=555 <_ZN10sp_weights1_78_$LT$impl$u20$scale_info..TypeInfo$u20$for$u20$sp_weights..RuntimeDbWeight$GT$9type_info17h65d79e2e4b8f09deE>
 - func[1237] size=110 <__multi3>
 - func[1238] size=316 <_ZN17compiler_builtins3mem6memcpy17h3294440c31202237E>
 - func[1239] size=678 <_ZN17compiler_builtins3mem7memmove17h37a0c2b377451a94E>
 - func[1240] size=181 <_ZN17compiler_builtins3mem6memset17h9b733cc72eeef835E>
 - func[1241] size=74 <_ZN17compiler_builtins3mem6memcmp17hfa46c76732676c84E>
 - func[1242] size=14 <memcmp>
 - func[1243] size=87 <__ashlti3>
 - func[1244] size=14 <memset>
 - func[1245] size=846 <_ZN17compiler_builtins3int19specialized_div_rem12u128_div_rem17ha2bff52cb3d51104E>
 - func[1246] size=75 <__udivti3>
 - func[1247] size=14 <memcpy>
 - func[1248] size=14 <memmove>
 - func[1249] size=87 <__lshrti3>
Data[3]:
 - segment[0] <.rodata> memory=0 size=47191 - init i32=1048576
  - 0100000: 0200 0000 0400 0000 0400 0000 0300 0000  ................
  - 0100010: 0400 0000 0500 0000 6c69 6272 6172 792f  ........library/
  - 0100020: 616c 6c6f 632f 7372 632f 7261 775f 7665  alloc/src/raw_ve
  - 0100030: 632e 7273 6361 7061 6369 7479 206f 7665  c.rscapacity ove
  - 0100040: 7266 6c6f 7700 0000 3400 1000 1100 0000  rflow...4.......
  - 0100050: 1800 1000 1c00 0000 0602 0000 0500 0000  ................
  - 0100060: 6120 666f 726d 6174 7469 6e67 2074 7261  a formatting tra
  - 0100070: 6974 2069 6d70 6c65 6d65 6e74 6174 696f  it implementatio
  - 0100080: 6e20 7265 7475 726e 6564 2061 6e20 6572  n returned an er
  - 0100090: 726f 7200 0200 0000 0000 0000 0100 0000  ror.............
  - 01000a0: 0600 0000 6c69 6272 6172 792f 616c 6c6f  ....library/allo
  - 01000b0: 632f 7372 632f 666d 742e 7273 a400 1000  c/src/fmt.rs....
  - 01000c0: 1800 0000 6402 0000 2000 0000 2920 7368  ....d... ...) sh
  - 01000d0: 6f75 6c64 2062 6520 3c20 6c65 6e20 2869  ould be < len (i
  - 01000e0: 7320 2972 656d 6f76 616c 2069 6e64 6578  s )removal index
  - 01000f0: 2028 6973 2000 0000 e300 1000 1200 0000   (is ...........
  - 0100100: cc00 1000 1600 0000 e200 1000 0100 0000  ................
  - 0100110: 0800 0000 0900 0000 0a00 0000 203c 3d20  ............ <= 
  - 0100120: 2f55 7365 7273 2f74 656e 6768 7569 2f2e  /Users/tenghui/.
  - 0100130: 6361 7267 6f2f 7265 6769 7374 7279 2f73  cargo/registry/s
  - 0100140: 7263 2f72 7370 726f 7879 2e63 6e2d 3866  rc/rsproxy.cn-8f
  - 0100150: 3638 3237 6337 3535 3562 6661 6638 2f62  6827c7555bfaf8/b
  - 0100160: 7974 6573 2d31 2e34 2e30 2f73 7263 2f62  ytes-1.4.0/src/b
  - 0100170: 7974 6573 2e72 7373 706c 6974 5f74 6f20  ytes.rssplit_to 
  - 0100180: 6f75 7420 6f66 2062 6f75 6e64 733a 2000  out of bounds: .
  - 0100190: 7701 1000 1800 0000 1c01 1000 0400 0000  w...............
  - 01001a0: 2001 1000 5700 0000 9c01 0000 0900 0000   ...W...........
  - 01001b0: 0b00 0000 0c00 0000 0d00 0000 0e00 0000  ................
  - 01001c0: 0f00 0000 1000 0000 6361 6c6c 6564 2060  ........called `
  - 01001d0: 5265 7375 6c74 3a3a 756e 7772 6170 2829  Result::unwrap()
  - 01001e0: 6020 6f6e 2061 6e20 6045 7272 6020 7661  ` on an `Err` va
  - 01001f0: 6c75 6500 1100 0000 0000 0000 0100 0000  lue.............
  - 0100200: 1200 0000 2001 1000 5700 0000 0304 0000  .... ...W.......
  - 0100210: 3200 0000 2001 1000 5700 0000 1104 0000  2... ...W.......
  - 0100220: 4900 0000 1300 0000 1400 0000 1500 0000  I...............
  - 0100230: 6162 6f72 742f 5573 6572 732f 7465 6e67  abort/Users/teng
  - 0100240: 6875 692f 2e63 6172 676f 2f72 6567 6973  hui/.cargo/regis
  - 0100250: 7472 792f 7372 632f 7273 7072 6f78 792e  try/src/rsproxy.
  - 0100260: 636e 2d38 6636 3832 3763 3735 3535 6266  cn-8f6827c7555bf
  - 0100270: 6166 382f 6279 7465 732d 312e 342e 302f  af8/bytes-1.4.0/
  - 0100280: 7372 632f 6c69 622e 7273 0000 3502 1000  src/lib.rs..5...
  - 0100290: 5500 0000 7300 0000 0900 0000 6361 6c6c  U...s.......call
  - 01002a0: 6564 2060 4f70 7469 6f6e 3a3a 756e 7772  ed `Option::unwr
  - 01002b0: 6170 2829 6020 6f6e 2061 2060 4e6f 6e65  ap()` on a `None
  - 01002c0: 6020 7661 6c75 6529 2e2e 0000 c802 1000  ` value)........
  - 01002d0: 0200 0000 426f 7272 6f77 4572 726f 7242  ....BorrowErrorB
  - 01002e0: 6f72 726f 774d 7574 4572 726f 7269 6e64  orrowMutErrorind
  - 01002f0: 6578 206f 7574 206f 6620 626f 756e 6473  ex out of bounds
  - 0100300: 3a20 7468 6520 6c65 6e20 6973 2020 6275  : the len is  bu
  - 0100310: 7420 7468 6520 696e 6465 7820 6973 2000  t the index is .
  - 0100320: ed02 1000 2000 0000 0d03 1000 1200 0000  .... ...........
  - 0100330: 3a00 0000 9c02 1000 0000 0000 3003 1000  :...........0...
  - 0100340: 0100 0000 3003 1000 0100 0000 7061 6e69  ....0.......pani
  - 0100350: 636b 6564 2061 7420 2727 2c20 5803 1000  cked at '', X...
  - 0100360: 0100 0000 5903 1000 0300 0000 1e00 0000  ....Y...........
  - 0100370: 0000 0000 0100 0000 1f00 0000 9c02 1000  ................
  - 0100380: 0000 0000 6d61 7463 6865 7321 3d3d 3d61  ....matches!===a
  - 0100390: 7373 6572 7469 6f6e 2066 6169 6c65 643a  ssertion failed:
  - 01003a0: 2060 286c 6566 7420 2072 6967 6874 2960   `(left  right)`
  - 01003b0: 0a20 206c 6566 743a 2060 602c 0a20 7269  .  left: ``,. ri
  - 01003c0: 6768 743a 2060 603a 2000 0000 8f03 1000  ght: ``: .......
  - 01003d0: 1900 0000 a803 1000 1200 0000 ba03 1000  ................
  - 01003e0: 0c00 0000 c603 1000 0300 0000 6000 0000  ............`...
  - 01003f0: 8f03 1000 1900 0000 a803 1000 1200 0000  ................
  - 0100400: ba03 1000 0c00 0000 ec03 1000 0100 0000  ................
  - 0100410: 3a20 0000 9c02 1000 0000 0000 1004 1000  : ..............
  - 0100420: 0200 0000 1e00 0000 0c00 0000 0400 0000  ................
  - 0100430: 2000 0000 2100 0000 2200 0000 2020 2020   ...!..."...    
  - 0100440: 207b 0a2c 0a2c 2020 7b20 7d20 7d28 0a28   {.,.,  { } }(.(
  - 0100450: 2c0a 5b5d 6c69 6272 6172 792f 636f 7265  ,.[]library/core
  - 0100460: 2f73 7263 2f66 6d74 2f6e 756d 2e72 7300  /src/fmt/num.rs.
  - 0100470: 5404 1000 1b00 0000 6500 0000 1400 0000  T.......e.......
  - 0100480: 3078 3030 3031 3032 3033 3034 3035 3036  0x00010203040506
  - 0100490: 3037 3038 3039 3130 3131 3132 3133 3134  0708091011121314
  - 01004a0: 3135 3136 3137 3138 3139 3230 3231 3232  1516171819202122
  - 01004b0: 3233 3234 3235 3236 3237 3238 3239 3330  2324252627282930
  - 01004c0: 3331 3332 3333 3334 3335 3336 3337 3338  3132333435363738
  - 01004d0: 3339 3430 3431 3432 3433 3434 3435 3436  3940414243444546
  - 01004e0: 3437 3438 3439 3530 3531 3532 3533 3534  4748495051525354
  - 01004f0: 3535 3536 3537 3538 3539 3630 3631 3632  5556575859606162
  - 0100500: 3633 3634 3635 3636 3637 3638 3639 3730  6364656667686970
  - 0100510: 3731 3732 3733 3734 3735 3736 3737 3738  7172737475767778
  - 0100520: 3739 3830 3831 3832 3833 3834 3835 3836  7980818283848586
  - 0100530: 3837 3838 3839 3930 3931 3932 3933 3934  8788899091929394
  - 0100540: 3935 3936 3937 3938 3939 6173 7365 7274  9596979899assert
  - 0100550: 696f 6e20 6661 696c 6564 3a20 2a63 7572  ion failed: *cur
  - 0100560: 7220 3e20 3139 0000 5404 1000 1b00 0000  r > 19..T.......
  - 0100570: e501 0000 0500 0000 1e00 0000 0400 0000  ................
  - 0100580: 0400 0000 2300 0000 2400 0000 2500 0000  ....#...$...%...
  - 0100590: 6c69 6272 6172 792f 636f 7265 2f73 7263  library/core/src
  - 01005a0: 2f66 6d74 2f6d 6f64 2e72 7300 9005 1000  /fmt/mod.rs.....
  - 01005b0: 1b00 0000 7a09 0000 1e00 0000 9005 1000  ....z...........
  - 01005c0: 1b00 0000 8109 0000 1600 0000 6c69 6272  ............libr
  - 01005d0: 6172 792f 636f 7265 2f73 7263 2f73 6c69  ary/core/src/sli
  - 01005e0: 6365 2f6d 656d 6368 722e 7273 cc05 1000  ce/memchr.rs....
  - 01005f0: 2000 0000 6800 0000 2700 0000 7261 6e67   ...h...'...rang
  - 0100600: 6520 7374 6172 7420 696e 6465 7820 206f  e start index  o
  - 0100610: 7574 206f 6620 7261 6e67 6520 666f 7220  ut of range for 
  - 0100620: 736c 6963 6520 6f66 206c 656e 6774 6820  slice of length 
  - 0100630: fc05 1000 1200 0000 0e06 1000 2200 0000  ............"...
  - 0100640: 7261 6e67 6520 656e 6420 696e 6465 7820  range end index 
  - 0100650: 4006 1000 1000 0000 0e06 1000 2200 0000  @..........."...
  - 0100660: 736c 6963 6520 696e 6465 7820 7374 6172  slice index star
  - 0100670: 7473 2061 7420 2062 7574 2065 6e64 7320  ts at  but ends 
  - 0100680: 6174 2000 6006 1000 1600 0000 7606 1000  at .`.......v...
  - 0100690: 0d00 0000 6c69 6272 6172 792f 636f 7265  ....library/core
  - 01006a0: 2f73 7263 2f73 7472 2f70 6174 7465 726e  /src/str/pattern
  - 01006b0: 2e72 7300 9406 1000 1f00 0000 4205 0000  .rs.........B...
  - 01006c0: 0c00 0000 9406 1000 1f00 0000 4205 0000  ............B...
  - 01006d0: 2200 0000 9406 1000 1f00 0000 5605 0000  "...........V...
  - 01006e0: 3000 0000 9406 1000 1f00 0000 3506 0000  0...........5...
  - 01006f0: 1500 0000 9406 1000 1f00 0000 6306 0000  ............c...
  - 0100700: 1500 0000 9406 1000 1f00 0000 6406 0000  ............d...
  - 0100710: 1500 0000 5b2e 2e2e 5d62 7974 6520 696e  ....[...]byte in
  - 0100720: 6465 7820 2069 7320 6f75 7420 6f66 2062  dex  is out of b
  - 0100730: 6f75 6e64 7320 6f66 2060 0000 1907 1000  ounds of `......
  - 0100740: 0b00 0000 2407 1000 1600 0000 ec03 1000  ....$...........
  - 0100750: 0100 0000 6265 6769 6e20 3c3d 2065 6e64  ....begin <= end
  - 0100760: 2028 203c 3d20 2920 7768 656e 2073 6c69   ( <= ) when sli
  - 0100770: 6369 6e67 2060 0000 5407 1000 0e00 0000  cing `..T.......
  - 0100780: 6207 1000 0400 0000 6607 1000 1000 0000  b.......f.......
  - 0100790: ec03 1000 0100 0000 2069 7320 6e6f 7420  ........ is not 
  - 01007a0: 6120 6368 6172 2062 6f75 6e64 6172 793b  a char boundary;
  - 01007b0: 2069 7420 6973 2069 6e73 6964 6520 2028   it is inside  (
  - 01007c0: 6279 7465 7320 2920 6f66 2060 1907 1000  bytes ) of `....
  - 01007d0: 0b00 0000 9807 1000 2600 0000 be07 1000  ........&.......
  - 01007e0: 0800 0000 c607 1000 0600 0000 ec03 1000  ................
  - 01007f0: 0100 0000 6c69 6272 6172 792f 636f 7265  ....library/core
  - 0100800: 2f73 7263 2f73 7472 2f6d 6f64 2e72 7300  /src/str/mod.rs.
  - 0100810: f407 1000 1b00 0000 0701 0000 1d00 0000  ................
  - 0100820: 6c69 6272 6172 792f 636f 7265 2f73 7263  library/core/src
  - 0100830: 2f75 6e69 636f 6465 2f70 7269 6e74 6162  /unicode/printab
  - 0100840: 6c65 2e72 7300 0000 2008 1000 2500 0000  le.rs... ...%...
  - 0100850: 0a00 0000 1c00 0000 2008 1000 2500 0000  ........ ...%...
  - 0100860: 1a00 0000 3600 0000 0001 0305 0506 0602  ....6...........
  - 0100870: 0706 0807 0911 0a1c 0b19 0c1a 0d10 0e0c  ................
  - 0100880: 0f04 1003 1212 1309 1601 1704 1801 1903  ................
  - 0100890: 1a07 1b01 1c02 1f16 2003 2b03 2d0b 2e01  ........ .+.-...
  - 01008a0: 3003 3102 3201 a702 a902 aa04 ab08 fa02  0.1.2...........
  - 01008b0: fb05 fd02 fe03 ff09 ad78 798b 8da2 3057  .........xy...0W
  - 01008c0: 588b 8c90 1cdd 0e0f 4b4c fbfc 2e2f 3f5c  X.......KL.../?\
  - 01008d0: 5d5f e284 8d8e 9192 a9b1 babb c5c6 c9ca  ]_..............
  - 01008e0: dee4 e5ff 0004 1112 2931 3437 3a3b 3d49  ........)147:;=I
  - 01008f0: 4a5d 848e 92a9 b1b4 babb c6ca cecf e4e5  J]..............
  - 0100900: 0004 0d0e 1112 2931 343a 3b45 4649 4a5e  ......)14:;EFIJ^
  - 0100910: 6465 8491 9b9d c9ce cf0d 1129 3a3b 4549  de.........):;EI
  - 0100920: 575b 5c5e 5f64 658d 91a9 b4ba bbc5 c9df  W[\^_de.........
  - 0100930: e4e5 f00d 1145 4964 6580 84b2 bcbe bfd5  .....EIde.......
  - 0100940: d7f0 f183 858b a4a6 bebf c5c7 cfda db48  ...............H
  - 0100950: 98bd cdc6 cecf 494e 4f57 595e 5f89 8e8f  ......INOWY^_...
  - 0100960: b1b6 b7bf c1c6 c7d7 1116 175b 5cf6 f7fe  ...........[\...
  - 0100970: ff80 6d71 dedf 0e1f 6e6f 1c1d 5f7d 7eae  ..mq....no.._}~.
  - 0100980: af7f bbbc 1617 1e1f 4647 4e4f 585a 5c5e  ........FGNOXZ\^
  - 0100990: 7e7f b5c5 d4d5 dcf0 f1f5 7273 8f74 7596  ~.........rs.tu.
  - 01009a0: 262e 2fa7 afb7 bfc7 cfd7 df9a 4097 9830  &./.........@..0
  - 01009b0: 8f1f d2d4 ceff 4e4f 5a5b 0708 0f10 272f  ......NOZ[....'/
  - 01009c0: eeef 6e6f 373d 3f42 4590 9153 6775 c8c9  ..no7=?BE..Sgu..
  - 01009d0: d0d1 d8d9 e7fe ff00 205f 2282 df04 8244  ........ _"....D
  - 01009e0: 081b 0406 1181 ac0e 80ab 051f 0981 1b03  ................
  - 01009f0: 1908 0104 2f04 3404 0703 0107 0607 110a  ..../.4.........
  - 0100a00: 500f 1207 5507 0304 1c0a 0903 0803 0703  P...U...........
  - 0100a10: 0203 0303 0c04 0503 0b06 010e 1505 4e07  ..............N.
  - 0100a20: 1b07 5707 0206 170c 5004 4303 2d03 0104  ..W.....P.C.-...
  - 0100a30: 1106 0f0c 3a04 1d25 5f20 6d04 6a25 80c8  ....:..%_ m.j%..
  - 0100a40: 0582 b003 1a06 82fd 0359 0716 0918 0914  .........Y......
  - 0100a50: 0c14 0c6a 060a 061a 0659 072b 0546 0a2c  ...j.....Y.+.F.,
  - 0100a60: 040c 0401 0331 0b2c 041a 060b 0380 ac06  .....1.,........
  - 0100a70: 0a06 2f31 4d03 80a4 083c 030f 033c 0738  ../1M....<...<.8
  - 0100a80: 082b 0582 ff11 1808 2f11 2d03 210f 210f  .+....../.-.!.!.
  - 0100a90: 808c 0482 9719 0b15 8894 052f 053b 0702  .........../.;..
  - 0100aa0: 0e18 0980 be22 740c 80d6 1a0c 0580 ff05  ....."t.........
  - 0100ab0: 80df 0cf2 9d03 3709 815c 1480 b808 80cb  ......7..\......
  - 0100ac0: 050a 183b 030a 0638 0846 080c 0674 0b1e  ...;...8.F...t..
  - 0100ad0: 035a 0459 0980 8318 1c0a 1609 4c04 808a  .Z.Y........L...
  - 0100ae0: 06ab a40c 1704 31a1 0481 da26 070c 0505  ......1....&....
  - 0100af0: 80a6 1081 f507 0120 2a06 4c04 808d 0480  ....... *.L.....
  - 0100b00: be03 1b03 0f0d 0006 0101 0301 0402 0507  ................
  - 0100b10: 0702 0808 0902 0a05 0b02 0e04 1001 1102  ................
  - 0100b20: 1205 1311 1401 1502 1702 190d 1c05 1d08  ................
  - 0100b30: 1f01 2401 6a04 6b02 af03 b102 bc02 cf02  ..$.j.k.........
  - 0100b40: d102 d40c d509 d602 d702 da01 e005 e102  ................
  - 0100b50: e704 e802 ee20 f004 f802 fa03 fb01 0c27  ..... .........'
  - 0100b60: 3b3e 4e4f 8f9e 9e9f 7b8b 9396 a2b2 ba86  ;>NO....{.......
  - 0100b70: b106 0709 363d 3e56 f3d0 d104 1418 3637  ....6=>V......67
  - 0100b80: 5657 7faa aeaf bd35 e012 8789 8e9e 040d  VW.....5........
  - 0100b90: 0e11 1229 3134 3a45 4649 4a4e 4f64 655c  ...)14:EFIJNOde\
  - 0100ba0: b6b7 1b1c 0708 0a0b 1417 3639 3aa8 a9d8  ..........69:...
  - 0100bb0: d909 3790 91a8 070a 3b3e 6669 8f92 116f  ..7.....;>fi...o
  - 0100bc0: 5fbf eeef 5a62 f4fc ff53 549a 9b2e 2f27  _...Zb...ST.../'
  - 0100bd0: 2855 9da0 a1a3 a4a7 a8ad babc c406 0b0c  (U..............
  - 0100be0: 151d 3a3f 4551 a6a7 cccd a007 191a 2225  ..:?EQ........"%
  - 0100bf0: 3e3f e7ec efff c5c6 0420 2325 2628 3338  >?....... #%&(38
  - 0100c00: 3a48 4a4c 5053 5556 585a 5c5e 6063 6566  :HJLPSUVXZ\^`cef
  - 0100c10: 6b73 787d 7f8a a4aa afb0 c0d0 aeaf 6e6f  ksx}..........no
  - 0100c20: be93 5e22 7b05 0304 2d03 6603 012f 2e80  ..^"{...-.f../..
  - 0100c30: 821d 0331 0f1c 0424 091e 052b 0544 040e  ...1...$...+.D..
  - 0100c40: 2a80 aa06 2404 2404 2808 340b 4e43 8137  *...$.$.(.4.NC.7
  - 0100c50: 0916 0a08 183b 4539 0363 0809 3016 0521  .....;E9.c..0..!
  - 0100c60: 031b 0501 4038 044b 052f 040a 0709 0740  ....@8.K./.....@
  - 0100c70: 2027 040c 0936 033a 051a 0704 0c07 5049   '...6.:......PI
  - 0100c80: 3733 0d33 072e 080a 8126 524b 2b08 2a16  73.3.....&RK+.*.
  - 0100c90: 1a26 1c14 1709 4e04 2409 440d 1907 0a06  .&....N.$.D.....
  - 0100ca0: 4808 2709 750b 423e 2a06 3b05 0a06 5106  H.'.u.B>*.;...Q.
  - 0100cb0: 0105 1003 0580 8b62 1e48 080a 80a6 5e22  .......b.H....^"
  - 0100cc0: 450b 0a06 0d13 3a06 0a36 2c04 1780 b93c  E.....:..6,....<
  - 0100cd0: 6453 0c48 090a 4645 1b48 0853 0d49 070a  dS.H..FE.H.S.I..
  - 0100ce0: 80f6 460a 1d03 4749 3703 0e08 0a06 3907  ..F...GI7.....9.
  - 0100cf0: 0a81 3619 073b 031c 5601 0f32 0d83 9b66  ..6..;..V..2...f
  - 0100d00: 750b 80c4 8a4c 630d 8430 1016 8faa 8247  u....Lc..0.....G
  - 0100d10: a1b9 8239 072a 045c 0626 0a46 0a28 0513  ...9.*.\.&.F.(..
  - 0100d20: 82b0 5b65 4b04 3907 1140 050b 020e 97f8  ..[eK.9..@......
  - 0100d30: 0884 d62a 09a2 e781 330f 011d 060e 0408  ...*....3.......
  - 0100d40: 818c 8904 6b05 0d03 0907 1092 6047 0974  ....k.......`G.t
  - 0100d50: 3c80 f60a 7308 7015 467a 140c 140c 5709  <...s.p.Fz....W.
  - 0100d60: 1980 8781 4703 8542 0f15 8450 1f06 0680  ....G..B...P....
  - 0100d70: d52b 053e 2101 702d 031a 0402 8140 1f11  .+.>!.p-.....@..
  - 0100d80: 3a05 0181 d02a 82e6 80f7 294c 040a 0402  :....*....)L....
  - 0100d90: 8311 444c 3d80 c23c 0601 0455 051b 3402  ..DL=..<...U..4.
  - 0100da0: 810e 2c04 640c 560a 80ae 381d 0d2c 0409  ..,.d.V...8..,..
  - 0100db0: 0702 0e06 809a 83d8 0411 030d 0377 045f  .............w._
  - 0100dc0: 060c 0401 0f0c 0438 080a 0628 0822 4e81  .......8...(."N.
  - 0100dd0: 540c 1d03 0907 3608 0e04 0907 0907 80cb  T.....6.........
  - 0100de0: 250a 8406 6c69 6272 6172 792f 636f 7265  %...library/core
  - 0100df0: 2f73 7263 2f75 6e69 636f 6465 2f75 6e69  /src/unicode/uni
  - 0100e00: 636f 6465 5f64 6174 612e 7273 4572 726f  code_data.rsErro
  - 0100e10: 7200 0000 e40d 1000 2800 0000 5000 0000  r.......(...P...
  - 0100e20: 2800 0000 e40d 1000 2800 0000 5c00 0000  (.......(...\...
  - 0100e30: 1600 0000 0003 0000 8304 2000 9105 6000  .......... ...`.
  - 0100e40: 5d13 a000 1217 201f 0c20 601f ef2c a02b  ]..... .. `..,.+
  - 0100e50: 2a30 202c 6fa6 e02c 02a8 602d 1efb 602e  *0 ,o..,..`-..`.
  - 0100e60: 00fe 2036 9eff 6036 fd01 e136 010a 2137  .. 6..`6...6..!7
  - 0100e70: 240d e137 ab0e 6139 2f18 a139 301c 6148  $..7..a9/..90.aH
  - 0100e80: f31e a14c 4034 6150 f06a a151 4f6f 2152  ...L@4aP.j.QOo!R
  - 0100e90: 9dbc a152 00cf 6153 65d1 a153 00da 2154  ...R..aSe..S..!T
  - 0100ea0: 00e0 e155 aee2 6157 ece4 2159 d0e8 a159  ...U..aW..!Y...Y
  - 0100eb0: 2000 ee59 f001 7f5a 0070 0007 002d 0101   ..Y...Z.p...-..
  - 0100ec0: 0102 0102 0101 480b 3015 1001 6507 0206  ......H.0...e...
  - 0100ed0: 0202 0104 2301 1e1b 5b0b 3a09 0901 1804  ....#...[.:.....
  - 0100ee0: 0109 0103 0105 2b03 3c08 2a18 0120 3701  ......+.<.*.. 7.
  - 0100ef0: 0101 0408 0401 0307 0a02 1d01 3a01 0101  ............:...
  - 0100f00: 0204 0801 0901 0a02 1a01 0202 3901 0402  ............9...
  - 0100f10: 0402 0203 0301 1e02 0301 0b02 3901 0405  ............9...
  - 0100f20: 0102 0401 1402 1606 0101 3a01 0102 0104  ..........:.....
  - 0100f30: 0801 0703 0a02 1e01 3b01 0101 0c01 0901  ........;.......
  - 0100f40: 2801 0301 3701 0103 0503 0104 0702 0b02  (...7...........
  - 0100f50: 1d01 3a01 0201 0201 0301 0502 0702 0b02  ..:.............
  - 0100f60: 1c02 3902 0101 0204 0801 0901 0a02 1d01  ..9.............
  - 0100f70: 4801 0401 0203 0101 0801 5101 0207 0c08  H.........Q.....
  - 0100f80: 6201 0209 0b07 4902 1b01 0101 0101 370e  b.....I.......7.
  - 0100f90: 0105 0102 050b 0124 0901 6604 0106 0102  .......$..f.....
  - 0100fa0: 0202 1902 0403 1004 0d01 0202 0601 0f01  ................
  - 0100fb0: 0003 0003 1d02 1e02 1e02 4002 0107 0801  ..........@.....
  - 0100fc0: 020b 0901 2d03 0101 7502 2201 7603 0402  ....-...u.".v...
  - 0100fd0: 0901 0603 db02 0201 3a01 0107 0101 0101  ........:.......
  - 0100fe0: 0208 060a 0201 301f 3104 3007 0101 0501  ......0.1.0.....
  - 0100ff0: 2809 0c02 2004 0202 0103 3801 0102 0301  (... .....8.....
  - 0101000: 0103 3a08 0202 9803 010d 0107 0401 0601  ..:.............
  - 0101010: 0302 c640 0001 c321 0003 8d01 6020 0006  ...@...!....` ..
  - 0101020: 6902 0004 010a 2002 5002 0001 0301 0401  i..... .P.......
  - 0101030: 1902 0501 9702 1a12 0d01 2608 190b 2e03  ..........&.....
  - 0101040: 3001 0204 0202 2701 4306 0202 0202 0c01  0.....'.C.......
  - 0101050: 0801 2f01 3301 0103 0202 0502 0101 2a02  ../.3.........*.
  - 0101060: 0801 ee01 0201 0401 0001 0010 1010 0002  ................
  - 0101070: 0001 e201 9505 0003 0102 0504 2803 0401  ............(...
  - 0101080: a502 0004 0002 5003 460b 3104 7b01 360f  ......P.F.1.{.6.
  - 0101090: 2901 0202 0a03 3104 0202 0701 3d03 2405  ).....1.....=.$.
  - 01010a0: 0108 3e01 0c02 3409 0a04 0201 5f03 0201  ..>...4....._...
  - 01010b0: 0102 0601 0201 9d01 0308 1502 3902 0101  ............9...
  - 01010c0: 0101 1601 0e07 0305 c308 0203 0101 1701  ................
  - 01010d0: 5101 0206 0101 0201 0102 0102 eb01 0204  Q...............
  - 01010e0: 0602 0102 1b02 5508 0201 0102 6a01 0101  ......U.....j...
  - 01010f0: 0206 0101 6503 0204 0105 0009 0102 f501  ....e...........
  - 0101100: 0a02 0101 0401 9004 0202 0401 200a 2806  ............ .(.
  - 0101110: 0204 0801 0906 0203 2e0d 0102 0007 0106  ................
  - 0101120: 0101 5216 0207 0102 0102 7a06 0301 0102  ..R.......z.....
  - 0101130: 0107 0101 4802 0301 0101 0002 0b02 3405  ....H.........4.
  - 0101140: 0501 0101 0001 060f 0005 3b07 0001 3f04  ..........;...?.
  - 0101150: 5101 0002 002e 0217 0001 0103 0405 0808  Q...............
  - 0101160: 0207 1e04 9403 0037 0432 0801 0e01 1605  .......7.2......
  - 0101170: 010f 0007 0111 0207 0102 0105 6401 a007  ............d...
  - 0101180: 0001 3d04 0004 0007 6d07 0060 80f0 004c  ..=.....m..`...L
  - 0101190: 6179 6f75 7445 7272 6f72 6361 7061 6369  ayoutErrorcapaci
  - 01011a0: 7479 206f 7665 7266 6c6f 7700 9a11 1000  ty overflow.....
  - 01011b0: 1100 0000 2f72 7573 7463 2f35 3734 6236  ..../rustc/574b6
  - 01011c0: 3461 3937 6635 3231 3632 6639 3635 6263  4a97f52162f965bc
  - 01011d0: 3230 3165 3437 6630 6166 3832 3739 6361  201e47f0af8279ca
  - 01011e0: 3635 642f 6c69 6272 6172 792f 616c 6c6f  65d/library/allo
  - 01011f0: 632f 7372 632f 7665 632f 7370 6563 5f66  c/src/vec/spec_f
  - 0101200: 726f 6d5f 6974 6572 5f6e 6573 7465 642e  rom_iter_nested.
  - 0101210: 7273 0000 b411 1000 5e00 0000 3b00 0000  rs......^...;...
  - 0101220: 1200 0000 2f72 7573 7463 2f35 3734 6236  ..../rustc/574b6
  - 0101230: 3461 3937 6635 3231 3632 6639 3635 6263  4a97f52162f965bc
  - 0101240: 3230 3165 3437 6630 6166 3832 3739 6361  201e47f0af8279ca
  - 0101250: 3635 642f 6c69 6272 6172 792f 616c 6c6f  65d/library/allo
  - 0101260: 632f 7372 632f 7665 632f 6d6f 642e 7273  c/src/vec/mod.rs
  - 0101270: 2412 1000 4c00 0000 4e0b 0000 0d00 0000  $...L...N.......
  - 0101280: 2800 0000 0400 0000 0400 0000 2900 0000  (...........)...
  - 0101290: 2f55 7365 7273 2f74 656e 6768 7569 2f2e  /Users/tenghui/.
  - 01012a0: 6361 7267 6f2f 6769 742f 6368 6563 6b6f  cargo/git/checko
  - 01012b0: 7574 732f 7375 6273 7472 6174 652d 3765  uts/substrate-7e
  - 01012c0: 3038 3433 3364 3463 3337 3061 3231 2f62  08433d4c370a21/b
  - 01012d0: 6138 3731 3838 2f66 7261 6d65 2f73 7570  a87188/frame/sup
  - 01012e0: 706f 7274 2f73 7263 2f73 746f 7261 6765  port/src/storage
  - 01012f0: 2f75 6e68 6173 6865 642e 7273 436f 7272  /unhashed.rsCorr
  - 0101300: 7570 7465 6420 7374 6174 6520 6174 2060  upted state at `
  - 0101310: 3a20 6000 fc12 1000 1400 0000 1013 1000  : `.............
  - 0101320: 0200 0000 1213 1000 0100 0000 7275 6e74  ............runt
  - 0101330: 696d 653a 3a73 746f 7261 6765 6672 616d  ime::storagefram
  - 0101340: 655f 7375 7070 6f72 743a 3a73 746f 7261  e_support::stora
  - 0101350: 6765 3a3a 756e 6861 7368 6564 4e6f 5965  ge::unhashedNoYe
  - 0101360: 7350 6179 7366 7261 6d65 5f73 7570 706f  sPaysframe_suppo
  - 0101370: 7274 3a3a 6469 7370 6174 6368 4469 7370  rt::dispatchDisp
  - 0101380: 6174 6368 436c 6173 734e 6f72 6d61 6c4f  atchClassNormalO
  - 0101390: 7065 7261 7469 6f6e 616c 4d61 6e64 6174  perationalMandat
  - 01013a0: 6f72 7944 6973 7061 7463 6849 6e66 6f50  oryDispatchInfoP
  - 01013b0: 6174 6820 6e6f 7420 6173 7369 676e 6564  ath not assigned
  - 01013c0: 2f55 7365 7273 2f74 656e 6768 7569 2f2e  /Users/tenghui/.
  - 01013d0: 6361 7267 6f2f 7265 6769 7374 7279 2f73  cargo/registry/s
  - 01013e0: 7263 2f72 7370 726f 7879 2e63 6e2d 3866  rc/rsproxy.cn-8f
  - 01013f0: 3638 3237 6337 3535 3562 6661 6638 2f73  6827c7555bfaf8/s
  - 0101400: 6361 6c65 2d69 6e66 6f2d 322e 342e 302f  cale-info-2.4.0/
  - 0101410: 7372 632f 6275 696c 642e 7273 c013 1000  src/build.rs....
  - 0101420: 5c00 0000 c100 0000 1e00 0000 7765 6967  \...........weig
  - 0101430: 6874 5765 6967 6874 636c 6173 7344 6973  htWeightclassDis
  - 0101440: 7061 7463 6843 6c61 7373 7061 7973 5f66  patchClasspays_f
  - 0101450: 6565 5061 7973 4261 6c61 6e63 6553 7461  eePaysBalanceSta
  - 0101460: 7475 7366 7261 6d65 5f73 7570 706f 7274  tusframe_support
  - 0101470: 3a3a 7472 6169 7473 3a3a 746f 6b65 6e73  ::traits::tokens
  - 0101480: 3a3a 6d69 7363 4672 6565 5265 7365 7276  ::miscFreeReserv
  - 0101490: 6564 0000 3a74 7261 6e73 6163 7469 6f6e  ed..:transaction
  - 01014a0: 5f6c 6576 656c 3a57 6520 6172 6520 756e  _level:We are un
  - 01014b0: 6465 7266 6c6f 7769 6e67 2077 6974 6820  derflowing with 
  - 01014c0: 6361 6c63 756c 6174 696e 6720 7472 616e  calculating tran
  - 01014d0: 7361 6374 696f 6e61 6c20 6c65 7665 6c73  sactional levels
  - 01014e0: 2e20 4e6f 7420 6772 6561 742c 2062 7574  . Not great, but
  - 01014f0: 206c 6574 2773 206e 6f74 2070 616e 6963   let's not panic
  - 0101500: 2e2e 2e00 a714 1000 5c00 0000 6672 616d  ........\...fram
  - 0101510: 655f 7375 7070 6f72 743a 3a73 746f 7261  e_support::stora
  - 0101520: 6765 3a3a 7472 616e 7361 6374 696f 6e61  ge::transactiona
  - 0101530: 6c2f 5573 6572 732f 7465 6e67 6875 692f  l/Users/tenghui/
  - 0101540: 2e63 6172 676f 2f67 6974 2f63 6865 636b  .cargo/git/check
  - 0101550: 6f75 7473 2f73 7562 7374 7261 7465 2d37  outs/substrate-7
  - 0101560: 6530 3834 3333 6434 6333 3730 6132 312f  e08433d4c370a21/
  - 0101570: 6261 3837 3138 382f 6672 616d 652f 7375  ba87188/frame/su
  - 0101580: 7070 6f72 742f 7372 632f 7374 6f72 6167  pport/src/storag
  - 0101590: 652f 7472 616e 7361 6374 696f 6e61 6c2e  e/transactional.
  - 01015a0: 7273 5061 7468 206e 6f74 2061 7373 6967  rsPath not assig
  - 01015b0: 6e65 642f 5573 6572 732f 7465 6e67 6875  ned/Users/tenghu
  - 01015c0: 692f 2e63 6172 676f 2f72 6567 6973 7472  i/.cargo/registr
  - 01015d0: 792f 7372 632f 7273 7072 6f78 792e 636e  y/src/rsproxy.cn
  - 01015e0: 2d38 6636 3832 3763 3735 3535 6266 6166  -8f6827c7555bfaf
  - 01015f0: 382f 7363 616c 652d 696e 666f 2d32 2e34  8/scale-info-2.4
  - 0101600: 2e30 2f73 7263 2f62 7569 6c64 2e72 7300  .0/src/build.rs.
  - 0101610: b315 1000 5c00 0000 c100 0000 1e00 0000  ....\...........
  - 0101620: 6f70 6572 6174 696f 6e61 6c54 6d61 6e64  operationalTmand
  - 0101630: 6174 6f72 796e 6f72 6d61 6c6d 6178 5065  atorynormalmaxPe
  - 0101640: 7244 6973 7061 7463 6843 6c61 7373 3c75  rDispatchClass<u
  - 0101650: 3332 3e62 6173 655f 6578 7472 696e 7369  32>base_extrinsi
  - 0101660: 6357 6569 6768 746d 6178 5f65 7874 7269  cWeightmax_extri
  - 0101670: 6e73 6963 4f70 7469 6f6e 3c57 6569 6768  nsicOption<Weigh
  - 0101680: 743e 6d61 785f 746f 7461 6c72 6573 6572  t>max_totalreser
  - 0101690: 7665 6462 6173 655f 626c 6f63 6b6d 6178  vedbase_blockmax
  - 01016a0: 5f62 6c6f 636b 7065 725f 636c 6173 7350  _blockper_classP
  - 01016b0: 6572 4469 7370 6174 6368 436c 6173 733c  erDispatchClass<
  - 01016c0: 5765 6967 6874 7350 6572 436c 6173 733e  WeightsPerClass>
  - 01016d0: 7533 3273 7065 635f 7665 7273 696f 6e63  u32spec_versionc
  - 01016e0: 6f64 6563 3a3a 436f 6d70 6163 743c 7533  odec::Compact<u3
  - 01016f0: 323e 7370 6563 5f6e 616d 6573 705f 7275  2>spec_namesp_ru
  - 0101700: 6e74 696d 653a 3a52 756e 7469 6d65 5374  ntime::RuntimeSt
  - 0101710: 7269 6e67 4f70 7469 6f6e 544e 6f6e 6553  ringOptionTNoneS
  - 0101720: 6f6d 6500 3200 0000 0100 0000 0100 0000  ome.2...........
  - 0101730: 3300 0000 2f55 7365 7273 2f74 656e 6768  3.../Users/tengh
  - 0101740: 7569 2f2e 6361 7267 6f2f 6769 742f 6368  ui/.cargo/git/ch
  - 0101750: 6563 6b6f 7574 732f 7375 6273 7472 6174  eckouts/substrat
  - 0101760: 652d 3765 3038 3433 3364 3463 3337 3061  e-7e08433d4c370a
  - 0101770: 3231 2f62 6138 3731 3838 2f66 7261 6d65  21/ba87188/frame
  - 0101780: 2f73 7973 7465 6d2f 7372 632f 6c69 6d69  /system/src/limi
  - 0101790: 7473 2e72 7353 656e 7369 626c 6520 6465  ts.rsSensible de
  - 01017a0: 6661 756c 7473 2061 7265 2074 6573 7465  faults are teste
  - 01017b0: 6420 746f 2062 6520 7661 6c69 643b 2071  d to be valid; q
  - 01017c0: 6564 0000 3417 1000 6100 0000 4f01 0000  ed..4...a...O...
  - 01017d0: 0e00 0000 3c77 6173 6d3a 7374 7269 7070  ....<wasm:stripp
  - 01017e0: 6564 3e42 6c6f 636b 4c65 6e67 7468 6672  ed>BlockLengthfr
  - 01017f0: 616d 655f 7379 7374 656d 3a3a 6c69 6d69  ame_system::limi
  - 0101800: 7473 5765 6967 6874 7350 6572 436c 6173  tsWeightsPerClas
  - 0101810: 7342 6c6f 636b 5765 6967 6874 7350 6572  sBlockWeightsPer
  - 0101820: 4469 7370 6174 6368 436c 6173 7366 7261  DispatchClassfra
  - 0101830: 6d65 5f73 7570 706f 7274 3a3a 6469 7370  me_support::disp
  - 0101840: 6174 6368 5450 6861 7365 6672 616d 655f  atchTPhaseframe_
  - 0101850: 7379 7374 656d 4170 706c 7945 7874 7269  systemApplyExtri
  - 0101860: 6e73 6963 4669 6e61 6c69 7a61 7469 6f6e  nsicFinalization
  - 0101870: 496e 6974 6961 6c69 7a61 7469 6f6e 4c61  InitializationLa
  - 0101880: 7374 5275 6e74 696d 6555 7067 7261 6465  stRuntimeUpgrade
  - 0101890: 496e 666f 3700 0000 0000 0000 0100 0000  Info7...........
  - 01018a0: 3700 0000 0000 0000 0100 0000 9418 1000  7...............
  - 01018b0: 3800 0000 3900 0000 3a00 0000 2f55 7365  8...9...:.../Use
  - 01018c0: 7273 2f74 656e 6768 7569 2f2e 6361 7267  rs/tenghui/.carg
  - 01018d0: 6f2f 7265 6769 7374 7279 2f73 7263 2f72  o/registry/src/r
  - 01018e0: 7370 726f 7879 2e63 6e2d 3866 3638 3237  sproxy.cn-8f6827
  - 01018f0: 6337 3535 3562 6661 6638 2f6c 6f67 2d30  c7555bfaf8/log-0
  - 0101900: 2e34 2e31 372f 7372 632f 6c69 622e 7273  .4.17/src/lib.rs
  - 0101910: 6b65 792d 7661 6c75 6520 7375 7070 6f72  key-value suppor
  - 0101920: 7420 6973 2065 7870 6572 696d 656e 7461  t is experimenta
  - 0101930: 6c20 616e 6420 6d75 7374 2062 6520 656e  l and must be en
  - 0101940: 6162 6c65 6420 7573 696e 6720 7468 6520  abled using the 
  - 0101950: 606b 765f 756e 7374 6162 6c65 6020 6665  `kv_unstable` fe
  - 0101960: 6174 7572 6500 0000 bc18 1000 5400 0000  ature.......T...
  - 0101970: 3806 0000 0900 0000 2f55 7365 7273 2f74  8......./Users/t
  - 0101980: 656e 6768 7569 2f2e 6361 7267 6f2f 7265  enghui/.cargo/re
  - 0101990: 6769 7374 7279 2f73 7263 2f72 7370 726f  gistry/src/rspro
  - 01019a0: 7879 2e63 6e2d 3866 3638 3237 6337 3535  xy.cn-8f6827c755
  - 01019b0: 3562 6661 6638 2f70 6172 6974 792d 7363  5bfaf8/parity-sc
  - 01019c0: 616c 652d 636f 6465 632d 332e 342e 302f  ale-codec-3.4.0/
  - 01019d0: 7372 632f 636f 6d70 6163 742e 7273 6361  src/compact.rsca
  - 01019e0: 7573 655f 6572 726f 7264 6f5f 736f 6d65  use_errordo_some
  - 01019f0: 7468 696e 6750 7265 7669 6f75 7320 6d61  thingPrevious ma
  - 0101a00: 7463 6820 6172 6d20 6d61 7463 6865 7320  tch arm matches 
  - 0101a10: 616e 7974 696e 6720 6c65 7373 2074 6861  anyting less tha
  - 0101a20: 6e20 325e 3330 3b20 7165 6400 f519 1000  n 2^30; qed.....
  - 0101a30: 3600 0000 7819 1000 6600 0000 5701 0000  6...x...f...W...
  - 0101a40: 1100 0000 0000 0000 0000 0000 0000 0000  ................
  - 0101a50: 7368 6966 7465 6420 7375 6666 6963 6965  shifted sufficie
  - 0101a60: 6e74 2062 6974 7320 7269 6768 7420 746f  nt bits right to
  - 0101a70: 206c 6561 6420 6f6e 6c79 206c 6561 6469   lead only leadi
  - 0101a80: 6e67 207a 6572 6f73 3b20 7165 6400 0000  ng zeros; qed...
  - 0101a90: 501a 1000 3d00 0000 7819 1000 6600 0000  P...=...x...f...
  - 0101aa0: 5e01 0000 1100 0000 7819 1000 6600 0000  ^.......x...f...
  - 0101ab0: 8301 0000 1100 0000 0000 0000 0000 0000  ................
  - 0101ac0: 0000 0000 0000 0000 7819 1000 6600 0000  ........x...f...
  - 0101ad0: 8a01 0000 1100 0000 e29c 8520 6e6f 206d  ........... no m
  - 0101ae0: 6967 7261 7469 6f6e 2066 6f72 2000 0000  igration for ...
  - 0101af0: d81a 1000 1500 0000 7275 6e74 696d 653a  ........runtime:
  - 0101b00: 3a66 7261 6d65 2d73 7570 706f 7274 7061  :frame-supportpa
  - 0101b10: 6c6c 6574 5f74 656d 706c 6174 653a 3a70  llet_template::p
  - 0101b20: 616c 6c65 742f 5573 6572 732f 7465 6e67  allet/Users/teng
  - 0101b30: 6875 692f 7072 6f6a 6563 742f 7061 7269  hui/project/pari
  - 0101b40: 7479 7465 6368 2f73 7562 7374 7261 7465  tytech/substrate
  - 0101b50: 2d6e 6f64 652d 7465 6d70 6c61 7465 2f70  -node-template/p
  - 0101b60: 616c 6c65 7473 2f74 656d 706c 6174 652f  allets/template/
  - 0101b70: 7372 632f 6c69 622e 7273 5374 6f72 6167  src/lib.rsStorag
  - 0101b80: 654f 7665 7266 6c6f 774e 6f6e 6556 616c  eOverflowNoneVal
  - 0101b90: 7565 4361 6c6c 5443 6f6e 7461 696e 7320  ueCallTContains 
  - 0101ba0: 6f6e 6520 7661 7269 616e 7420 7065 7220  one variant per 
  - 0101bb0: 6469 7370 6174 6368 6162 6c65 2074 6861  dispatchable tha
  - 0101bc0: 7420 6361 6e20 6265 2063 616c 6c65 6420  t can be called 
  - 0101bd0: 6279 2061 6e20 6578 7472 696e 7369 632e  by an extrinsic.
  - 0101be0: 971b 1000 4900 0000 4572 726f 720a 0909  ....I...Error...
  - 0101bf0: 0943 7573 746f 6d20 5b64 6973 7061 7463  .Custom [dispatc
  - 0101c00: 6820 6572 726f 7273 5d28 6874 7470 733a  h errors](https:
  - 0101c10: 2f2f 646f 6373 2e73 7562 7374 7261 7465  //docs.substrate
  - 0101c20: 2e69 6f2f 6d61 696e 2d64 6f63 732f 6275  .io/main-docs/bu
  - 0101c30: 696c 642f 6576 656e 7473 2d65 7272 6f72  ild/events-error
  - 0101c40: 732f 290a 0909 096f 6620 7468 6973 2070  s/)....of this p
  - 0101c50: 616c 6c65 742e 0a09 0909 0000 0000 0000  allet...........
  - 0101c60: ed1b 1000 6d00 0000 4576 656e 740a 0909  ....m...Event...
  - 0101c70: 0954 6865 205b 6576 656e 745d 2868 7474  .The [event](htt
  - 0101c80: 7073 3a2f 2f64 6f63 732e 7375 6273 7472  ps://docs.substr
  - 0101c90: 6174 652e 696f 2f6d 6169 6e2d 646f 6373  ate.io/main-docs
  - 0101ca0: 2f62 7569 6c64 2f65 7665 6e74 732d 6572  /build/events-er
  - 0101cb0: 726f 7273 2f29 2065 6d69 7474 6564 0a09  rors/) emitted..
  - 0101cc0: 0909 6279 2074 6869 7320 7061 6c6c 6574  ..by this pallet
  - 0101cd0: 2e0a 0909 0900 0000 6d1c 1000 6800 0000  ........m...h...
  - 0101ce0: 536f 6d65 7468 696e 6753 746f 7265 6445  SomethingStoredE
  - 0101cf0: 7175 6976 6f63 6174 696f 6e50 726f 6f66  quivocationProof
  - 0101d00: 7370 5f63 6f6e 7365 6e73 7573 5f67 7261  sp_consensus_gra
  - 0101d10: 6e64 7061 484e 4571 7569 766f 6361 7469  ndpaHNEquivocati
  - 0101d20: 6f6e 5072 6576 6f74 6550 7265 636f 6d6d  onPrevotePrecomm
  - 0101d30: 6974 4b65 794e 6578 7446 6565 4d75 6c74  itKeyNextFeeMult
  - 0101d40: 6970 6c69 6572 5570 6772 6164 6564 546f  iplierUpgradedTo
  - 0101d50: 5533 3252 6566 436f 756e 7444 6967 6573  U32RefCountDiges
  - 0101d60: 7450 656e 6469 6e67 4368 616e 6765 5374  tPendingChangeSt
  - 0101d70: 6174 6555 7067 7261 6465 6454 6f54 7269  ateUpgradedToTri
  - 0101d80: 706c 6552 6566 436f 756e 744e 6578 7446  pleRefCountNextF
  - 0101d90: 6f72 6365 6443 7572 7265 6e74 536c 6f74  orcedCurrentSlot
  - 0101da0: 4c61 7374 5275 6e74 696d 6555 7067 7261  LastRuntimeUpgra
  - 0101db0: 6465 416c 6c45 7874 7269 6e73 6963 734c  deAllExtrinsicsL
  - 0101dc0: 656e 4576 656e 7443 6f75 6e74 4375 7272  enEventCountCurr
  - 0101dd0: 656e 7453 6574 4964 5061 7265 6e74 4861  entSetIdParentHa
  - 0101de0: 7368 4578 6563 7574 696f 6e50 6861 7365  shExecutionPhase
  - 0101df0: 5374 616c 6c65 6445 7874 7269 6e73 6963  StalledExtrinsic
  - 0101e00: 436f 756e 7449 6e61 6374 6976 6549 7373  CountInactiveIss
  - 0101e10: 7561 6e63 6541 7574 686f 7269 7469 6573  uanceAuthorities
  - 0101e20: 4e75 6d62 6572 426c 6f63 6b57 6569 6768  NumberBlockWeigh
  - 0101e30: 7454 6f74 616c 4973 7375 616e 6365 4e6f  tTotalIssuanceNo
  - 0101e40: 7745 7665 6e74 7353 746f 7261 6765 5665  wEventsStorageVe
  - 0101e50: 7273 696f 6e44 6964 5570 6461 7465 536f  rsionDidUpdateSo
  - 0101e60: 6d65 7468 696e 67e2 9c85 206e 6f20 6d69  mething... no mi
  - 0101e70: 6772 6174 696f 6e20 666f 7220 671e 1000  gration for g...
  - 0101e80: 1500 0000 7275 6e74 696d 653a 3a66 7261  ....runtime::fra
  - 0101e90: 6d65 2d73 7570 706f 7274 7061 6c6c 6574  me-supportpallet
  - 0101ea0: 5f73 7564 6f3a 3a70 616c 6c65 742f 5573  _sudo::pallet/Us
  - 0101eb0: 6572 732f 7465 6e67 6875 692f 2e63 6172  ers/tenghui/.car
  - 0101ec0: 676f 2f67 6974 2f63 6865 636b 6f75 7473  go/git/checkouts
  - 0101ed0: 2f73 7562 7374 7261 7465 2d37 6530 3834  /substrate-7e084
  - 0101ee0: 3333 6434 6333 3730 6132 312f 6261 3837  33d4c370a21/ba87
  - 0101ef0: 3138 382f 6672 616d 652f 7375 646f 2f73  188/frame/sudo/s
  - 0101f00: 7263 2f6c 6962 2e72 7343 6865 636b 5765  rc/lib.rsCheckWe
  - 0101f10: 6967 6874 5265 7175 6972 6553 7564 6f20  ightRequireSudo 
  - 0101f20: 5468 6520 6041 6363 6f75 6e74 4964 6020  The `AccountId` 
  - 0101f30: 6f66 2074 6865 2073 7564 6f20 6b65 792e  of the sudo key.
  - 0101f40: 4361 6c6c 5443 6f6e 7461 696e 7320 6f6e  CallTContains on
  - 0101f50: 6520 7661 7269 616e 7420 7065 7220 6469  e variant per di
  - 0101f60: 7370 6174 6368 6162 6c65 2074 6861 7420  spatchable that 
  - 0101f70: 6361 6e20 6265 2063 616c 6c65 6420 6279  can be called by
  - 0101f80: 2061 6e20 6578 7472 696e 7369 632e 0000   an extrinsic...
  - 0101f90: 451f 1000 4900 0000 7375 646f 7375 646f  E...I...sudosudo
  - 0101fa0: 5f75 6e63 6865 636b 6564 5f77 6569 6768  _unchecked_weigh
  - 0101fb0: 7473 6574 5f6b 6579 7375 646f 5f61 7345  tset_keysudo_asE
  - 0101fc0: 7272 6f72 4572 726f 7220 666f 7220 7468  rrorError for th
  - 0101fd0: 6520 5375 646f 2070 616c 6c65 7400 0000  e Sudo pallet...
  - 0101fe0: c41f 1000 1900 0000 4576 656e 740a 0909  ........Event...
  - 0101ff0: 0954 6865 205b 6576 656e 745d 2868 7474  .The [event](htt
  - 0102000: 7073 3a2f 2f64 6f63 732e 7375 6273 7472  ps://docs.substr
  - 0102010: 6174 652e 696f 2f6d 6169 6e2d 646f 6373  ate.io/main-docs
  - 0102020: 2f62 7569 6c64 2f65 7665 6e74 732d 6572  /build/events-er
  - 0102030: 726f 7273 2f29 2065 6d69 7474 6564 0a09  rors/) emitted..
  - 0102040: 0909 6279 2074 6869 7320 7061 6c6c 6574  ..by this pallet
  - 0102050: 2e0a 0909 0900 0000 ed1f 1000 6800 0000  ............h...
  - 0102060: 5375 6469 644b 6579 4368 616e 6765 6453  SudidKeyChangedS
  - 0102070: 7564 6f41 7344 6f6e 6566 7261 6d65 5f73  udoAsDoneframe_s
  - 0102080: 7973 7465 6d3a 3a65 7874 656e 7369 6f6e  ystem::extension
  - 0102090: 733a 3a63 6865 636b 5f77 6569 6768 7442  s::check_weightB
  - 01020a0: 6f75 6e64 6564 5665 6362 6f75 6e64 6564  oundedVecbounded
  - 01020b0: 5f63 6f6c 6c65 6374 696f 6e73 3a3a 626f  _collections::bo
  - 01020c0: 756e 6465 645f 7665 6353 2f72 7573 7463  unded_vecS/rustc
  - 01020d0: 2f35 3734 6236 3461 3937 6635 3231 3632  /574b64a97f52162
  - 01020e0: 6639 3635 6263 3230 3165 3437 6630 6166  f965bc201e47f0af
  - 01020f0: 3832 3739 6361 3635 642f 6c69 6272 6172  8279ca65d/librar
  - 0102100: 792f 636f 7265 2f73 7263 2f6f 7073 2f61  y/core/src/ops/a
  - 0102110: 7269 7468 2e72 7300 ca20 1000 4d00 0000  rith.rs.. ..M...
  - 0102120: e801 0000 0100 0000 0000 0000 0000 0000  ................
  - 0102130: 6174 7465 6d70 7420 746f 2064 6976 6964  attempt to divid
  - 0102140: 6520 6279 207a 6572 6f61 7373 6572 7469  e by zeroasserti
  - 0102150: 6f6e 2066 6169 6c65 643a 206d 696e 203c  on failed: min <
  - 0102160: 3d20 6d61 782f 7275 7374 632f 3537 3462  = max/rustc/574b
  - 0102170: 3634 6139 3766 3532 3136 3266 3936 3562  64a97f52162f965b
  - 0102180: 6332 3031 6534 3766 3061 6638 3237 3963  c201e47f0af8279c
  - 0102190: 6136 3564 2f6c 6962 7261 7279 2f63 6f72  a65d/library/cor
  - 01021a0: 652f 7372 632f 636d 702e 7273 6521 1000  e/src/cmp.rse!..
  - 01021b0: 4700 0000 6303 0000 0900 0000 2f72 7573  G...c......./rus
  - 01021c0: 7463 2f35 3734 6236 3461 3937 6635 3231  tc/574b64a97f521
  - 01021d0: 3632 6639 3635 6263 3230 3165 3437 6630  62f965bc201e47f0
  - 01021e0: 6166 3832 3739 6361 3635 642f 6c69 6272  af8279ca65d/libr
  - 01021f0: 6172 792f 616c 6c6f 632f 7372 632f 736c  ary/alloc/src/sl
  - 0102200: 6963 652e 7273 0000 bc21 1000 4a00 0000  ice.rs...!..J...
  - 0102210: 2104 0000 1500 0000 bc21 1000 4a00 0000  !........!..J...
  - 0102220: 2f04 0000 1e00 0000 bc21 1000 4a00 0000  /........!..J...
  - 0102230: 3804 0000 1800 0000 bc21 1000 4a00 0000  8........!..J...
  - 0102240: 3c04 0000 1a00 0000 bc21 1000 4a00 0000  <........!..J...
  - 0102250: 4204 0000 0d00 0000 bc21 1000 4a00 0000  B........!..J...
  - 0102260: 4304 0000 1200 0000 6071 202f 2063 6569  C.......`q / cei
  - 0102270: 6c28 712f 246d 6178 2920 3c20 246d 6178  l(q/$max) < $max
  - 0102280: 603b 206d 6163 726f 2070 7265 7665 6e74  `; macro prevent
  - 0102290: 7320 616e 7920 7479 7065 2062 6569 6e67  s any type being
  - 01022a0: 2063 7265 6174 6564 2074 6861 7420 646f   created that do
  - 01022b0: 6573 206e 6f74 2073 6174 6973 6679 2074  es not satisfy t
  - 01022c0: 6869 733b 2071 6564 4a00 0000 0800 0000  his; qedJ.......
  - 01022d0: 0400 0000 4b00 0000 2f55 7365 7273 2f74  ....K.../Users/t
  - 01022e0: 656e 6768 7569 2f2e 6361 7267 6f2f 6769  enghui/.cargo/gi
  - 01022f0: 742f 6368 6563 6b6f 7574 732f 7375 6273  t/checkouts/subs
  - 0102300: 7472 6174 652d 3765 3038 3433 3364 3463  trate-7e08433d4c
  - 0102310: 3337 3061 3231 2f62 6138 3731 3838 2f70  370a21/ba87188/p
  - 0102320: 7269 6d69 7469 7665 732f 6172 6974 686d  rimitives/arithm
  - 0102330: 6574 6963 2f73 7263 2f70 6572 5f74 6869  etic/src/per_thi
  - 0102340: 6e67 732e 7273 0000 d822 1000 6e00 0000  ngs.rs..."..n...
  - 0102350: 4907 0000 0100 0000 6070 202f 2063 6569  I.......`p / cei
  - 0102360: 6c28 702f 246d 6178 2920 3c20 246d 6178  l(p/$max) < $max
  - 0102370: 603b 206d 6163 726f 2070 7265 7665 6e74  `; macro prevent
  - 0102380: 7320 616e 7920 7479 7065 2062 6569 6e67  s any type being
  - 0102390: 2063 7265 6174 6564 2074 6861 7420 646f   created that do
  - 01023a0: 6573 206e 6f74 2073 6174 6973 6679 2074  es not satisfy t
  - 01023b0: 6869 733b 2071 6564 4661 696c 6564 2074  his; qedFailed t
  - 01023c0: 6f20 636f 6e76 6572 746e 6f64 652d 7465  o convertnode-te
  - 01023d0: 6d70 6c61 7465 0000 df6a cb68 9907 609b  mplate...j.h..`.
  - 01023e0: 0400 0000 37e3 97fc 7c91 f5e4 0100 0000  ....7...|.......
  - 01023f0: 40fe 3ad4 01f8 959a 0600 0000 d2bc 9897  @.:.............
  - 0102400: eed0 8f15 0300 0000 f78b 278b e53f 454c  ..........'..?EL
  - 0102410: 0200 0000 dd71 8d5c c532 62d4 0100 0000  .....q.\.2b.....
  - 0102420: ab3c 0572 291f eb8b 0100 0000 ed99 c5ac  .<.r)...........
  - 0102430: b25e edf5 0300 0000 bc9d 8990 4f5b 923f  .^..........O[.?
  - 0102440: 0100 0000 37c8 bb13 50a9 a2a8 0300 0000  ....7...P.......
  - 0102450: f3ff 14d5 ab52 7059 0300 0000 0000 0000  .....RpY........
  - 0102460: c923 1000 0d00 0000 0000 0000 0000 0000  .#..............
  - 0102470: c923 1000 0d00 0000 0000 0000 0000 0000  .#..............
  - 0102480: d823 1000 0b00 0000 0000 0000 0100 0000  .#..............
  - 0102490: 6400 0000 0100 0000 0100 0000 0100 0000  d...............
  - 01024a0: 6200 0000 0000 0000 0100 0000 6300 0000  b...........c...
  - 01024b0: 6400 0000 6500 0000 6200 0000 0000 0000  d...e...b.......
  - 01024c0: 0100 0000 6600 0000 6700 0000 6700 0000  ....f...g...g...
  - 01024d0: 5379 7374 656d 5469 6d65 7374 616d 7041  SystemTimestampA
  - 01024e0: 7572 6147 7261 6e64 7061 4261 6c61 6e63  uraGrandpaBalanc
  - 01024f0: 6573 5472 616e 7361 6374 696f 6e50 6179  esTransactionPay
  - 0102500: 6d65 6e74 5375 646f 5465 6d70 6c61 7465  mentSudoTemplate
  - 0102510: 4d6f 6475 6c65 506f 654d 6f64 756c 6552  ModulePoeModuleR
  - 0102520: 756e 7469 6d65 6e6f 6465 5f74 656d 706c  untimenode_templ
  - 0102530: 6174 655f 7275 6e74 696d 6552 756e 7469  ate_runtimeRunti
  - 0102540: 6d65 4576 656e 7452 756e 7469 6d65 4361  meEventRuntimeCa
  - 0102550: 6c6c 4f70 7469 6f6e 544e 6f6e 6553 6f6d  llOptionTNoneSom
  - 0102560: 654c 6f67 6963 2065 7272 6f72 3a20 4163  eLogic error: Ac
  - 0102570: 636f 756e 7420 616c 7265 6164 7920 6465  count already de
  - 0102580: 6164 2077 6865 6e20 7265 6475 6369 6e67  ad when reducing
  - 0102590: 2070 726f 7669 6465 7200 0000 6125 1000   provider...a%..
  - 01025a0: 3800 0000 7275 6e74 696d 653a 3a73 7973  8...runtime::sys
  - 01025b0: 7465 6d66 7261 6d65 5f73 7973 7465 6d2f  temframe_system/
  - 01025c0: 5573 6572 732f 7465 6e67 6875 692f 2e63  Users/tenghui/.c
  - 01025d0: 6172 676f 2f67 6974 2f63 6865 636b 6f75  argo/git/checkou
  - 01025e0: 7473 2f73 7562 7374 7261 7465 2d37 6530  ts/substrate-7e0
  - 01025f0: 3834 3333 6434 6333 3730 6132 312f 6261  8433d4c370a21/ba
  - 0102600: 3837 3138 382f 6672 616d 652f 7379 7374  87188/frame/syst
  - 0102610: 656d 2f73 7263 2f6c 6962 2e72 734c 6f67  em/src/lib.rsLog
  - 0102620: 6963 2065 7272 6f72 3a20 556e 6578 7065  ic error: Unexpe
  - 0102630: 6374 6564 2075 6e64 6572 666c 6f77 2069  cted underflow i
  - 0102640: 6e20 7265 6475 6369 6e67 2070 726f 7669  n reducing provi
  - 0102650: 6465 7200 1d26 1000 3600 0000 5265 7365  der..&..6...Rese
  - 0102660: 7276 6573 4576 656e 7454 6f70 6963 7350  rvesEventTopicsP
  - 0102670: 726f 6f66 7341 6363 6f75 6e74 4578 7472  roofsAccountExtr
  - 0102680: 696e 7369 6344 6174 6153 6574 4964 5365  insicDataSetIdSe
  - 0102690: 7373 696f 6e42 6c6f 636b 4861 7368 4c6f  ssionBlockHashLo
  - 01026a0: 636b 7300 a425 1000 0000 0000 6120 6465  cks..%......a de
  - 01026b0: 6665 6e73 6976 6520 6661 696c 7572 6520  fensive failure 
  - 01026c0: 6861 7320 6265 656e 2074 7269 6767 6572  has been trigger
  - 01026d0: 6564 3b20 706c 6561 7365 2072 6570 6f72  ed; please repor
  - 01026e0: 7420 7468 6520 626c 6f63 6b20 6e75 6d62  t the block numb
  - 01026f0: 6572 2061 7420 6874 7470 733a 2f2f 6769  er at https://gi
  - 0102700: 7468 7562 2e63 6f6d 2f70 6172 6974 7974  thub.com/parityt
  - 0102710: 6563 682f 7375 6273 7472 6174 652f 6973  ech/substrate/is
  - 0102720: 7375 6573 ac26 1000 7800 0000 7275 6e74  sues.&..x...runt
  - 0102730: 696d 6566 7261 6d65 5f73 7570 706f 7274  imeframe_support
  - 0102740: 3a3a 7472 6169 7473 3a3a 6d69 7363 2f55  ::traits::misc/U
  - 0102750: 7365 7273 2f74 656e 6768 7569 2f2e 6361  sers/tenghui/.ca
  - 0102760: 7267 6f2f 6769 742f 6368 6563 6b6f 7574  rgo/git/checkout
  - 0102770: 732f 7375 6273 7472 6174 652d 3765 3038  s/substrate-7e08
  - 0102780: 3433 3364 3463 3337 3061 3231 2f62 6138  433d4c370a21/ba8
  - 0102790: 3731 3838 2f66 7261 6d65 2f73 7570 706f  7188/frame/suppo
  - 01027a0: 7274 2f73 7263 2f74 7261 6974 732f 6d69  rt/src/traits/mi
  - 01027b0: 7363 2e72 73e2 9c85 206e 6f20 6d69 6772  sc.rs... no migr
  - 01027c0: 6174 696f 6e20 666f 7220 0000 b527 1000  ation for ...'..
  - 01027d0: 1500 0000 7275 6e74 696d 653a 3a66 7261  ....runtime::fra
  - 01027e0: 6d65 2d73 7570 706f 7274 7061 6c6c 6574  me-supportpallet
  - 01027f0: 5f70 6f65 3a3a 7061 6c6c 6574 2f55 7365  _poe::pallet/Use
  - 0102800: 7273 2f74 656e 6768 7569 2f70 726f 6a65  rs/tenghui/proje
  - 0102810: 6374 2f70 6172 6974 7974 6563 682f 7375  ct/paritytech/su
  - 0102820: 6273 7472 6174 652d 6e6f 6465 2d74 656d  bstrate-node-tem
  - 0102830: 706c 6174 652f 7061 6c6c 6574 732f 706f  plate/pallets/po
  - 0102840: 652f 7372 632f 6c69 622e 7273 7061 6c6c  e/src/lib.rspall
  - 0102850: 6574 5f61 7572 613a 3a70 616c 6c65 742f  et_aura::pallet/
  - 0102860: 5573 6572 732f 7465 6e67 6875 692f 2e63  Users/tenghui/.c
  - 0102870: 6172 676f 2f67 6974 2f63 6865 636b 6f75  argo/git/checkou
  - 0102880: 7473 2f73 7562 7374 7261 7465 2d37 6530  ts/substrate-7e0
  - 0102890: 3834 3333 6434 6333 3730 6132 312f 6261  8433d4c370a21/ba
  - 01028a0: 3837 3138 382f 6672 616d 652f 6175 7261  87188/frame/aura
  - 01028b0: 2f73 7263 2f6c 6962 2e72 734e 6f74 436c  /src/lib.rsNotCl
  - 01028c0: 6169 6d4f 776e 6572 436c 6169 6d4e 6f74  aimOwnerClaimNot
  - 01028d0: 4578 6973 7443 6c61 696d 546f 6f4c 6f6e  ExistClaimTooLon
  - 01028e0: 6750 726f 6f66 4e6f 7445 7869 7374 5072  gProofNotExistPr
  - 01028f0: 6f6f 6641 6c72 6561 6479 4578 6973 744e  oofAlreadyExistN
  - 0102900: 6f20 6e61 6d65 2066 6f75 6e64 2066 6f72  o name found for
  - 0102910: 2074 6865 2070 616c 6c65 7420 696e 2074   the pallet in t
  - 0102920: 6865 2072 756e 7469 6d65 2120 5468 6973  he runtime! This
  - 0102930: 2075 7375 616c 6c79 206d 6561 6e73 2074   usually means t
  - 0102940: 6861 7420 7468 6520 7061 6c6c 6574 2077  hat the pallet w
  - 0102950: 6173 6e27 7420 6164 6465 6420 746f 2060  asn't added to `
  - 0102960: 636f 6e73 7472 7563 745f 7275 6e74 696d  construct_runtim
  - 0102970: 6521 602e 4361 6c6c 5443 6f6e 7461 696e  e!`.CallTContain
  - 0102980: 7320 6f6e 6520 7661 7269 616e 7420 7065  s one variant pe
  - 0102990: 7220 6469 7370 6174 6368 6162 6c65 2074  r dispatchable t
  - 01029a0: 6861 7420 6361 6e20 6265 2063 616c 6c65  hat can be calle
  - 01029b0: 6420 6279 2061 6e20 6578 7472 696e 7369  d by an extrinsi
  - 01029c0: 632e 0000 0000 0000 7929 1000 4900 0000  c.......y)..I...
  - 01029d0: 6372 6561 7465 5f63 6c61 696d 7265 766f  create_claimrevo
  - 01029e0: 6b65 5f63 6c61 696d 7472 616e 7366 6572  ke_claimtransfer
  - 01029f0: 5f63 6c61 696d 4572 726f 720a 0909 0943  _claimError....C
  - 0102a00: 7573 746f 6d20 5b64 6973 7061 7463 6820  ustom [dispatch 
  - 0102a10: 6572 726f 7273 5d28 6874 7470 733a 2f2f  errors](https://
  - 0102a20: 646f 6373 2e73 7562 7374 7261 7465 2e69  docs.substrate.i
  - 0102a30: 6f2f 6d61 696e 2d64 6f63 732f 6275 696c  o/main-docs/buil
  - 0102a40: 642f 6576 656e 7473 2d65 7272 6f72 732f  d/events-errors/
  - 0102a50: 290a 0909 096f 6620 7468 6973 2070 616c  )....of this pal
  - 0102a60: 6c65 742e 0a09 0909 fb29 1000 6d00 0000  let......)..m...
  - 0102a70: 4576 656e 740a 0909 0954 6865 205b 6576  Event....The [ev
  - 0102a80: 656e 745d 2868 7474 7073 3a2f 2f64 6f63  ent](https://doc
  - 0102a90: 732e 7375 6273 7472 6174 652e 696f 2f6d  s.substrate.io/m
  - 0102aa0: 6169 6e2d 646f 6373 2f62 7569 6c64 2f65  ain-docs/build/e
  - 0102ab0: 7665 6e74 732d 6572 726f 7273 2f29 2065  vents-errors/) e
  - 0102ac0: 6d69 7474 6564 0a09 0909 6279 2074 6869  mitted....by thi
  - 0102ad0: 7320 7061 6c6c 6574 2e0a 0909 0900 0000  s pallet........
  - 0102ae0: 752a 1000 6800 0000 436c 6169 6d43 7265  u*..h...ClaimCre
  - 0102af0: 6174 6564 436c 6169 6d52 6576 6f6b 6564  atedClaimRevoked
  - 0102b00: 436c 6169 6d54 7261 6e73 6665 7272 6564  ClaimTransferred
  - 0102b10: 5265 7375 6c74 454f 6b45 7272 4368 6563  ResultEOkErrChec
  - 0102b20: 6b47 656e 6573 6973 4368 6563 6b54 7856  kGenesisCheckTxV
  - 0102b30: 6572 7369 6f6e 4368 6563 6b4e 6f6e 6365  ersionCheckNonce
  - 0102b40: 4368 6172 6765 5472 616e 7361 6374 696f  ChargeTransactio
  - 0102b50: 6e50 6179 6d65 6e74 4368 6563 6b53 7065  nPaymentCheckSpe
  - 0102b60: 6356 6572 7369 6f6e 5469 6d65 7374 616d  cVersionTimestam
  - 0102b70: 7020 736c 6f74 206d 7573 7420 6d61 7463  p slot must matc
  - 0102b80: 6820 6043 7572 7265 6e74 536c 6f74 6000  h `CurrentSlot`.
  - 0102b90: 682b 1000 2700 0000 5f28 1000 5c00 0000  h+..'..._(..\...
  - 0102ba0: 3501 0000 0900 0000 2054 6865 2063 7572  5....... The cur
  - 0102bb0: 7265 6e74 2061 7574 686f 7269 7479 2073  rent authority s
  - 0102bc0: 6574 2e20 5468 6520 6375 7272 656e 7420  et. The current 
  - 0102bd0: 736c 6f74 206f 6620 7468 6973 2062 6c6f  slot of this blo
  - 0102be0: 636b 2e20 5468 6973 2077 696c 6c20 6265  ck. This will be
  - 0102bf0: 2073 6574 2069 6e20 606f 6e5f 696e 6974   set in `on_init
  - 0102c00: 6961 6c69 7a65 602e 6672 616d 655f 7379  ialize`.frame_sy
  - 0102c10: 7374 656d 3a3a 6578 7465 6e73 696f 6e73  stem::extensions
  - 0102c20: 3a3a 6368 6563 6b5f 6e6f 6e63 6566 7261  ::check_noncefra
  - 0102c30: 6d65 5f73 7973 7465 6d3a 3a65 7874 656e  me_system::exten
  - 0102c40: 7369 6f6e 733a 3a63 6865 636b 5f67 656e  sions::check_gen
  - 0102c50: 6573 6973 6672 616d 655f 7379 7374 656d  esisframe_system
  - 0102c60: 3a3a 6578 7465 6e73 696f 6e73 3a3a 6368  ::extensions::ch
  - 0102c70: 6563 6b5f 7478 5f76 6572 7369 6f6e 6672  eck_tx_versionfr
  - 0102c80: 616d 655f 7379 7374 656d 3a3a 6578 7465  ame_system::exte
  - 0102c90: 6e73 696f 6e73 3a3a 6368 6563 6b5f 7370  nsions::check_sp
  - 0102ca0: 6563 5f76 6572 7369 6f6e 0000 5f28 1000  ec_version.._(..
  - 0102cb0: 5c00 0000 7700 0000 0f00 0000 5065 7244  \...w.......PerD
  - 0102cc0: 6973 7061 7463 6843 6c61 7373 6672 616d  ispatchClassfram
  - 0102cd0: 655f 7375 7070 6f72 743a 3a64 6973 7061  e_support::dispa
  - 0102ce0: 7463 6855 6e63 6865 636b 6564 4578 7472  tchUncheckedExtr
  - 0102cf0: 696e 7369 6373 705f 7275 6e74 696d 653a  insicsp_runtime:
  - 0102d00: 3a67 656e 6572 6963 3a3a 756e 6368 6563  :generic::unchec
  - 0102d10: 6b65 645f 6578 7472 696e 7369 6341 6464  ked_extrinsicAdd
  - 0102d20: 7265 7373 5369 676e 6174 7572 6545 7874  ressSignatureExt
  - 0102d30: 7261 5374 6f72 6564 5065 6e64 696e 6743  raStoredPendingC
  - 0102d40: 6861 6e67 6570 616c 6c65 745f 6772 616e  hangepallet_gran
  - 0102d50: 6470 614e 4c69 6d69 7453 746f 7265 6453  dpaNLimitStoredS
  - 0102d60: 7461 7465 4c69 7665 5065 6e64 696e 6750  tateLivePendingP
  - 0102d70: 6175 7365 5061 7573 6564 5065 6e64 696e  ausePausedPendin
  - 0102d80: 6752 6573 756d 6552 6573 6572 7665 4461  gResumeReserveDa
  - 0102d90: 7461 7061 6c6c 6574 5f62 616c 616e 6365  tapallet_balance
  - 0102da0: 7352 6573 6572 7665 4964 656e 7469 6669  sReserveIdentifi
  - 0102db0: 6572 4261 6c61 6e63 6541 6363 6f75 6e74  erBalanceAccount
  - 0102dc0: 4461 7461 4261 6c61 6e63 654c 6f63 6b53  DataBalanceLockS
  - 0102dd0: 6c6f 7420 6d75 7374 2069 6e63 7265 6173  lot must increas
  - 0102de0: 6500 0000 cf2d 1000 1200 0000 5f28 1000  e....-......_(..
  - 0102df0: 5c00 0000 5f00 0000 1100 0000 5f28 1000  \..._......._(..
  - 0102e00: 5c00 0000 6300 0000 2b00 0000 0000 0000  \...c...+.......
  - 0102e10: 6174 7465 6d70 7420 746f 2063 616c 6375  attempt to calcu
  - 0102e20: 6c61 7465 2074 6865 2072 656d 6169 6e64  late the remaind
  - 0102e30: 6572 2077 6974 6820 6120 6469 7669 736f  er with a diviso
  - 0102e40: 7220 6f66 207a 6572 6f70 616c 6c65 745f  r of zeropallet_
  - 0102e50: 7472 616e 7361 6374 696f 6e5f 7061 796d  transaction_paym
  - 0102e60: 656e 742f 5573 6572 732f 7465 6e67 6875  ent/Users/tenghu
  - 0102e70: 692f 2e63 6172 676f 2f67 6974 2f63 6865  i/.cargo/git/che
  - 0102e80: 636b 6f75 7473 2f73 7562 7374 7261 7465  ckouts/substrate
  - 0102e90: 2d37 6530 3834 3333 6434 6333 3730 6132  -7e08433d4c370a2
  - 0102ea0: 312f 6261 3837 3138 382f 6672 616d 652f  1/ba87188/frame/
  - 0102eb0: 7472 616e 7361 6374 696f 6e2d 7061 796d  transaction-paym
  - 0102ec0: 656e 742f 7372 632f 6c69 622e 7273 0000  ent/src/lib.rs..
  - 0102ed0: 632e 1000 6b00 0000 d602 0000 2700 0000  c...k.......'...
  - 0102ee0: 6174 7465 6d70 7420 746f 2064 6976 6964  attempt to divid
  - 0102ef0: 6520 6279 207a 6572 6f00 0000 632e 1000  e by zero...c...
  - 0102f00: 6b00 0000 d702 0000 2700 0000 7a00 0000  k.......'...z...
  - 0102f10: 0400 0000 0400 0000 7b00 0000 6e6f 7465  ........{...note
  - 0102f20: 5f73 7461 6c6c 6564 7265 706f 7274 5f65  _stalledreport_e
  - 0102f30: 7175 6976 6f63 6174 696f 6e5f 756e 7369  quivocation_unsi
  - 0102f40: 676e 6564 7265 706f 7274 5f65 7175 6976  gnedreport_equiv
  - 0102f50: 6f63 6174 696f 6e00 2f55 7365 7273 2f74  ocation./Users/t
  - 0102f60: 656e 6768 7569 2f2e 6361 7267 6f2f 6769  enghui/.cargo/gi
  - 0102f70: 742f 6368 6563 6b6f 7574 732f 7375 6273  t/checkouts/subs
  - 0102f80: 7472 6174 652d 3765 3038 3433 3364 3463  trate-7e08433d4c
  - 0102f90: 3337 3061 3231 2f62 6138 3731 3838 2f66  370a21/ba87188/f
  - 0102fa0: 7261 6d65 2f67 7261 6e64 7061 2f73 7263  rame/grandpa/src
  - 0102fb0: 2f6c 6962 2e72 73e2 9c85 206e 6f20 6d69  /lib.rs... no mi
  - 0102fc0: 6772 6174 696f 6e20 666f 7220 b72f 1000  gration for ./..
  - 0102fd0: 1500 0000 7275 6e74 696d 653a 3a66 7261  ....runtime::fra
  - 0102fe0: 6d65 2d73 7570 706f 7274 7061 6c6c 6574  me-supportpallet
  - 0102ff0: 5f67 7261 6e64 7061 3a3a 7061 6c6c 6574  _grandpa::pallet
  - 0103000: 656e 636f 6465 6420 6572 726f 7220 6973  encoded error is
  - 0103010: 2072 6573 697a 6564 2074 6f20 6265 2065   resized to be e
  - 0103020: 7175 616c 2074 6f20 7468 6520 6d61 7869  qual to the maxi
  - 0103030: 6d75 6d20 656e 636f 6465 6420 6572 726f  mum encoded erro
  - 0103040: 7220 7369 7a65 3b20 7165 6400 8100 0000  r size; qed.....
  - 0103050: 0c00 0000 0400 0000 8200 0000 2f55 7365  ............/Use
  - 0103060: 7273 2f74 656e 6768 7569 2f70 726f 6a65  rs/tenghui/proje
  - 0103070: 6374 2f70 6172 6974 7974 6563 682f 7375  ct/paritytech/su
  - 0103080: 6273 7472 6174 652d 6e6f 6465 2d74 656d  bstrate-node-tem
  - 0103090: 706c 6174 652f 7061 6c6c 6574 732f 706f  plate/pallets/po
  - 01030a0: 652f 7372 632f 6c69 622e 7273 5c30 1000  e/src/lib.rs\0..
  - 01030b0: 5000 0000 2500 0000 0f00 0000 4d75 6c74  P...%.......Mult
  - 01030c0: 6941 6464 7265 7373 7370 5f72 756e 7469  iAddresssp_runti
  - 01030d0: 6d65 3a3a 6d75 6c74 6961 6464 7265 7373  me::multiaddress
  - 01030e0: 4163 636f 756e 7449 6441 6363 6f75 6e74  AccountIdAccount
  - 01030f0: 496e 6465 7849 6449 6e64 6578 5261 7741  IndexIdIndexRawA
  - 0103100: 6464 7265 7373 3332 4164 6472 6573 7332  ddress32Address2
  - 0103110: 3043 6865 636b 4d6f 7274 616c 6974 792f  0CheckMortality/
  - 0103120: 5573 6572 732f 7465 6e67 6875 692f 2e63  Users/tenghui/.c
  - 0103130: 6172 676f 2f67 6974 2f63 6865 636b 6f75  argo/git/checkou
  - 0103140: 7473 2f73 7562 7374 7261 7465 2d37 6530  ts/substrate-7e0
  - 0103150: 3834 3333 6434 6333 3730 6132 312f 6261  8433d4c370a21/ba
  - 0103160: 3837 3138 382f 6672 616d 652f 7375 646f  87188/frame/sudo
  - 0103170: 2f73 7263 2f6c 6962 2e72 7300 1f31 1000  /src/lib.rs..1..
  - 0103180: 5c00 0000 0701 0000 0f00 0000 6672 616d  \...........fram
  - 0103190: 655f 7379 7374 656d 3a3a 6578 7465 6e73  e_system::extens
  - 01031a0: 696f 6e73 3a3a 6368 6563 6b5f 6d6f 7274  ions::check_mort
  - 01031b0: 616c 6974 7954 2f55 7365 7273 2f74 656e  alityT/Users/ten
  - 01031c0: 6768 7569 2f2e 6361 7267 6f2f 6769 742f  ghui/.cargo/git/
  - 01031d0: 6368 6563 6b6f 7574 732f 7375 6273 7472  checkouts/substr
  - 01031e0: 6174 652d 3765 3038 3433 3364 3463 3337  ate-7e08433d4c37
  - 01031f0: 3061 3231 2f62 6138 3731 3838 2f66 7261  0a21/ba87188/fra
  - 0103200: 6d65 2f73 7973 7465 6d2f 7372 632f 6c69  me/system/src/li
  - 0103210: 622e 7273 b631 1000 5e00 0000 f901 0000  b.rs.1..^.......
  - 0103220: 0f00 0000 3a68 6561 7070 6167 6573 4e6f  ....:heappagesNo
  - 0103230: 206e 616d 6520 666f 756e 6420 666f 7220   name found for 
  - 0103240: 7468 6520 7061 6c6c 6574 2069 6e20 7468  the pallet in th
  - 0103250: 6520 7275 6e74 696d 6521 2054 6869 7320  e runtime! This 
  - 0103260: 7573 7561 6c6c 7920 6d65 616e 7320 7468  usually means th
  - 0103270: 6174 2074 6865 2070 616c 6c65 7420 7761  at the pallet wa
  - 0103280: 736e 2774 2061 6464 6564 2074 6f20 6063  sn't added to `c
  - 0103290: 6f6e 7374 7275 6374 5f72 756e 7469 6d65  onstruct_runtime
  - 01032a0: 2160 2e00 582f 1000 5f00 0000 3e01 0000  !`..X/.._...>...
  - 01032b0: 0f00 0000 3a67 7261 6e64 7061 5f61 7574  ....:grandpa_aut
  - 01032c0: 686f 7269 7469 6573 2053 7461 7465 206f  horities State o
  - 01032d0: 6620 7468 6520 6375 7272 656e 7420 6175  f the current au
  - 01032e0: 7468 6f72 6974 7920 7365 742e 2050 656e  thority set. Pen
  - 01032f0: 6469 6e67 2063 6861 6e67 653a 2028 7369  ding change: (si
  - 0103300: 676e 616c 6564 2061 742c 2073 6368 6564  gnaled at, sched
  - 0103310: 756c 6564 2063 6861 6e67 6529 2e20 6e65  uled change). ne
  - 0103320: 7874 2062 6c6f 636b 206e 756d 6265 7220  xt block number 
  - 0103330: 7768 6572 6520 7765 2063 616e 2066 6f72  where we can for
  - 0103340: 6365 2061 2063 6861 6e67 652e 2060 7472  ce a change. `tr
  - 0103350: 7565 6020 6966 2077 6520 6172 6520 6375  ue` if we are cu
  - 0103360: 7272 656e 746c 7920 7374 616c 6c65 642e  rrently stalled.
  - 0103370: 2054 6865 206e 756d 6265 7220 6f66 2063   The number of c
  - 0103380: 6861 6e67 6573 2028 626f 7468 2069 6e20  hanges (both in 
  - 0103390: 7465 726d 7320 6f66 206b 6579 7320 616e  terms of keys an
  - 01033a0: 6420 756e 6465 726c 7969 6e67 2065 636f  d underlying eco
  - 01033b0: 6e6f 6d69 6320 7265 7370 6f6e 7369 6269  nomic responsibi
  - 01033c0: 6c69 7469 6573 2920 696e 2074 6865 2022  lities) in the "
  - 01033d0: 7365 7422 206f 6620 4772 616e 6470 6120  set" of Grandpa 
  - 01033e0: 7661 6c69 6461 746f 7273 2066 726f 6d20  validators from 
  - 01033f0: 6765 6e65 7369 732e 2041 206d 6170 7069  genesis. A mappi
  - 0103400: 6e67 2066 726f 6d20 6772 616e 6470 6120  ng from grandpa 
  - 0103410: 7365 7420 4944 2074 6f20 7468 6520 696e  set ID to the in
  - 0103420: 6465 7820 6f66 2074 6865 202a 6d6f 7374  dex of the *most
  - 0103430: 2072 6563 656e 742a 2073 6573 7369 6f6e   recent* session
  - 0103440: 2066 6f72 2077 6869 6368 2069 7473 206d   for which its m
  - 0103450: 656d 6265 7273 2077 6572 6520 7265 7370  embers were resp
  - 0103460: 6f6e 7369 626c 652e 2054 6869 7320 6973  onsible. This is
  - 0103470: 206f 6e6c 7920 7573 6564 2066 6f72 2076   only used for v
  - 0103480: 616c 6964 6174 696e 6720 6571 7569 766f  alidating equivo
  - 0103490: 6361 7469 6f6e 2070 726f 6f66 732e 2041  cation proofs. A
  - 01034a0: 6e20 6571 7569 766f 6361 7469 6f6e 2070  n equivocation p
  - 01034b0: 726f 6f66 206d 7573 7420 636f 6e74 6169  roof must contai
  - 01034c0: 6e73 2061 206b 6579 2d6f 776e 6572 7368  ns a key-ownersh
  - 01034d0: 6970 2070 726f 6f66 2066 6f72 2061 2067  ip proof for a g
  - 01034e0: 6976 656e 2073 6573 7369 6f6e 2c20 7468  iven session, th
  - 01034f0: 6572 6566 6f72 6520 7765 206e 6565 6420  erefore we need 
  - 0103500: 6120 7761 7920 746f 2074 6965 2074 6f67  a way to tie tog
  - 0103510: 6574 6865 7220 7365 7373 696f 6e73 2061  ether sessions a
  - 0103520: 6e64 2047 5241 4e44 5041 2073 6574 2069  nd GRANDPA set i
  - 0103530: 6473 2c20 692e 652e 2077 6520 6e65 6564  ds, i.e. we need
  - 0103540: 2074 6f20 7661 6c69 6461 7465 2074 6861   to validate tha
  - 0103550: 7420 6120 7661 6c69 6461 746f 7220 7761  t a validator wa
  - 0103560: 7320 7468 6520 6f77 6e65 7220 6f66 2061  s the owner of a
  - 0103570: 2067 6976 656e 206b 6579 206f 6e20 6120   given key on a 
  - 0103580: 6769 7665 6e20 7365 7373 696f 6e2c 2061  given session, a
  - 0103590: 6e64 2077 6861 7420 7468 6520 6163 7469  nd what the acti
  - 01035a0: 7665 2073 6574 2049 4420 7761 7320 6475  ve set ID was du
  - 01035b0: 7269 6e67 2074 6861 7420 7365 7373 696f  ring that sessio
  - 01035c0: 6e2e 2054 574f 582d 4e4f 5445 3a20 6053  n. TWOX-NOTE: `S
  - 01035d0: 6574 4964 6020 6973 206e 6f74 2075 6e64  etId` is not und
  - 01035e0: 6572 2075 7365 7220 636f 6e74 726f 6c2e  er user control.
  - 01035f0: 204d 6178 2041 7574 686f 7269 7469 6573   Max Authorities
  - 0103600: 2069 6e20 7573 654d 6178 4175 7468 6f72   in useMaxAuthor
  - 0103610: 6974 6965 7320 5468 6520 6d61 7869 6d75  ities The maximu
  - 0103620: 6d20 6e75 6d62 6572 206f 6620 656e 7472  m number of entr
  - 0103630: 6965 7320 746f 206b 6565 7020 696e 2074  ies to keep in t
  - 0103640: 6865 2073 6574 2069 6420 746f 2073 6573  he set id to ses
  - 0103650: 7369 6f6e 2069 6e64 6578 206d 6170 7069  sion index mappi
  - 0103660: 6e67 2e20 5369 6e63 6520 7468 6520 6053  ng. Since the `S
  - 0103670: 6574 4964 5365 7373 696f 6e60 206d 6170  etIdSession` map
  - 0103680: 2069 7320 6f6e 6c79 2075 7365 6420 666f   is only used fo
  - 0103690: 7220 7661 6c69 6461 7469 6e67 2065 7175  r validating equ
  - 01036a0: 6976 6f63 6174 696f 6e73 2074 6869 7320  ivocations this 
  - 01036b0: 7661 6c75 6520 7368 6f75 6c64 2072 656c  value should rel
  - 01036c0: 6174 6520 746f 2074 6865 2062 6f6e 6469  ate to the bondi
  - 01036d0: 6e67 2064 7572 6174 696f 6e20 6f66 2077  ng duration of w
  - 01036e0: 6861 7465 7665 7220 7374 616b 696e 6720  hatever staking 
  - 01036f0: 7379 7374 656d 2069 7320 6265 696e 6720  system is being 
  - 0103700: 7573 6564 2028 6966 2061 6e79 292e 2049  used (if any). I
  - 0103710: 6620 6571 7569 766f 6361 7469 6f6e 2068  f equivocation h
  - 0103720: 616e 646c 696e 6720 6973 206e 6f74 2065  andling is not e
  - 0103730: 6e61 626c 6564 2074 6865 6e20 7468 6973  nabled then this
  - 0103740: 2076 616c 7565 2063 616e 2062 6520 7a65   value can be ze
  - 0103750: 726f 2e4d 6178 5365 7449 6453 6573 7369  ro.MaxSetIdSessi
  - 0103760: 6f6e 456e 7472 6965 7343 616c 6c43 6f6e  onEntriesCallCon
  - 0103770: 7461 696e 7320 6f6e 6520 7661 7269 616e  tains one varian
  - 0103780: 7420 7065 7220 6469 7370 6174 6368 6162  t per dispatchab
  - 0103790: 6c65 2074 6861 7420 6361 6e20 6265 2063  le that can be c
  - 01037a0: 616c 6c65 6420 6279 2061 6e20 6578 7472  alled by an extr
  - 01037b0: 696e 7369 632e 0000 6d37 1000 4900 0000  insic...m7..I...
  - 01037c0: 4572 726f 720a 0909 0943 7573 746f 6d20  Error....Custom 
  - 01037d0: 5b64 6973 7061 7463 6820 6572 726f 7273  [dispatch errors
  - 01037e0: 5d28 6874 7470 733a 2f2f 646f 6373 2e73  ](https://docs.s
  - 01037f0: 7562 7374 7261 7465 2e69 6f2f 6d61 696e  ubstrate.io/main
  - 0103800: 2d64 6f63 732f 6275 696c 642f 6576 656e  -docs/build/even
  - 0103810: 7473 2d65 7272 6f72 732f 290a 0909 096f  ts-errors/)....o
  - 0103820: 6620 7468 6973 2070 616c 6c65 742e 0a09  f this pallet...
  - 0103830: 0909 0000 0000 0000 c537 1000 6d00 0000  .........7..m...
  - 0103840: 5061 7573 6546 6169 6c65 6452 6573 756d  PauseFailedResum
  - 0103850: 6546 6169 6c65 6443 6861 6e67 6550 656e  eFailedChangePen
  - 0103860: 6469 6e67 546f 6f53 6f6f 6e49 6e76 616c  dingTooSoonInval
  - 0103870: 6964 4b65 794f 776e 6572 7368 6970 5072  idKeyOwnershipPr
  - 0103880: 6f6f 6649 6e76 616c 6964 4571 7569 766f  oofInvalidEquivo
  - 0103890: 6361 7469 6f6e 5072 6f6f 6644 7570 6c69  cationProofDupli
  - 01038a0: 6361 7465 4f66 6665 6e63 6552 6570 6f72  cateOffenceRepor
  - 01038b0: 744e 756d 6265 7220 6f66 2064 6967 6573  tNumber of diges
  - 01038c0: 7420 6974 656d 7320 6d75 7374 206d 6174  t items must mat
  - 01038d0: 6368 2074 6861 7420 6361 6c63 756c 6174  ch that calculat
  - 01038e0: 6564 2e00 b138 1000 3200 0000 2f55 7365  ed...8..2.../Use
  - 01038f0: 7273 2f74 656e 6768 7569 2f2e 6361 7267  rs/tenghui/.carg
  - 0103900: 6f2f 6769 742f 6368 6563 6b6f 7574 732f  o/git/checkouts/
  - 0103910: 7375 6273 7472 6174 652d 3765 3038 3433  substrate-7e0843
  - 0103920: 3364 3463 3337 3061 3231 2f62 6138 3731  3d4c370a21/ba871
  - 0103930: 3838 2f66 7261 6d65 2f65 7865 6375 7469  88/frame/executi
  - 0103940: 7665 2f73 7263 2f6c 6962 2e72 7300 0000  ve/src/lib.rs...
  - 0103950: ec38 1000 6100 0000 4c02 0000 0900 0000  .8..a...L.......
  - 0103960: 4469 6765 7374 2069 7465 6d20 6d75 7374  Digest item must
  - 0103970: 206d 6174 6368 2074 6861 7420 6361 6c63   match that calc
  - 0103980: 756c 6174 6564 2e00 6039 1000 2700 0000  ulated..`9..'...
  - 0103990: ec38 1000 6100 0000 5402 0000 0d00 0000  .8..a...T.......
  - 01039a0: 5374 6f72 6167 6520 726f 6f74 206d 7573  Storage root mus
  - 01039b0: 7420 6d61 7463 6820 7468 6174 2063 616c  t match that cal
  - 01039c0: 6375 6c61 7465 642e a039 1000 2800 0000  culated..9..(...
  - 01039d0: ec38 1000 6100 0000 5a02 0000 0900 0000  .8..a...Z.......
  - 01039e0: 5472 616e 7361 6374 696f 6e20 7472 6965  Transaction trie
  - 01039f0: 2072 6f6f 7420 6d75 7374 2062 6520 7661   root must be va
  - 0103a00: 6c69 642e e039 1000 2400 0000 ec38 1000  lid..9..$....8..
  - 0103a10: 6100 0000 5c02 0000 0900 0000 5369 676e  a...\.......Sign
  - 0103a20: 6174 7572 6520 7665 7269 6669 6361 7469  ature verificati
  - 0103a30: 6f6e 2066 6169 6c65 642e 0000 1c3a 1000  on failed....:..
  - 0103a40: 1e00 0000 ec38 1000 6100 0000 e701 0000  .....8..a.......
  - 0103a50: 1100 0000 5061 7265 6e74 2068 6173 6820  ....Parent hash 
  - 0103a60: 7368 6f75 6c64 2062 6520 7661 6c69 642e  should be valid.
  - 0103a70: 543a 1000 1c00 0000 ec38 1000 6100 0000  T:.......8..a...
  - 0103a80: c901 0000 0900 0000 496e 7661 6c69 6420  ........Invalid 
  - 0103a90: 696e 6865 7265 6e74 2070 6f73 6974 696f  inherent positio
  - 0103aa0: 6e20 666f 7220 6578 7472 696e 7369 6320  n for extrinsic 
  - 0103ab0: 6174 2069 6e64 6578 2000 0000 883a 1000  at index ....:..
  - 0103ac0: 3100 0000 ec38 1000 6100 0000 d101 0000  1....8..a.......
  - 0103ad0: 0d00 0000 ec38 1000 6100 0000 f701 0000  .....8..a.......
  - 0103ae0: 1100 0000 2f55 7365 7273 2f74 656e 6768  ..../Users/tengh
  - 0103af0: 7569 2f2e 6361 7267 6f2f 6769 742f 6368  ui/.cargo/git/ch
  - 0103b00: 6563 6b6f 7574 732f 7375 6273 7472 6174  eckouts/substrat
  - 0103b10: 652d 3765 3038 3433 3364 3463 3337 3061  e-7e08433d4c370a
  - 0103b20: 3231 2f62 6138 3731 3838 2f66 7261 6d65  21/ba87188/frame
  - 0103b30: 2f62 616c 616e 6365 732f 7372 632f 6c69  /balances/src/li
  - 0103b40: 622e 7273 e43a 1000 6000 0000 e201 0000  b.rs.:..`.......
  - 0103b50: 0f00 0000 2f55 7365 7273 2f74 656e 6768  ..../Users/tengh
  - 0103b60: 7569 2f70 726f 6a65 6374 2f70 6172 6974  ui/project/parit
  - 0103b70: 7974 6563 682f 7375 6273 7472 6174 652d  ytech/substrate-
  - 0103b80: 6e6f 6465 2d74 656d 706c 6174 652f 7061  node-template/pa
  - 0103b90: 6c6c 6574 732f 7465 6d70 6c61 7465 2f73  llets/template/s
  - 0103ba0: 7263 2f6c 6962 2e72 7300 0000 543b 1000  rc/lib.rs...T;..
  - 0103bb0: 5500 0000 3300 0000 0f00 0000 5469 6d65  U...3.......Time
  - 0103bc0: 7374 616d 7020 6d75 7374 2062 6520 7570  stamp must be up
  - 0103bd0: 6461 7465 6420 6f6e 6c79 206f 6e63 6520  dated only once 
  - 0103be0: 696e 2074 6865 2062 6c6f 636b bc3b 1000  in the block.;..
  - 0103bf0: 3000 0000 2f55 7365 7273 2f74 656e 6768  0.../Users/tengh
  - 0103c00: 7569 2f2e 6361 7267 6f2f 6769 742f 6368  ui/.cargo/git/ch
  - 0103c10: 6563 6b6f 7574 732f 7375 6273 7472 6174  eckouts/substrat
  - 0103c20: 652d 3765 3038 3433 3364 3463 3337 3061  e-7e08433d4c370a
  - 0103c30: 3231 2f62 6138 3731 3838 2f66 7261 6d65  21/ba87188/frame
  - 0103c40: 2f74 696d 6573 7461 6d70 2f73 7263 2f6c  /timestamp/src/l
  - 0103c50: 6962 2e72 7300 0000 f43b 1000 6100 0000  ib.rs....;..a...
  - 0103c60: cc00 0000 0d00 0000 5469 6d65 7374 616d  ........Timestam
  - 0103c70: 7020 6d75 7374 2069 6e63 7265 6d65 6e74  p must increment
  - 0103c80: 2062 7920 6174 206c 6561 7374 203c 4d69   by at least <Mi
  - 0103c90: 6e69 6d75 6d50 6572 696f 643e 2062 6574  nimumPeriod> bet
  - 0103ca0: 7765 656e 2073 6571 7565 6e74 6961 6c20  ween sequential 
  - 0103cb0: 626c 6f63 6b73 0000 683c 1000 4e00 0000  blocks..h<..N...
  - 0103cc0: f43b 1000 6100 0000 ce00 0000 0d00 0000  .;..a...........
  - 0103cd0: 582f 1000 0000 0000 2f72 7573 7463 2f35  X/....../rustc/5
  - 0103ce0: 3734 6236 3461 3937 6635 3231 3632 6639  74b64a97f52162f9
  - 0103cf0: 3635 6263 3230 3165 3437 6630 6166 3832  65bc201e47f0af82
  - 0103d00: 3739 6361 3635 642f 6c69 6272 6172 792f  79ca65d/library/
  - 0103d10: 616c 6c6f 632f 7372 632f 736c 6963 652e  alloc/src/slice.
  - 0103d20: 7273 0000 d83c 1000 4a00 0000 8d00 0000  rs...<..J.......
  - 0103d30: 1100 0000 3c77 6173 6d3a 7374 7269 7070  ....<wasm:stripp
  - 0103d40: 6564 3e00 ee28 1000 e128 1000 d528 1000  ed>..(...(...(..
  - 0103d50: c828 1000 bb28 1000 1100 0000 0d00 0000  .(...(..........
  - 0103d60: 0c00 0000 0d00 0000 0d00 0000 7d8b 1000  ............}...
  - 0103d70: 638b 1000 468b 1000 338b 1000 248b 1000  c...F...3...$...
  - 0103d80: 188b 1000 0f00 0000 1a00 0000 1d00 0000  ................
  - 0103d90: 1300 0000 0f00 0000 0c00 0000 0700 0000  ................
  - 0103da0: 0000 0000 0000 0102 0304 0506 627b 1000  ............b{..
  - 0103db0: 4d7b 1000 3a7b 1000 287b 1000 1f7b 1000  M{..:{..({...{..
  - 0103dc0: 087b 1000 fd7a 1000 ee7a 1000 0e00 0000  .{...z...z......
  - 0103dd0: 1500 0000 1300 0000 1200 0000 0900 0000  ................
  - 0103de0: 1700 0000 0b00 0000 0f00 0000 75aa 1000  ............u...
  - 0103df0: 3caa 1000 15aa 1000 fea9 1000 dfa9 1000  <...............
  - 0103e00: b9a9 1000 8fa9 1000 70a9 1000 35a9 1000  ........p...5...
  - 0103e10: efa8 1000 d8a8 1000 2000 0000 3900 0000  ........ ...9...
  - 0103e20: 2700 0000 1700 0000 1f00 0000 2600 0000  '...........&...
  - 0103e30: 2a00 0000 1f00 0000 3b00 0000 4600 0000  *.......;...F...
  - 0103e40: 1700 0000 f5aa 1000 b4aa 1000 95aa 1000  ................
  - 0103e50: 4100 0000 4100 0000 1f00 0000 2f72 7573  A...A......./rus
  - 0103e60: 7463 2f35 3734 6236 3461 3937 6635 3231  tc/574b64a97f521
  - 0103e70: 3632 6639 3635 6263 3230 3165 3437 6630  62f965bc201e47f0
  - 0103e80: 6166 3832 3739 6361 3635 642f 6c69 6272  af8279ca65d/libr
  - 0103e90: 6172 792f 616c 6c6f 632f 7372 632f 736c  ary/alloc/src/sl
  - 0103ea0: 6963 652e 7273 0000 5c3e 1000 4a00 0000  ice.rs..\>..J...
  - 0103eb0: 8d00 0000 1100 0000 636c 6169 6d42 6f75  ........claimBou
  - 0103ec0: 6e64 6564 5665 633c 7538 2c20 543a 3a4d  ndedVec<u8, T::M
  - 0103ed0: 6178 436c 6169 6d4c 656e 6774 683e 6163  axClaimLength>ac
  - 0103ee0: 636f 756e 745f 6964 543a 3a41 6363 6f75  count_idT::Accou
  - 0103ef0: 6e74 4964 5061 7468 206e 6f74 2061 7373  ntIdPath not ass
  - 0103f00: 6967 6e65 642f 5573 6572 732f 7465 6e67  igned/Users/teng
  - 0103f10: 6875 692f 2e63 6172 676f 2f72 6567 6973  hui/.cargo/regis
  - 0103f20: 7472 792f 7372 632f 7273 7072 6f78 792e  try/src/rsproxy.
  - 0103f30: 636e 2d38 6636 3832 3763 3735 3535 6266  cn-8f6827c7555bf
  - 0103f40: 6166 382f 7363 616c 652d 696e 666f 2d32  af8/scale-info-2
  - 0103f50: 2e34 2e30 2f73 7263 2f62 7569 6c64 2e72  .4.0/src/build.r
  - 0103f60: 7300 0000 053f 1000 5c00 0000 c100 0000  s....?..\.......
  - 0103f70: 1e00 0000 5b75 383b 2033 325d 4163 636f  ....[u8; 32]Acco
  - 0103f80: 756e 7449 6441 6363 6f75 6e74 496e 6465  untIdAccountInde
  - 0103f90: 785b 7538 3b20 3230 5d56 6563 3c75 383e  x[u8; 20]Vec<u8>
  - 0103fa0: 4175 7468 656e 7469 6361 7465 7320 7468  Authenticates th
  - 0103fb0: 6520 7375 646f 206b 6579 2061 6e64 2064  e sudo key and d
  - 0103fc0: 6973 7061 7463 6865 7320 6120 6675 6e63  ispatches a func
  - 0103fd0: 7469 6f6e 2063 616c 6c20 7769 7468 2060  tion call with `
  - 0103fe0: 5369 676e 6564 6020 6f72 6967 696e 2066  Signed` origin f
  - 0103ff0: 726f 6d61 2067 6976 656e 2061 6363 6f75  roma given accou
  - 0104000: 6e74 2e54 6865 2064 6973 7061 7463 6820  nt.The dispatch 
  - 0104010: 6f72 6967 696e 2066 6f72 2074 6869 7320  origin for this 
  - 0104020: 6361 6c6c 206d 7573 7420 6265 205f 5369  call must be _Si
  - 0104030: 676e 6564 5f2e 2323 2043 6f6d 706c 6578  gned_.## Complex
  - 0104040: 6974 792d 204f 2831 292e 0000 a03f 1000  ity- O(1)....?..
  - 0104050: 5300 0000 f33f 1000 1000 0000 0340 1000  S....?.......@..
  - 0104060: 0000 0000 0340 1000 3300 0000 0340 1000  .....@..3....@..
  - 0104070: 0000 0000 3640 1000 0d00 0000 4340 1000  ....6@......C@..
  - 0104080: 0700 0000 4175 7468 656e 7469 6361 7465  ....Authenticate
  - 0104090: 7320 7468 6520 7375 646f 206b 6579 2061  s the sudo key a
  - 01040a0: 6e64 2064 6973 7061 7463 6865 7320 6120  nd dispatches a 
  - 01040b0: 6675 6e63 7469 6f6e 2063 616c 6c20 7769  function call wi
  - 01040c0: 7468 2060 526f 6f74 6020 6f72 6967 696e  th `Root` origin
  - 01040d0: 2e00 0000 8440 1000 4d00 0000 0340 1000  .....@..M....@..
  - 01040e0: 0000 0000 0340 1000 3300 0000 0340 1000  .....@..3....@..
  - 01040f0: 0000 0000 3640 1000 0d00 0000 4340 1000  ....6@......C@..
  - 0104100: 0700 0000 5468 6973 2066 756e 6374 696f  ....This functio
  - 0104110: 6e20 646f 6573 206e 6f74 2063 6865 636b  n does not check
  - 0104120: 2074 6865 2077 6569 6768 7420 6f66 2074   the weight of t
  - 0104130: 6865 2063 616c 6c2c 2061 6e64 2069 6e73  he call, and ins
  - 0104140: 7465 6164 2061 6c6c 6f77 7320 7468 6553  tead allows theS
  - 0104150: 7564 6f20 7573 6572 2074 6f20 7370 6563  udo user to spec
  - 0104160: 6966 7920 7468 6520 7765 6967 6874 206f  ify the weight o
  - 0104170: 6620 7468 6520 6361 6c6c 2e00 8440 1000  f the call...@..
  - 0104180: 4d00 0000 0441 1000 4b00 0000 4f41 1000  M....A..K...OA..
  - 0104190: 2c00 0000 0340 1000 0000 0000 0340 1000  ,....@.......@..
  - 01041a0: 3300 0000 0340 1000 0000 0000 3640 1000  3....@......6@..
  - 01041b0: 0d00 0000 4340 1000 0700 0000 4175 7468  ....C@......Auth
  - 01041c0: 656e 7469 6361 7465 7320 7468 6520 6375  enticates the cu
  - 01041d0: 7272 656e 7420 7375 646f 206b 6579 2061  rrent sudo key a
  - 01041e0: 6e64 2073 6574 7320 7468 6520 6769 7665  nd sets the give
  - 01041f0: 6e20 4163 636f 756e 7449 6420 2860 6e65  n AccountId (`ne
  - 0104200: 7760 2920 6173 2074 6865 206e 6577 2073  w`) as the new s
  - 0104210: 7564 6f6b 6579 2e00 bc41 1000 5700 0000  udokey...A..W...
  - 0104220: 1342 1000 0400 0000 0340 1000 0000 0000  .B.......@......
  - 0104230: 0340 1000 3300 0000 0340 1000 0000 0000  .@..3....@......
  - 0104240: 3640 1000 0d00 0000 4340 1000 0700 0000  6@......C@......
  - 0104250: 7765 6967 6874 5765 6967 6874 6361 6c6c  weightWeightcall
  - 0104260: 426f 783c 3c54 2061 7320 436f 6e66 6967  Box<<T as Config
  - 0104270: 3e3a 3a52 756e 7469 6d65 4361 6c6c 3e6e  >::RuntimeCall>n
  - 0104280: 6577 4163 636f 756e 7449 644c 6f6f 6b75  ewAccountIdLooku
  - 0104290: 704f 663c 543e 7768 6f53 656e 6465 7220  pOf<T>whoSender 
  - 01042a0: 6d75 7374 2062 6520 7468 6520 5375 646f  must be the Sudo
  - 01042b0: 2061 6363 6f75 6e74 9942 1000 1f00 0000   account.B......
  - 01042c0: 4120 7375 646f 206a 7573 7420 746f 6f6b  A sudo just took
  - 01042d0: 2070 6c61 6365 2e20 5c5b 7265 7375 6c74   place. \[result
  - 01042e0: 5c5d 0000 0000 0000 c042 1000 2200 0000  \].......B.."...
  - 01042f0: 5468 6520 5c5b 7375 646f 6572 5c5d 206a  The \[sudoer\] j
  - 0104300: 7573 7420 7377 6974 6368 6564 2069 6465  ust switched ide
  - 0104310: 6e74 6974 793b 2074 6865 206f 6c64 206b  ntity; the old k
  - 0104320: 6579 2069 7320 7375 7070 6c69 6564 2069  ey is supplied i
  - 0104330: 6620 6f6e 6520 6578 6973 7465 642e 0000  f one existed...
  - 0104340: f042 1000 4e00 0000 6f6c 645f 7375 646f  .B..N...old_sudo
  - 0104350: 6572 4f70 7469 6f6e 3c54 3a3a 4163 636f  erOption<T::Acco
  - 0104360: 756e 7449 643e 7375 646f 5f72 6573 756c  untId>sudo_resul
  - 0104370: 7444 6973 7061 7463 6852 6573 756c 7454  tDispatchResultT
  - 0104380: 3a3a 496e 6465 7845 7261 7072 6f76 6964  ::IndexEraprovid
  - 0104390: 6572 7352 6566 436f 756e 7473 7566 6669  ersRefCountsuffi
  - 01043a0: 6369 656e 7473 6461 7461 4163 636f 756e  cientsdataAccoun
  - 01043b0: 7444 6174 6163 6f6e 7375 6d65 7273 6e6f  tDataconsumersno
  - 01043c0: 6e63 6549 6e64 6578 7068 6173 6550 6861  nceIndexphasePha
  - 01043d0: 7365 746f 7069 6373 5665 633c 543e 6576  setopicsVec<T>ev
  - 01043e0: 656e 7445 5365 7420 736f 6d65 2069 7465  entESet some ite
  - 01043f0: 6d73 206f 6620 7374 6f72 6167 652e 0000  ms of storage...
  - 0104400: e443 1000 1a00 0000 4d61 6b65 2073 6f6d  .C......Make som
  - 0104410: 6520 6f6e 2d63 6861 696e 2072 656d 6172  e on-chain remar
  - 0104420: 6b20 616e 6420 656d 6974 2065 7665 6e74  k and emit event
  - 0104430: 2e00 0000 0000 0000 0844 1000 2900 0000  .........D..)...
  - 0104440: 4d61 6b65 2073 6f6d 6520 6f6e 2d63 6861  Make some on-cha
  - 0104450: 696e 2072 656d 6172 6b2e 2d20 604f 2831  in remark.- `O(1
  - 0104460: 2960 0000 4044 1000 1a00 0000 0340 1000  )`..@D.......@..
  - 0104470: 0000 0000 3640 1000 0d00 0000 5a44 1000  ....6@......ZD..
  - 0104480: 0800 0000 4b69 6c6c 2073 6f6d 6520 6974  ....Kill some it
  - 0104490: 656d 7320 6672 6f6d 2073 746f 7261 6765  ems from storage
  - 01044a0: 2e00 0000 0000 0000 8444 1000 1d00 0000  .........D......
  - 01044b0: 5365 7420 7468 6520 6e75 6d62 6572 206f  Set the number o
  - 01044c0: 6620 7061 6765 7320 696e 2074 6865 2057  f pages in the W
  - 01044d0: 6562 4173 7365 6d62 6c79 2065 6e76 6972  ebAssembly envir
  - 01044e0: 6f6e 6d65 6e74 2773 2068 6561 702e 0000  onment's heap...
  - 01044f0: b044 1000 3e00 0000 4b69 6c6c 2061 6c6c  .D..>...Kill all
  - 0104500: 2073 746f 7261 6765 2069 7465 6d73 2077   storage items w
  - 0104510: 6974 6820 6120 6b65 7920 7468 6174 2073  ith a key that s
  - 0104520: 7461 7274 7320 7769 7468 2074 6865 2067  tarts with the g
  - 0104530: 6976 656e 2070 7265 6669 782e 2a2a 4e4f  iven prefix.**NO
  - 0104540: 5445 3a2a 2a20 5765 2072 656c 7920 6f6e  TE:** We rely on
  - 0104550: 2074 6865 2052 6f6f 7420 6f72 6967 696e   the Root origin
  - 0104560: 2074 6f20 7072 6f76 6964 6520 7573 2074   to provide us t
  - 0104570: 6865 206e 756d 6265 7220 6f66 2073 7562  he number of sub
  - 0104580: 6b65 7973 2075 6e64 6572 7468 6520 7072  keys underthe pr
  - 0104590: 6566 6978 2077 6520 6172 6520 7265 6d6f  efix we are remo
  - 01045a0: 7669 6e67 2074 6f20 6163 6375 7261 7465  ving to accurate
  - 01045b0: 6c79 2063 616c 6375 6c61 7465 2074 6865  ly calculate the
  - 01045c0: 2077 6569 6768 7420 6f66 2074 6869 7320   weight of this 
  - 01045d0: 6675 6e63 7469 6f6e 2e00 0000 f844 1000  function.....D..
  - 01045e0: 4400 0000 0340 1000 0000 0000 3c45 1000  D....@......<E..
  - 01045f0: 4e00 0000 8a45 1000 4f00 0000 5365 7420  N....E..O...Set 
  - 0104600: 7468 6520 6e65 7720 7275 6e74 696d 6520  the new runtime 
  - 0104610: 636f 6465 2077 6974 686f 7574 2064 6f69  code without doi
  - 0104620: 6e67 2061 6e79 2063 6865 636b 7320 6f66  ng any checks of
  - 0104630: 2074 6865 2067 6976 656e 2060 636f 6465   the given `code
  - 0104640: 602e 2d20 604f 2843 2960 2077 6865 7265  `.- `O(C)` where
  - 0104650: 2060 4360 206c 656e 6774 6820 6f66 2060   `C` length of `
  - 0104660: 636f 6465 6000 0000 fc45 1000 4600 0000  code`....E..F...
  - 0104670: 0340 1000 0000 0000 3640 1000 0d00 0000  .@......6@......
  - 0104680: 4246 1000 2300 0000 5365 7420 7468 6520  BF..#...Set the 
  - 0104690: 6e65 7720 7275 6e74 696d 6520 636f 6465  new runtime code
  - 01046a0: 2e2d 2060 4f28 4320 2b20 5329 6020 7768  .- `O(C + S)` wh
  - 01046b0: 6572 6520 6043 6020 6c65 6e67 7468 206f  ere `C` length o
  - 01046c0: 6620 6063 6f64 6560 2061 6e64 2060 5360  f `code` and `S`
  - 01046d0: 2063 6f6d 706c 6578 6974 7920 6f66 2060   complexity of `
  - 01046e0: 6361 6e5f 7365 745f 636f 6465 6000 0000  can_set_code`...
  - 01046f0: 8846 1000 1900 0000 0340 1000 0000 0000  .F.......@......
  - 0104700: 3640 1000 0d00 0000 a146 1000 4c00 0000  6@.......F..L...
  - 0104710: 6974 656d 7356 6563 3c4b 6579 5661 6c75  itemsVec<KeyValu
  - 0104720: 653e 7265 6d61 726b 6b65 7973 5665 633c  e>remarkkeysVec<
  - 0104730: 4b65 793e 636f 6465 7072 6566 6978 4b65  Key>codeprefixKe
  - 0104740: 7973 7562 6b65 7973 7533 3270 6167 6573  ysubkeysu32pages
  - 0104750: 7536 3454 6865 206f 7269 6769 6e20 6669  u64The origin fi
  - 0104760: 6c74 6572 2070 7265 7665 6e74 2074 6865  lter prevent the
  - 0104770: 2063 616c 6c20 746f 2062 6520 6469 7370   call to be disp
  - 0104780: 6174 6368 6564 2e00 5347 1000 3400 0000  atched..SG..4...
  - 0104790: 5468 6520 6e61 6d65 206f 6620 7370 6563  The name of spec
  - 01047a0: 6966 6963 6174 696f 6e20 646f 6573 206e  ification does n
  - 01047b0: 6f74 206d 6174 6368 2062 6574 7765 656e  ot match between
  - 01047c0: 2074 6865 2063 7572 7265 6e74 2072 756e   the current run
  - 01047d0: 7469 6d65 616e 6420 7468 6520 6e65 7720  timeand the new 
  - 01047e0: 7275 6e74 696d 652e 9047 1000 4400 0000  runtime..G..D...
  - 01047f0: d447 1000 1400 0000 5375 6963 6964 6520  .G......Suicide 
  - 0104800: 6361 6c6c 6564 2077 6865 6e20 7468 6520  called when the 
  - 0104810: 6163 636f 756e 7420 6861 7320 6e6f 6e2d  account has non-
  - 0104820: 6465 6661 756c 7420 636f 6d70 6f73 6974  default composit
  - 0104830: 6520 6461 7461 2e00 f847 1000 3f00 0000  e data...G..?...
  - 0104840: 5468 6572 6520 6973 2061 206e 6f6e 2d7a  There is a non-z
  - 0104850: 6572 6f20 7265 6665 7265 6e63 6520 636f  ero reference co
  - 0104860: 756e 7420 7072 6576 656e 7469 6e67 2074  unt preventing t
  - 0104870: 6865 2061 6363 6f75 6e74 2066 726f 6d20  he account from 
  - 0104880: 6265 696e 6720 7075 7267 6564 2e00 0000  being purged....
  - 0104890: 4048 1000 4d00 0000 4661 696c 6564 2074  @H..M...Failed t
  - 01048a0: 6f20 6578 7472 6163 7420 7468 6520 7275  o extract the ru
  - 01048b0: 6e74 696d 6520 7665 7273 696f 6e20 6672  ntime version fr
  - 01048c0: 6f6d 2074 6865 206e 6577 2072 756e 7469  om the new runti
  - 01048d0: 6d65 2e45 6974 6865 7220 6361 6c6c 696e  me.Either callin
  - 01048e0: 6720 6043 6f72 655f 7665 7273 696f 6e60  g `Core_version`
  - 01048f0: 206f 7220 6465 636f 6469 6e67 2060 5275   or decoding `Ru
  - 0104900: 6e74 696d 6556 6572 7369 6f6e 6020 6661  ntimeVersion` fa
  - 0104910: 696c 6564 2e00 0000 9848 1000 3b00 0000  iled.....H..;...
  - 0104920: 0340 1000 0000 0000 d348 1000 4200 0000  .@.......H..B...
  - 0104930: 5468 6520 7370 6563 6966 6963 6174 696f  The specificatio
  - 0104940: 6e20 7665 7273 696f 6e20 6973 206e 6f74  n version is not
  - 0104950: 2061 6c6c 6f77 6564 2074 6f20 6465 6372   allowed to decr
  - 0104960: 6561 7365 2062 6574 7765 656e 2074 6865  ease between the
  - 0104970: 2063 7572 7265 6e74 2072 756e 7469 6d65   current runtime
  - 0104980: 3049 1000 5000 0000 d447 1000 1400 0000  0I..P....G......
  - 0104990: 416e 2061 6363 6f75 6e74 2077 6173 2072  An account was r
  - 01049a0: 6561 7065 642e 0000 9049 1000 1600 0000  eaped....I......
  - 01049b0: 4120 6e65 7720 6163 636f 756e 7420 7761  A new account wa
  - 01049c0: 7320 6372 6561 7465 642e 0000 0000 0000  s created.......
  - 01049d0: b049 1000 1a00 0000 416e 2065 7874 7269  .I......An extri
  - 01049e0: 6e73 6963 2066 6169 6c65 642e 0000 0000  nsic failed.....
  - 01049f0: d849 1000 1400 0000 4f6e 206f 6e2d 6368  .I......On on-ch
  - 0104a00: 6169 6e20 7265 6d61 726b 2068 6170 7065  ain remark happe
  - 0104a10: 6e65 642e 0000 0000 f849 1000 1c00 0000  ned......I......
  - 0104a20: 416e 2065 7874 7269 6e73 6963 2063 6f6d  An extrinsic com
  - 0104a30: 706c 6574 6564 2073 7563 6365 7373 6675  pleted successfu
  - 0104a40: 6c6c 792e 0000 0000 204a 1000 2400 0000  lly..... J..$...
  - 0104a50: 603a 636f 6465 6020 7761 7320 7570 6461  `:code` was upda
  - 0104a60: 7465 642e 0000 0000 504a 1000 1400 0000  ted.....PJ......
  - 0104a70: 6861 7368 543a 3a48 6173 6864 6973 7061  hashT::Hashdispa
  - 0104a80: 7463 685f 696e 666f 4469 7370 6174 6368  tch_infoDispatch
  - 0104a90: 496e 666f 6469 7370 6174 6368 5f65 7272  Infodispatch_err
  - 0104aa0: 6f72 4469 7370 6174 6368 4572 726f 7261  orDispatchErrora
  - 0104ab0: 6363 6f75 6e74 7365 6e64 6572 6d61 6e64  ccountsendermand
  - 0104ac0: 6174 6f72 7954 6e6f 726d 616c 6f70 6572  atoryTnormaloper
  - 0104ad0: 6174 696f 6e61 6c66 6f72 6365 644f 7074  ationalforcedOpt
  - 0104ae0: 696f 6e3c 4e3e 6e65 7874 5f61 7574 686f  ion<N>next_autho
  - 0104af0: 7269 7469 6573 426f 756e 6465 6441 7574  ritiesBoundedAut
  - 0104b00: 686f 7269 7479 4c69 7374 3c4c 696d 6974  horityList<Limit
  - 0104b10: 3e73 6368 6564 756c 6564 5f61 744e 6465  >scheduled_atNde
  - 0104b20: 6c61 7952 6570 6f72 7420 766f 7465 7220  layReport voter 
  - 0104b30: 6571 7569 766f 6361 7469 6f6e 2f6d 6973  equivocation/mis
  - 0104b40: 6265 6861 7669 6f72 2e20 5468 6973 206d  behavior. This m
  - 0104b50: 6574 686f 6420 7769 6c6c 2076 6572 6966  ethod will verif
  - 0104b60: 7920 7468 6565 7175 6976 6f63 6174 696f  y theequivocatio
  - 0104b70: 6e20 7072 6f6f 6620 616e 6420 7661 6c69  n proof and vali
  - 0104b80: 6461 7465 2074 6865 2067 6976 656e 206b  date the given k
  - 0104b90: 6579 206f 776e 6572 7368 6970 2070 726f  ey ownership pro
  - 0104ba0: 6f66 6167 6169 6e73 7420 7468 6520 6578  ofagainst the ex
  - 0104bb0: 7472 6163 7465 6420 6f66 6665 6e64 6572  tracted offender
  - 0104bc0: 2e20 4966 2062 6f74 6820 6172 6520 7661  . If both are va
  - 0104bd0: 6c69 642c 2074 6865 206f 6666 656e 6365  lid, the offence
  - 0104be0: 7769 6c6c 2062 6520 7265 706f 7274 6564  will be reported
  - 0104bf0: 2e00 0000 234b 1000 4200 0000 654b 1000  ....#K..B...eK..
  - 0104c00: 3d00 0000 a24b 1000 3e00 0000 e04b 1000  =....K..>....K..
  - 0104c10: 1100 0000 4e6f 7465 2074 6861 7420 7468  ....Note that th
  - 0104c20: 6520 6375 7272 656e 7420 6175 7468 6f72  e current author
  - 0104c30: 6974 7920 7365 7420 6f66 2074 6865 2047  ity set of the G
  - 0104c40: 5241 4e44 5041 2066 696e 616c 6974 7920  RANDPA finality 
  - 0104c50: 6761 6467 6574 2068 6173 2073 7461 6c6c  gadget has stall
  - 0104c60: 6564 2e54 6869 7320 7769 6c6c 2074 7269  ed.This will tri
  - 0104c70: 6767 6572 2061 2066 6f72 6365 6420 6175  gger a forced au
  - 0104c80: 7468 6f72 6974 7920 7365 7420 6368 616e  thority set chan
  - 0104c90: 6765 2061 7420 7468 6520 6265 6769 6e6e  ge at the beginn
  - 0104ca0: 696e 6720 6f66 2074 6865 206e 6578 7420  ing of the next 
  - 0104cb0: 7365 7373 696f 6e2c 2074 6f62 6520 656e  session, tobe en
  - 0104cc0: 6163 7465 6420 6064 656c 6179 6020 626c  acted `delay` bl
  - 0104cd0: 6f63 6b73 2061 6674 6572 2074 6861 742e  ocks after that.
  - 0104ce0: 2054 6865 2060 6465 6c61 7960 2073 686f   The `delay` sho
  - 0104cf0: 756c 6420 6265 2068 6967 6820 656e 6f75  uld be high enou
  - 0104d00: 6768 2074 6f20 7361 6665 6c79 2061 7373  gh to safely ass
  - 0104d10: 756d 6574 6861 7420 7468 6520 626c 6f63  umethat the bloc
  - 0104d20: 6b20 7369 676e 616c 6c69 6e67 2074 6865  k signalling the
  - 0104d30: 2066 6f72 6365 6420 6368 616e 6765 2077   forced change w
  - 0104d40: 696c 6c20 6e6f 7420 6265 2072 652d 6f72  ill not be re-or
  - 0104d50: 6765 6420 652e 672e 2031 3030 3020 626c  ged e.g. 1000 bl
  - 0104d60: 6f63 6b73 2e54 6865 2062 6c6f 636b 2070  ocks.The block p
  - 0104d70: 726f 6475 6374 696f 6e20 7261 7465 2028  roduction rate (
  - 0104d80: 7768 6963 6820 6d61 7920 6265 2073 6c6f  which may be slo
  - 0104d90: 7765 6420 646f 776e 2062 6563 6175 7365  wed down because
  - 0104da0: 206f 6620 6669 6e61 6c69 7479 206c 6167   of finality lag
  - 0104db0: 6769 6e67 2920 7368 6f75 6c64 6265 2074  ging) shouldbe t
  - 0104dc0: 616b 656e 2069 6e74 6f20 6163 636f 756e  aken into accoun
  - 0104dd0: 7420 7768 656e 2063 686f 6f73 696e 6720  t when choosing 
  - 0104de0: 7468 6520 6064 656c 6179 602e 2054 6865  the `delay`. The
  - 0104df0: 2047 5241 4e44 5041 2076 6f74 6572 7320   GRANDPA voters 
  - 0104e00: 6261 7365 6420 6f6e 2074 6865 206e 6577  based on the new
  - 0104e10: 6175 7468 6f72 6974 7920 7769 6c6c 2073  authority will s
  - 0104e20: 7461 7274 2076 6f74 696e 6720 6f6e 2074  tart voting on t
  - 0104e30: 6f70 206f 6620 6062 6573 745f 6669 6e61  op of `best_fina
  - 0104e40: 6c69 7a65 645f 626c 6f63 6b5f 6e75 6d62  lized_block_numb
  - 0104e50: 6572 6020 666f 7220 6e65 7720 6669 6e61  er` for new fina
  - 0104e60: 6c69 7a65 6462 6c6f 636b 732e 2060 6265  lizedblocks. `be
  - 0104e70: 7374 5f66 696e 616c 697a 6564 5f62 6c6f  st_finalized_blo
  - 0104e80: 636b 5f6e 756d 6265 7260 2073 686f 756c  ck_number` shoul
  - 0104e90: 6420 6265 2074 6865 2068 6967 6865 7374  d be the highest
  - 0104ea0: 206f 6620 7468 6520 6c61 7465 7374 2066   of the latest f
  - 0104eb0: 696e 616c 697a 6564 626c 6f63 6b20 6f66  inalizedblock of
  - 0104ec0: 2061 6c6c 2076 616c 6964 6174 6f72 7320   all validators 
  - 0104ed0: 6f66 2074 6865 206e 6577 2061 7574 686f  of the new autho
  - 0104ee0: 7269 7479 2073 6574 2e4f 6e6c 7920 6361  rity set.Only ca
  - 0104ef0: 6c6c 6162 6c65 2062 7920 726f 6f74 2e00  llable by root..
  - 0104f00: 144c 1000 4f00 0000 0340 1000 0000 0000  .L..O....@......
  - 0104f10: 634c 1000 5800 0000 bb4c 1000 5800 0000  cL..X....L..X...
  - 0104f20: 134d 1000 5200 0000 654d 1000 5700 0000  .M..R...eM..W...
  - 0104f30: bc4d 1000 5400 0000 104e 1000 5500 0000  .M..T....N..U...
  - 0104f40: 654e 1000 5300 0000 b84e 1000 3100 0000  eN..S....N..1...
  - 0104f50: 0340 1000 0000 0000 e94e 1000 1600 0000  .@.......N......
  - 0104f60: 5468 6973 2065 7874 7269 6e73 6963 206d  This extrinsic m
  - 0104f70: 7573 7420 6265 2063 616c 6c65 6420 756e  ust be called un
  - 0104f80: 7369 676e 6564 2061 6e64 2069 7420 6973  signed and it is
  - 0104f90: 2065 7870 6563 7465 6420 7468 6174 206f   expected that o
  - 0104fa0: 6e6c 7962 6c6f 636b 2061 7574 686f 7273  nlyblock authors
  - 0104fb0: 2077 696c 6c20 6361 6c6c 2069 7420 2876   will call it (v
  - 0104fc0: 616c 6964 6174 6564 2069 6e20 6056 616c  alidated in `Val
  - 0104fd0: 6964 6174 6555 6e73 6967 6e65 6460 292c  idateUnsigned`),
  - 0104fe0: 2061 7320 7375 6368 6966 2074 6865 2062   as suchif the b
  - 0104ff0: 6c6f 636b 2061 7574 686f 7220 6973 2064  lock author is d
  - 0105000: 6566 696e 6564 2069 7420 7769 6c6c 2062  efined it will b
  - 0105010: 6520 6465 6669 6e65 6420 6173 2074 6865  e defined as the
  - 0105020: 2065 7175 6976 6f63 6174 696f 6e72 6570   equivocationrep
  - 0105030: 6f72 7465 722e 0000 234b 1000 4200 0000  orter...#K..B...
  - 0105040: 654b 1000 3d00 0000 a24b 1000 3e00 0000  eK..=....K..>...
  - 0105050: e04b 1000 1100 0000 0340 1000 0000 0000  .K.......@......
  - 0105060: 604f 1000 4300 0000 a34f 1000 4500 0000  `O..C....O..E...
  - 0105070: e84f 1000 4500 0000 2d50 1000 0900 0000  .O..E...-P......
  - 0105080: 6b65 795f 6f77 6e65 725f 7072 6f6f 6654  key_owner_proofT
  - 0105090: 3a3a 4b65 794f 776e 6572 5072 6f6f 6665  ::KeyOwnerProofe
  - 01050a0: 7175 6976 6f63 6174 696f 6e5f 7072 6f6f  quivocation_proo
  - 01050b0: 6642 6f78 3c45 7175 6976 6f63 6174 696f  fBox<Equivocatio
  - 01050c0: 6e50 726f 6f66 3c54 3a3a 4861 7368 2c20  nProof<T::Hash, 
  - 01050d0: 543a 3a42 6c6f 636b 4e75 6d62 6572 3e3e  T::BlockNumber>>
  - 01050e0: 6265 7374 5f66 696e 616c 697a 6564 5f62  best_finalized_b
  - 01050f0: 6c6f 636b 5f6e 756d 6265 7254 3a3a 426c  lock_numberT::Bl
  - 0105100: 6f63 6b4e 756d 6265 7241 2067 6976 656e  ockNumberA given
  - 0105110: 2065 7175 6976 6f63 6174 696f 6e20 7265   equivocation re
  - 0105120: 706f 7274 2069 7320 7661 6c69 6420 6275  port is valid bu
  - 0105130: 7420 616c 7265 6164 7920 7072 6576 696f  t already previo
  - 0105140: 7573 6c79 2072 6570 6f72 7465 642e 0000  usly reported...
  - 0105150: 0951 1000 4500 0000 4174 7465 6d70 7420  .Q..E...Attempt 
  - 0105160: 746f 2073 6967 6e61 6c20 4752 414e 4450  to signal GRANDP
  - 0105170: 4120 6368 616e 6765 2077 6974 6820 6f6e  A change with on
  - 0105180: 6520 616c 7265 6164 7920 7065 6e64 696e  e already pendin
  - 0105190: 672e 0000 0000 0000 5851 1000 3a00 0000  g.......XQ..:...
  - 01051a0: 4174 7465 6d70 7420 746f 2073 6967 6e61  Attempt to signa
  - 01051b0: 6c20 4752 414e 4450 4120 7061 7573 6520  l GRANDPA pause 
  - 01051c0: 7768 656e 2074 6865 2061 7574 686f 7269  when the authori
  - 01051d0: 7479 2073 6574 2069 736e 2774 206c 6976  ty set isn't liv
  - 01051e0: 6528 6569 7468 6572 2070 6175 7365 6420  e(either paused 
  - 01051f0: 6f72 2061 6c72 6561 6479 2070 656e 6469  or already pendi
  - 0105200: 6e67 2070 6175 7365 292e 0000 a051 1000  ng pause)....Q..
  - 0105210: 4100 0000 e151 1000 2900 0000 416e 2065  A....Q..)...An e
  - 0105220: 7175 6976 6f63 6174 696f 6e20 7072 6f6f  quivocation proo
  - 0105230: 6620 7072 6f76 6964 6564 2061 7320 7061  f provided as pa
  - 0105240: 7274 206f 6620 616e 2065 7175 6976 6f63  rt of an equivoc
  - 0105250: 6174 696f 6e20 7265 706f 7274 2069 7320  ation report is 
  - 0105260: 696e 7661 6c69 642e 1c52 1000 4c00 0000  invalid..R..L...
  - 0105270: 4361 6e6e 6f74 2073 6967 6e61 6c20 666f  Cannot signal fo
  - 0105280: 7263 6564 2063 6861 6e67 6520 736f 2073  rced change so s
  - 0105290: 6f6f 6e20 6166 7465 7220 6c61 7374 2e00  oon after last..
  - 01052a0: 7052 1000 2f00 0000 4120 6b65 7920 6f77  pR../...A key ow
  - 01052b0: 6e65 7273 6869 7020 7072 6f6f 6620 7072  nership proof pr
  - 01052c0: 6f76 6964 6564 2061 7320 7061 7274 206f  ovided as part o
  - 01052d0: 6620 616e 2065 7175 6976 6f63 6174 696f  f an equivocatio
  - 01052e0: 6e20 7265 706f 7274 2069 7320 696e 7661  n report is inva
  - 01052f0: 6c69 642e 0000 0000 a852 1000 4c00 0000  lid......R..L...
  - 0105300: 4174 7465 6d70 7420 746f 2073 6967 6e61  Attempt to signa
  - 0105310: 6c20 4752 414e 4450 4120 7265 7375 6d65  l GRANDPA resume
  - 0105320: 2077 6865 6e20 7468 6520 6175 7468 6f72   when the author
  - 0105330: 6974 7920 7365 7420 6973 6e27 7420 7061  ity set isn't pa
  - 0105340: 7573 6564 2865 6974 6865 7220 6c69 7665  used(either live
  - 0105350: 206f 7220 616c 7265 6164 7920 7065 6e64   or already pend
  - 0105360: 696e 6720 7265 7375 6d65 292e 0053 1000  ing resume)..S..
  - 0105370: 4400 0000 4453 1000 2800 0000 6964 5265  D...DS..(...idRe
  - 0105380: 7365 7276 6549 6465 6e74 6966 6965 7261  serveIdentifiera
  - 0105390: 6d6f 756e 7442 616c 616e 6365 6672 6565  mountBalancefree
  - 01053a0: 6d69 7363 5f66 726f 7a65 6e72 6573 6572  misc_frozenreser
  - 01053b0: 7665 6466 6565 5f66 726f 7a65 6e4c 6f63  vedfee_frozenLoc
  - 01053c0: 6b49 6465 6e74 6966 6965 7272 6561 736f  kIdentifierreaso
  - 01053d0: 6e73 5265 6173 6f6e 7345 7861 6374 6c79  nsReasonsExactly
  - 01053e0: 2061 7320 6074 7261 6e73 6665 7260 2c20   as `transfer`, 
  - 01053f0: 6578 6365 7074 2074 6865 206f 7269 6769  except the origi
  - 0105400: 6e20 6d75 7374 2062 6520 726f 6f74 2061  n must be root a
  - 0105410: 6e64 2074 6865 2073 6f75 7263 6520 6163  nd the source ac
  - 0105420: 636f 756e 7420 6d61 7920 6265 7370 6563  count may bespec
  - 0105430: 6966 6965 642e 2d20 5361 6d65 2061 7320  ified.- Same as 
  - 0105440: 7472 616e 7366 6572 2c20 6275 7420 6164  transfer, but ad
  - 0105450: 6469 7469 6f6e 616c 2072 6561 6420 616e  ditional read an
  - 0105460: 6420 7772 6974 6520 6265 6361 7573 6520  d write because 
  - 0105470: 7468 6520 736f 7572 6365 2061 6363 6f75  the source accou
  - 0105480: 6e74 2069 7320 6e6f 7420 2061 7373 756d  nt is not  assum
  - 0105490: 6564 2074 6f20 6265 2069 6e20 7468 6520  ed to be in the 
  - 01054a0: 6f76 6572 6c61 792e d953 1000 5300 0000  overlay..S..S...
  - 01054b0: 2c54 1000 0a00 0000 3640 1000 0d00 0000  ,T......6@......
  - 01054c0: 3654 1000 5300 0000 8954 1000 1f00 0000  6T..S....T......
  - 01054d0: 5361 6d65 2061 7320 7468 6520 5b60 7472  Same as the [`tr
  - 01054e0: 616e 7366 6572 605d 2063 616c 6c2c 2062  ansfer`] call, b
  - 01054f0: 7574 2077 6974 6820 6120 6368 6563 6b20  ut with a check 
  - 0105500: 7468 6174 2074 6865 2074 7261 6e73 6665  that the transfe
  - 0105510: 7220 7769 6c6c 206e 6f74 206b 696c 6c20  r will not kill 
  - 0105520: 7468 656f 7269 6769 6e20 6163 636f 756e  theorigin accoun
  - 0105530: 742e 3939 2520 6f66 2074 6865 2074 696d  t.99% of the tim
  - 0105540: 6520 796f 7520 7761 6e74 205b 6074 7261  e you want [`tra
  - 0105550: 6e73 6665 7260 5d20 696e 7374 6561 642e  nsfer`] instead.
  - 0105560: 5b60 7472 616e 7366 6572 605d 3a20 7374  [`transfer`]: st
  - 0105570: 7275 6374 2e50 616c 6c65 742e 6874 6d6c  ruct.Pallet.html
  - 0105580: 236d 6574 686f 642e 7472 616e 7366 6572  #method.transfer
  - 0105590: d054 1000 5300 0000 2355 1000 0f00 0000  .T..S...#U......
  - 01055a0: 0340 1000 0000 0000 3255 1000 2e00 0000  .@......2U......
  - 01055b0: 0340 1000 0000 0000 6055 1000 3000 0000  .@......`U..0...
  - 01055c0: 5365 7420 7468 6520 6261 6c61 6e63 6573  Set the balances
  - 01055d0: 206f 6620 6120 6769 7665 6e20 6163 636f   of a given acco
  - 01055e0: 756e 742e 5468 6973 2077 696c 6c20 616c  unt.This will al
  - 01055f0: 7465 7220 6046 7265 6542 616c 616e 6365  ter `FreeBalance
  - 0105600: 6020 616e 6420 6052 6573 6572 7665 6442  ` and `ReservedB
  - 0105610: 616c 616e 6365 6020 696e 2073 746f 7261  alance` in stora
  - 0105620: 6765 2e20 6974 2077 696c 6c61 6c73 6f20  ge. it willalso 
  - 0105630: 616c 7465 7220 7468 6520 746f 7461 6c20  alter the total 
  - 0105640: 6973 7375 616e 6365 206f 6620 7468 6520  issuance of the 
  - 0105650: 7379 7374 656d 2028 6054 6f74 616c 4973  system (`TotalIs
  - 0105660: 7375 616e 6365 6029 2061 7070 726f 7072  suance`) appropr
  - 0105670: 6961 7465 6c79 2e49 6620 7468 6520 6e65  iately.If the ne
  - 0105680: 7720 6672 6565 206f 7220 7265 7365 7276  w free or reserv
  - 0105690: 6564 2062 616c 616e 6365 2069 7320 6265  ed balance is be
  - 01056a0: 6c6f 7720 7468 6520 6578 6973 7465 6e74  low the existent
  - 01056b0: 6961 6c20 6465 706f 7369 742c 6974 2077  ial deposit,it w
  - 01056c0: 696c 6c20 7265 7365 7420 7468 6520 6163  ill reset the ac
  - 01056d0: 636f 756e 7420 6e6f 6e63 6520 2860 6672  count nonce (`fr
  - 01056e0: 616d 655f 7379 7374 656d 3a3a 4163 636f  ame_system::Acco
  - 01056f0: 756e 744e 6f6e 6365 6029 2e54 6865 2064  untNonce`).The d
  - 0105700: 6973 7061 7463 6820 6f72 6967 696e 2066  ispatch origin f
  - 0105710: 6f72 2074 6869 7320 6361 6c6c 2069 7320  or this call is 
  - 0105720: 6072 6f6f 7460 2e00 c055 1000 2400 0000  `root`...U..$...
  - 0105730: 0340 1000 0000 0000 e455 1000 4700 0000  .@.......U..G...
  - 0105740: 2b56 1000 4c00 0000 7756 1000 4500 0000  +V..L...wV..E...
  - 0105750: bc56 1000 3f00 0000 0340 1000 0000 0000  .V..?....@......
  - 0105760: fb56 1000 2c00 0000 556e 7265 7365 7276  .V..,...Unreserv
  - 0105770: 6520 736f 6d65 2062 616c 616e 6365 2066  e some balance f
  - 0105780: 726f 6d20 6120 7573 6572 2062 7920 666f  rom a user by fo
  - 0105790: 7263 652e 4361 6e20 6f6e 6c79 2062 6520  rce.Can only be 
  - 01057a0: 6361 6c6c 6564 2062 7920 524f 4f54 2e00  called by ROOT..
  - 01057b0: 6857 1000 2c00 0000 0340 1000 0000 0000  hW..,....@......
  - 01057c0: 9457 1000 1b00 0000 5472 616e 7366 6572  .W......Transfer
  - 01057d0: 2074 6865 2065 6e74 6972 6520 7472 616e   the entire tran
  - 01057e0: 7366 6572 6162 6c65 2062 616c 616e 6365  sferable balance
  - 01057f0: 2066 726f 6d20 7468 6520 6361 6c6c 6572   from the caller
  - 0105800: 2061 6363 6f75 6e74 2e4e 4f54 453a 2054   account.NOTE: T
  - 0105810: 6869 7320 6675 6e63 7469 6f6e 206f 6e6c  his function onl
  - 0105820: 7920 6174 7465 6d70 7473 2074 6f20 7472  y attempts to tr
  - 0105830: 616e 7366 6572 205f 7472 616e 7366 6572  ansfer _transfer
  - 0105840: 6162 6c65 5f20 6261 6c61 6e63 6573 2e20  able_ balances. 
  - 0105850: 5468 6973 206d 6561 6e73 2074 6861 7461  This means thata
  - 0105860: 6e79 206c 6f63 6b65 642c 2072 6573 6572  ny locked, reser
  - 0105870: 7665 642c 206f 7220 6578 6973 7465 6e74  ved, or existent
  - 0105880: 6961 6c20 6465 706f 7369 7473 2028 7768  ial deposits (wh
  - 0105890: 656e 2060 6b65 6570 5f61 6c69 7665 6020  en `keep_alive` 
  - 01058a0: 6973 2060 7472 7565 6029 2c20 7769 6c6c  is `true`), will
  - 01058b0: 206e 6f74 2062 6574 7261 6e73 6665 7272   not betransferr
  - 01058c0: 6564 2062 7920 7468 6973 2066 756e 6374  ed by this funct
  - 01058d0: 696f 6e2e 2054 6f20 656e 7375 7265 2074  ion. To ensure t
  - 01058e0: 6861 7420 7468 6973 2066 756e 6374 696f  hat this functio
  - 01058f0: 6e20 7265 7375 6c74 7320 696e 2061 206b  n results in a k
  - 0105900: 696c 6c65 6420 6163 636f 756e 742c 796f  illed account,yo
  - 0105910: 7520 6d69 6768 7420 6e65 6564 2074 6f20  u might need to 
  - 0105920: 7072 6570 6172 6520 7468 6520 6163 636f  prepare the acco
  - 0105930: 756e 7420 6279 2072 656d 6f76 696e 6720  unt by removing 
  - 0105940: 616e 7920 7265 6665 7265 6e63 6520 636f  any reference co
  - 0105950: 756e 7465 7273 2c20 7374 6f72 6167 6564  unters, storaged
  - 0105960: 6570 6f73 6974 732c 2065 7463 2e2e 2e54  eposits, etc...T
  - 0105970: 6865 2064 6973 7061 7463 6820 6f72 6967  he dispatch orig
  - 0105980: 696e 206f 6620 7468 6973 2063 616c 6c20  in of this call 
  - 0105990: 6d75 7374 2062 6520 5369 676e 6564 2e2d  must be Signed.-
  - 01059a0: 2060 6465 7374 603a 2054 6865 2072 6563   `dest`: The rec
  - 01059b0: 6970 6965 6e74 206f 6620 7468 6520 7472  ipient of the tr
  - 01059c0: 616e 7366 6572 2e2d 2060 6b65 6570 5f61  ansfer.- `keep_a
  - 01059d0: 6c69 7665 603a 2041 2062 6f6f 6c65 616e  live`: A boolean
  - 01059e0: 2074 6f20 6465 7465 726d 696e 6520 6966   to determine if
  - 01059f0: 2074 6865 2060 7472 616e 7366 6572 5f61   the `transfer_a
  - 0105a00: 6c6c 6020 6f70 6572 6174 696f 6e20 7368  ll` operation sh
  - 0105a10: 6f75 6c64 2073 656e 6420 616c 6c20 206f  ould send all  o
  - 0105a20: 6620 7468 6520 6675 6e64 7320 7468 6520  f the funds the 
  - 0105a30: 6163 636f 756e 7420 6861 732c 2063 6175  account has, cau
  - 0105a40: 7369 6e67 2074 6865 2073 656e 6465 7220  sing the sender 
  - 0105a50: 6163 636f 756e 7420 746f 2062 6520 6b69  account to be ki
  - 0105a60: 6c6c 6564 2028 6661 6c73 6529 2c20 6f72  lled (false), or
  - 0105a70: 2020 7472 616e 7366 6572 2065 7665 7279    transfer every
  - 0105a80: 7468 696e 6720 6578 6365 7074 2061 7420  thing except at 
  - 0105a90: 6c65 6173 7420 7468 6520 6578 6973 7465  least the existe
  - 0105aa0: 6e74 6961 6c20 6465 706f 7369 742c 2077  ntial deposit, w
  - 0105ab0: 6869 6368 2077 696c 6c20 6775 6172 616e  hich will guaran
  - 0105ac0: 7465 6520 746f 2020 6b65 6570 2074 6865  tee to  keep the
  - 0105ad0: 2073 656e 6465 7220 6163 636f 756e 7420   sender account 
  - 0105ae0: 616c 6976 6520 2874 7275 6529 2e20 2323  alive (true). ##
  - 0105af0: 2043 6f6d 706c 6578 6974 792d 204f 2831   Complexity- O(1
  - 0105b00: 292e 204a 7573 7420 6c69 6b65 2074 7261  ). Just like tra
  - 0105b10: 6e73 6665 722c 2062 7574 2072 6561 6469  nsfer, but readi
  - 0105b20: 6e67 2074 6865 2075 7365 7227 7320 7472  ng the user's tr
  - 0105b30: 616e 7366 6572 6162 6c65 2062 616c 616e  ansferable balan
  - 0105b40: 6365 2066 6972 7374 2e00 0000 c857 1000  ce first.....W..
  - 0105b50: 4100 0000 0340 1000 0000 0000 0958 1000  A....@.......X..
  - 0105b60: 5600 0000 5f58 1000 5800 0000 b758 1000  V..._X..X....X..
  - 0105b70: 5700 0000 0e59 1000 5100 0000 5f59 1000  W....Y..Q..._Y..
  - 0105b80: 1000 0000 0340 1000 0000 0000 6f59 1000  .....@......oY..
  - 0105b90: 3000 0000 0340 1000 0000 0000 9f59 1000  0....@.......Y..
  - 0105ba0: 2800 0000 c759 1000 5600 0000 1d5a 1000  (....Y..V....Z..
  - 0105bb0: 5300 0000 705a 1000 5600 0000 c65a 1000  S...pZ..V....Z..
  - 0105bc0: 3500 0000 fb5a 1000 4e00 0000 5472 616e  5....Z..N...Tran
  - 0105bd0: 7366 6572 2073 6f6d 6520 6c69 7175 6964  sfer some liquid
  - 0105be0: 2066 7265 6520 6261 6c61 6e63 6520 746f   free balance to
  - 0105bf0: 2061 6e6f 7468 6572 2061 6363 6f75 6e74   another account
  - 0105c00: 2e60 7472 616e 7366 6572 6020 7769 6c6c  .`transfer` will
  - 0105c10: 2073 6574 2074 6865 2060 4672 6565 4261   set the `FreeBa
  - 0105c20: 6c61 6e63 6560 206f 6620 7468 6520 7365  lance` of the se
  - 0105c30: 6e64 6572 2061 6e64 2072 6563 6569 7665  nder and receive
  - 0105c40: 722e 4966 2074 6865 2073 656e 6465 7227  r.If the sender'
  - 0105c50: 7320 6163 636f 756e 7420 6973 2062 656c  s account is bel
  - 0105c60: 6f77 2074 6865 2065 7869 7374 656e 7469  ow the existenti
  - 0105c70: 616c 2064 6570 6f73 6974 2061 7320 6120  al deposit as a 
  - 0105c80: 7265 7375 6c74 6f66 2074 6865 2074 7261  resultof the tra
  - 0105c90: 6e73 6665 722c 2074 6865 2061 6363 6f75  nsfer, the accou
  - 0105ca0: 6e74 2077 696c 6c20 6265 2072 6561 7065  nt will be reape
  - 0105cb0: 642e 5468 6520 6469 7370 6174 6368 206f  d.The dispatch o
  - 0105cc0: 7269 6769 6e20 666f 7220 7468 6973 2063  rigin for this c
  - 0105cd0: 616c 6c20 6d75 7374 2062 6520 6053 6967  all must be `Sig
  - 0105ce0: 6e65 6460 2062 7920 7468 6520 7472 616e  ned` by the tran
  - 0105cf0: 7361 6374 6f72 2e2d 2044 6570 656e 6465  sactor.- Depende
  - 0105d00: 6e74 206f 6e20 6172 6775 6d65 6e74 7320  nt on arguments 
  - 0105d10: 6275 7420 6e6f 7420 6372 6974 6963 616c  but not critical
  - 0105d20: 2c20 6769 7665 6e20 7072 6f70 6572 2069  , given proper i
  - 0105d30: 6d70 6c65 6d65 6e74 6174 696f 6e73 2066  mplementations f
  - 0105d40: 6f72 2069 6e70 7574 2063 6f6e 6669 6720  or input config 
  - 0105d50: 2074 7970 6573 2e20 5365 6520 7265 6c61   types. See rela
  - 0105d60: 7465 6420 6675 6e63 7469 6f6e 7320 6265  ted functions be
  - 0105d70: 6c6f 772e 2d20 4974 2063 6f6e 7461 696e  low.- It contain
  - 0105d80: 7320 6120 6c69 6d69 7465 6420 6e75 6d62  s a limited numb
  - 0105d90: 6572 206f 6620 7265 6164 7320 616e 6420  er of reads and 
  - 0105da0: 7772 6974 6573 2069 6e74 6572 6e61 6c6c  writes internall
  - 0105db0: 7920 616e 6420 6e6f 2063 6f6d 706c 6578  y and no complex
  - 0105dc0: 2020 636f 6d70 7574 6174 696f 6e2e 5265    computation.Re
  - 0105dd0: 6c61 7465 6420 6675 6e63 7469 6f6e 733a  lated functions:
  - 0105de0: 2020 2d20 6065 6e73 7572 655f 6361 6e5f    - `ensure_can_
  - 0105df0: 7769 7468 6472 6177 6020 6973 2061 6c77  withdraw` is alw
  - 0105e00: 6179 7320 6361 6c6c 6564 2069 6e74 6572  ays called inter
  - 0105e10: 6e61 6c6c 7920 6275 7420 6861 7320 6120  nally but has a 
  - 0105e20: 626f 756e 6465 6420 636f 6d70 6c65 7869  bounded complexi
  - 0105e30: 7479 2e20 202d 2054 7261 6e73 6665 7272  ty.  - Transferr
  - 0105e40: 696e 6720 6261 6c61 6e63 6573 2074 6f20  ing balances to 
  - 0105e50: 6163 636f 756e 7473 2074 6861 7420 6469  accounts that di
  - 0105e60: 6420 6e6f 7420 6578 6973 7420 6265 666f  d not exist befo
  - 0105e70: 7265 2077 696c 6c20 6361 7573 6520 2020  re will cause   
  - 0105e80: 2060 543a 3a4f 6e4e 6577 4163 636f 756e   `T::OnNewAccoun
  - 0105e90: 743a 3a6f 6e5f 6e65 775f 6163 636f 756e  t::on_new_accoun
  - 0105ea0: 7460 2074 6f20 6265 2063 616c 6c65 642e  t` to be called.
  - 0105eb0: 2020 2d20 5265 6d6f 7669 6e67 2065 6e6f    - Removing eno
  - 0105ec0: 7567 6820 6675 6e64 7320 6672 6f6d 2061  ugh funds from a
  - 0105ed0: 6e20 6163 636f 756e 7420 7769 6c6c 2074  n account will t
  - 0105ee0: 7269 6767 6572 2060 543a 3a44 7573 7452  rigger `T::DustR
  - 0105ef0: 656d 6f76 616c 3a3a 6f6e 5f75 6e62 616c  emoval::on_unbal
  - 0105f00: 616e 6365 6460 2e20 202d 2060 7472 616e  anced`.  - `tran
  - 0105f10: 7366 6572 5f6b 6565 705f 616c 6976 6560  sfer_keep_alive`
  - 0105f20: 2077 6f72 6b73 2074 6865 2073 616d 6520   works the same 
  - 0105f30: 7761 7920 6173 2060 7472 616e 7366 6572  way as `transfer
  - 0105f40: 602c 2062 7574 2068 6173 2061 6e20 6164  `, but has an ad
  - 0105f50: 6469 7469 6f6e 616c 2063 6865 636b 2020  ditional check  
  - 0105f60: 2020 7468 6174 2074 6865 2074 7261 6e73    that the trans
  - 0105f70: 6665 7220 7769 6c6c 206e 6f74 206b 696c  fer will not kil
  - 0105f80: 6c20 7468 6520 6f72 6967 696e 2061 6363  l the origin acc
  - 0105f90: 6f75 6e74 2e00 0000 cc5b 1000 3500 0000  ount.....[..5...
  - 0105fa0: 0340 1000 0000 0000 015c 1000 4100 0000  .@.......\..A...
  - 0105fb0: 425c 1000 4400 0000 865c 1000 2c00 0000  B\..D....\..,...
  - 0105fc0: 0340 1000 0000 0000 b25c 1000 4500 0000  .@.......\..E...
  - 0105fd0: 0340 1000 0000 0000 3640 1000 0d00 0000  .@......6@......
  - 0105fe0: f75c 1000 5800 0000 4f5d 1000 2500 0000  .\..X...O]..%...
  - 0105ff0: 745d 1000 4c00 0000 c05d 1000 0e00 0000  t]..L....]......
  - 0106000: 0340 1000 0000 0000 ce5d 1000 1200 0000  .@.......]......
  - 0106010: 0340 1000 0000 0000 e05d 1000 5300 0000  .@.......]..S...
  - 0106020: 335e 1000 4a00 0000 7d5e 1000 3300 0000  3^..J...}^..3...
  - 0106030: b05e 1000 5700 0000 075f 1000 5700 0000  .^..W...._..W...
  - 0106040: 5e5f 1000 3700 0000 6465 7374 736f 7572  ^_..7...destsour
  - 0106050: 6365 543a 3a42 616c 616e 6365 7661 6c75  ceT::Balancevalu
  - 0106060: 656e 6577 5f72 6573 6572 7665 646b 6565  enew_reservedkee
  - 0106070: 705f 616c 6976 6562 6f6f 6c6e 6577 5f66  p_aliveboolnew_f
  - 0106080: 7265 6541 6363 6f75 6e74 206c 6971 7569  reeAccount liqui
  - 0106090: 6469 7479 2072 6573 7472 6963 7469 6f6e  dity restriction
  - 01060a0: 7320 7072 6576 656e 7420 7769 7468 6472  s prevent withdr
  - 01060b0: 6177 616c 0000 0000 8360 1000 3100 0000  awal.....`..1...
  - 01060c0: 4e75 6d62 6572 206f 6620 6e61 6d65 6420  Number of named 
  - 01060d0: 7265 7365 7276 6573 2065 7863 6565 6420  reserves exceed 
  - 01060e0: 4d61 7852 6573 6572 7665 7300 0000 0000  MaxReserves.....
  - 01060f0: c060 1000 2b00 0000 5661 6c75 6520 746f  .`..+...Value to
  - 0106100: 6f20 6c6f 7720 746f 2063 7265 6174 6520  o low to create 
  - 0106110: 6163 636f 756e 7420 6475 6520 746f 2065  account due to e
  - 0106120: 7869 7374 656e 7469 616c 2064 6570 6f73  xistential depos
  - 0106130: 6974 0000 0000 0000 f860 1000 3a00 0000  it.......`..:...
  - 0106140: 4261 6c61 6e63 6520 746f 6f20 6c6f 7720  Balance too low 
  - 0106150: 746f 2073 656e 6420 7661 6c75 652e 0000  to send value...
  - 0106160: 4061 1000 1e00 0000 5665 7374 696e 6720  @a......Vesting 
  - 0106170: 6261 6c61 6e63 6520 746f 6f20 6869 6768  balance too high
  - 0106180: 2074 6f20 7365 6e64 2076 616c 7565 0000   to send value..
  - 0106190: 6861 1000 2600 0000 4120 7665 7374 696e  ha..&...A vestin
  - 01061a0: 6720 7363 6865 6475 6c65 2061 6c72 6561  g schedule alrea
  - 01061b0: 6479 2065 7869 7374 7320 666f 7220 7468  dy exists for th
  - 01061c0: 6973 2061 6363 6f75 6e74 0000 0000 0000  is account......
  - 01061d0: 9861 1000 3200 0000 4265 6e65 6669 6369  .a..2...Benefici
  - 01061e0: 6172 7920 6163 636f 756e 7420 6d75 7374  ary account must
  - 01061f0: 2070 7265 2d65 7869 7374 0000 0000 0000   pre-exist......
  - 0106200: d861 1000 2200 0000 5472 616e 7366 6572  .a.."...Transfer
  - 0106210: 2f70 6179 6d65 6e74 2077 6f75 6c64 206b  /payment would k
  - 0106220: 696c 6c20 6163 636f 756e 7400 0000 0000  ill account.....
  - 0106230: 0862 1000 2300 0000 4120 6261 6c61 6e63  .b..#...A balanc
  - 0106240: 6520 7761 7320 7365 7420 6279 2072 6f6f  e was set by roo
  - 0106250: 742e 0000 0000 0000 3862 1000 1a00 0000  t.......8b......
  - 0106260: 536f 6d65 2062 616c 616e 6365 2077 6173  Some balance was
  - 0106270: 2075 6e72 6573 6572 7665 6420 286d 6f76   unreserved (mov
  - 0106280: 6564 2066 726f 6d20 7265 7365 7276 6564  ed from reserved
  - 0106290: 2074 6f20 6672 6565 292e 0000 0000 0000   to free).......
  - 01062a0: 6062 1000 3a00 0000 536f 6d65 2061 6d6f  `b..:...Some amo
  - 01062b0: 756e 7420 7761 7320 7769 7468 6472 6177  unt was withdraw
  - 01062c0: 6e20 6672 6f6d 2074 6865 2061 6363 6f75  n from the accou
  - 01062d0: 6e74 2028 652e 672e 2066 6f72 2074 7261  nt (e.g. for tra
  - 01062e0: 6e73 6163 7469 6f6e 2066 6565 7329 2e00  nsaction fees)..
  - 01062f0: a862 1000 4700 0000 536f 6d65 2062 616c  .b..G...Some bal
  - 0106300: 616e 6365 2077 6173 206d 6f76 6564 2066  ance was moved f
  - 0106310: 726f 6d20 7468 6520 7265 7365 7276 6520  rom the reserve 
  - 0106320: 6f66 2074 6865 2066 6972 7374 2061 6363  of the first acc
  - 0106330: 6f75 6e74 2074 6f20 7468 6520 7365 636f  ount to the seco
  - 0106340: 6e64 2061 6363 6f75 6e74 2e46 696e 616c  nd account.Final
  - 0106350: 2061 7267 756d 656e 7420 696e 6469 6361   argument indica
  - 0106360: 7465 7320 7468 6520 6465 7374 696e 6174  tes the destinat
  - 0106370: 696f 6e20 6261 6c61 6e63 6520 7479 7065  ion balance type
  - 0106380: 2e00 0000 f862 1000 5300 0000 4b63 1000  .....b..S...Kc..
  - 0106390: 3600 0000 536f 6d65 2061 6d6f 756e 7420  6...Some amount 
  - 01063a0: 7761 7320 6465 706f 7369 7465 6420 2865  was deposited (e
  - 01063b0: 2e67 2e20 666f 7220 7472 616e 7361 6374  .g. for transact
  - 01063c0: 696f 6e20 6665 6573 292e 0000 0000 0000  ion fees).......
  - 01063d0: 9463 1000 3600 0000 536f 6d65 2061 6d6f  .c..6...Some amo
  - 01063e0: 756e 7420 7761 7320 7265 6d6f 7665 6420  unt was removed 
  - 01063f0: 6672 6f6d 2074 6865 2061 6363 6f75 6e74  from the account
  - 0106400: 2028 652e 672e 2066 6f72 206d 6973 6265   (e.g. for misbe
  - 0106410: 6861 7669 6f72 292e d863 1000 4000 0000  havior)..c..@...
  - 0106420: 416e 2061 6363 6f75 6e74 2077 6173 2072  An account was r
  - 0106430: 656d 6f76 6564 2077 686f 7365 2062 616c  emoved whose bal
  - 0106440: 616e 6365 2077 6173 206e 6f6e 2d7a 6572  ance was non-zer
  - 0106450: 6f20 6275 7420 6265 6c6f 7720 4578 6973  o but below Exis
  - 0106460: 7465 6e74 6961 6c44 6570 6f73 6974 2c72  tentialDeposit,r
  - 0106470: 6573 756c 7469 6e67 2069 6e20 616e 206f  esulting in an o
  - 0106480: 7574 7269 6768 7420 6c6f 7373 2e00 0000  utright loss....
  - 0106490: 2064 1000 4f00 0000 6f64 1000 1e00 0000   d..O...od......
  - 01064a0: 536f 6d65 2062 616c 616e 6365 2077 6173  Some balance was
  - 01064b0: 2072 6573 6572 7665 6420 286d 6f76 6564   reserved (moved
  - 01064c0: 2066 726f 6d20 6672 6565 2074 6f20 7265   from free to re
  - 01064d0: 7365 7276 6564 292e a064 1000 3800 0000  served)..d..8...
  - 01064e0: 5472 616e 7366 6572 2073 7563 6365 6564  Transfer succeed
  - 01064f0: 6564 2e00 0000 0000 e064 1000 1300 0000  ed.......d......
  - 0106500: 416e 2061 6363 6f75 6e74 2077 6173 2063  An account was c
  - 0106510: 7265 6174 6564 2077 6974 6820 736f 6d65  reated with some
  - 0106520: 2066 7265 6520 6261 6c61 6e63 652e 0000   free balance...
  - 0106530: 0065 1000 2e00 0000 746f 6672 6565 5f62  .e......tofree_b
  - 0106540: 616c 616e 6365 6672 6f6d 6465 7374 696e  alancefromdestin
  - 0106550: 6174 696f 6e5f 7374 6174 7573 5374 6174  ation_statusStat
  - 0106560: 7573 416e 2065 7861 6d70 6c65 2064 6973  usAn example dis
  - 0106570: 7061 7463 6861 626c 6520 7468 6174 2074  patchable that t
  - 0106580: 616b 6573 2061 2073 696e 676c 6573 2076  akes a singles v
  - 0106590: 616c 7565 2061 7320 6120 7061 7261 6d65  alue as a parame
  - 01065a0: 7465 722c 2077 7269 7465 7320 7468 6520  ter, writes the 
  - 01065b0: 7661 6c75 6520 746f 7374 6f72 6167 6520  value tostorage 
  - 01065c0: 616e 6420 656d 6974 7320 616e 2065 7665  and emits an eve
  - 01065d0: 6e74 2e20 5468 6973 2066 756e 6374 696f  nt. This functio
  - 01065e0: 6e20 6d75 7374 2062 6520 6469 7370 6174  n must be dispat
  - 01065f0: 6368 6564 2062 7920 6120 7369 676e 6564  ched by a signed
  - 0106600: 2065 7874 7269 6e73 6963 2e00 6265 1000   extrinsic..be..
  - 0106610: 5600 0000 b865 1000 5300 0000 416e 2065  V....e..S...An e
  - 0106620: 7861 6d70 6c65 2064 6973 7061 7463 6861  xample dispatcha
  - 0106630: 626c 6520 7468 6174 206d 6179 2074 6872  ble that may thr
  - 0106640: 6f77 2061 2063 7573 746f 6d20 6572 726f  ow a custom erro
  - 0106650: 722e 0000 0000 0000 1c66 1000 3600 0000  r........f..6...
  - 0106660: 736f 6d65 7468 696e 6745 7272 6f72 7320  somethingErrors 
  - 0106670: 7368 6f75 6c64 2068 6176 6520 6865 6c70  should have help
  - 0106680: 6675 6c20 646f 6375 6d65 6e74 6174 696f  ful documentatio
  - 0106690: 6e20 6173 736f 6369 6174 6564 2077 6974  n associated wit
  - 01066a0: 6820 7468 656d 2e00 6966 1000 3e00 0000  h them..if..>...
  - 01066b0: 4572 726f 7220 6e61 6d65 7320 7368 6f75  Error names shou
  - 01066c0: 6c64 2062 6520 6465 7363 7269 7074 6976  ld be descriptiv
  - 01066d0: 652e 0000 0000 0000 b066 1000 2200 0000  e........f.."...
  - 01066e0: 4576 656e 7420 646f 6375 6d65 6e74 6174  Event documentat
  - 01066f0: 696f 6e20 7368 6f75 6c64 2065 6e64 2077  ion should end w
  - 0106700: 6974 6820 616e 2061 7272 6179 2074 6861  ith an array tha
  - 0106710: 7420 7072 6f76 6964 6573 2064 6573 6372  t provides descr
  - 0106720: 6970 7469 7665 206e 616d 6573 2066 6f72  iptive names for
  - 0106730: 2065 7665 6e74 7061 7261 6d65 7465 7273   eventparameters
  - 0106740: 2e20 5b73 6f6d 6574 6869 6e67 2c20 7768  . [something, wh
  - 0106750: 6f5d 0000 e066 1000 5600 0000 3667 1000  o]...f..V...6g..
  - 0106760: 1c00 0000 7461 7267 6574 5f6e 756d 6265  ....target_numbe
  - 0106770: 7274 6172 6765 745f 6861 7368 4873 6563  rtarget_hashHsec
  - 0106780: 6f6e 6428 562c 2053 2972 6f75 6e64 5f6e  ond(V, S)round_n
  - 0106790: 756d 6265 7269 6465 6e74 6974 7949 6466  umberidentityIdf
  - 01067a0: 6972 7374 5365 7420 7468 6520 6375 7272  irstSet the curr
  - 01067b0: 656e 7420 7469 6d65 2e54 6869 7320 6361  ent time.This ca
  - 01067c0: 6c6c 2073 686f 756c 6420 6265 2069 6e76  ll should be inv
  - 01067d0: 6f6b 6564 2065 7861 6374 6c79 206f 6e63  oked exactly onc
  - 01067e0: 6520 7065 7220 626c 6f63 6b2e 2049 7420  e per block. It 
  - 01067f0: 7769 6c6c 2070 616e 6963 2061 7420 7468  will panic at th
  - 0106800: 6520 6669 6e61 6c69 7a61 7469 6f6e 7068  e finalizationph
  - 0106810: 6173 652c 2069 6620 7468 6973 2063 616c  ase, if this cal
  - 0106820: 6c20 6861 736e 2774 2062 6565 6e20 696e  l hasn't been in
  - 0106830: 766f 6b65 6420 6279 2074 6861 7420 7469  voked by that ti
  - 0106840: 6d65 2e54 6865 2074 696d 6573 7461 6d70  me.The timestamp
  - 0106850: 2073 686f 756c 6420 6265 2067 7265 6174   should be great
  - 0106860: 6572 2074 6861 6e20 7468 6520 7072 6576  er than the prev
  - 0106870: 696f 7573 206f 6e65 2062 7920 7468 6520  ious one by the 
  - 0106880: 616d 6f75 6e74 2073 7065 6369 6669 6564  amount specified
  - 0106890: 2062 7960 4d69 6e69 6d75 6d50 6572 696f   by`MinimumPerio
  - 01068a0: 6460 2e54 6865 2064 6973 7061 7463 6820  d`.The dispatch 
  - 01068b0: 6f72 6967 696e 2066 6f72 2074 6869 7320  origin for this 
  - 01068c0: 6361 6c6c 206d 7573 7420 6265 2060 496e  call must be `In
  - 01068d0: 6865 7265 6e74 602e 2d20 604f 2831 2960  herent`.- `O(1)`
  - 01068e0: 2028 4e6f 7465 2074 6861 7420 696d 706c   (Note that impl
  - 01068f0: 656d 656e 7461 7469 6f6e 7320 6f66 2060  ementations of `
  - 0106900: 4f6e 5469 6d65 7374 616d 7053 6574 6020  OnTimestampSet` 
  - 0106910: 6d75 7374 2061 6c73 6f20 6265 2060 4f28  must also be `O(
  - 0106920: 3129 6029 2d20 3120 7374 6f72 6167 6520  1)`)- 1 storage 
  - 0106930: 7265 6164 2061 6e64 2031 2073 746f 7261  read and 1 stora
  - 0106940: 6765 206d 7574 6174 696f 6e20 2863 6f64  ge mutation (cod
  - 0106950: 6563 2060 4f28 3129 6029 2e20 2862 6563  ec `O(1)`). (bec
  - 0106960: 6175 7365 206f 6620 6044 6964 5570 6461  ause of `DidUpda
  - 0106970: 7465 3a3a 7461 6b65 6020 696e 2020 606f  te::take` in  `o
  - 0106980: 6e5f 6669 6e61 6c69 7a65 6029 2d20 3120  n_finalize`)- 1 
  - 0106990: 6576 656e 7420 6861 6e64 6c65 7220 606f  event handler `o
  - 01069a0: 6e5f 7469 6d65 7374 616d 705f 7365 7460  n_timestamp_set`
  - 01069b0: 2e20 4d75 7374 2062 6520 604f 2831 2960  . Must be `O(1)`
  - 01069c0: 2e00 0000 a467 1000 1500 0000 0340 1000  .....g.......@..
  - 01069d0: 0000 0000 b967 1000 5500 0000 0e68 1000  .....g..U....h..
  - 01069e0: 3500 0000 0340 1000 0000 0000 4368 1000  5....@......Ch..
  - 01069f0: 5000 0000 9368 1000 1000 0000 0340 1000  P....h.......@..
  - 0106a00: 0000 0000 a368 1000 3500 0000 0340 1000  .....h..5....@..
  - 0106a10: 0000 0000 3640 1000 0d00 0000 d868 1000  ....6@.......h..
  - 0106a20: 4c00 0000 2469 1000 5800 0000 7c69 1000  L...$i..X...|i..
  - 0106a30: 1000 0000 8c69 1000 3500 0000 6e6f 7754  .....i..5...nowT
  - 0106a40: 3a3a 4d6f 6d65 6e74 7365 745f 6964 5365  ::Momentset_idSe
  - 0106a50: 7449 6465 7175 6976 6f63 6174 696f 6e45  tIdequivocationE
  - 0106a60: 7175 6976 6f63 6174 696f 6e3c 482c 204e  quivocation<H, N
  - 0106a70: 3e67 7261 6e64 7061 3a3a 4571 7569 766f  >grandpa::Equivo
  - 0106a80: 6361 7469 6f6e 3c41 7574 686f 7269 7479  cation<Authority
  - 0106a90: 4964 2c20 6772 616e 6470 613a 3a50 7265  Id, grandpa::Pre
  - 0106aa0: 636f 6d6d 6974 3c48 2c20 4e3e 2c0a 4175  commit<H, N>,.Au
  - 0106ab0: 7468 6f72 6974 7953 6967 6e61 7475 7265  thoritySignature
  - 0106ac0: 3e67 7261 6e64 7061 3a3a 4571 7569 766f  >grandpa::Equivo
  - 0106ad0: 6361 7469 6f6e 3c41 7574 686f 7269 7479  cation<Authority
  - 0106ae0: 4964 2c20 6772 616e 6470 613a 3a50 7265  Id, grandpa::Pre
  - 0106af0: 766f 7465 3c48 2c20 4e3e 2c0a 4175 7468  vote<H, N>,.Auth
  - 0106b00: 6f72 6974 7953 6967 6e61 7475 7265 3e42  oritySignature>B
  - 0106b10: 616c 616e 6365 4f66 3c54 3e41 2074 7261  alanceOf<T>A tra
  - 0106b20: 6e73 6163 7469 6f6e 2066 6565 2060 6163  nsaction fee `ac
  - 0106b30: 7475 616c 5f66 6565 602c 206f 6620 7768  tual_fee`, of wh
  - 0106b40: 6963 6820 6074 6970 6020 7761 7320 6164  ich `tip` was ad
  - 0106b50: 6465 6420 746f 2074 6865 206d 696e 696d  ded to the minim
  - 0106b60: 756d 2069 6e63 6c75 7369 6f6e 2066 6565  um inclusion fee
  - 0106b70: 2c68 6173 2062 6565 6e20 7061 6964 2062  ,has been paid b
  - 0106b80: 7920 6077 686f 602e 1b6b 1000 5600 0000  y `who`..k..V...
  - 0106b90: 716b 1000 1700 0000 6163 7475 616c 5f66  qk......actual_f
  - 0106ba0: 6565 7469 7066 7261 6d65 5f73 7973 7465  eetipframe_syste
  - 0106bb0: 6d3a 3a45 7665 6e74 3c52 756e 7469 6d65  m::Event<Runtime
  - 0106bc0: 3e70 616c 6c65 745f 6772 616e 6470 613a  >pallet_grandpa:
  - 0106bd0: 3a45 7665 6e74 7061 6c6c 6574 5f62 616c  :Eventpallet_bal
  - 0106be0: 616e 6365 733a 3a45 7665 6e74 3c52 756e  ances::Event<Run
  - 0106bf0: 7469 6d65 3e70 616c 6c65 745f 7472 616e  time>pallet_tran
  - 0106c00: 7361 6374 696f 6e5f 7061 796d 656e 743a  saction_payment:
  - 0106c10: 3a45 7665 6e74 3c52 756e 7469 6d65 3e70  :Event<Runtime>p
  - 0106c20: 616c 6c65 745f 7375 646f 3a3a 4576 656e  allet_sudo::Even
  - 0106c30: 743c 5275 6e74 696d 653e 7061 6c6c 6574  t<Runtime>pallet
  - 0106c40: 5f74 656d 706c 6174 653a 3a45 7665 6e74  _template::Event
  - 0106c50: 3c52 756e 7469 6d65 3e70 616c 6c65 745f  <Runtime>pallet_
  - 0106c60: 706f 653a 3a45 7665 6e74 3c52 756e 7469  poe::Event<Runti
  - 0106c70: 6d65 3e73 656c 663a 3a73 705f 6170 695f  me>self::sp_api_
  - 0106c80: 6869 6464 656e 5f69 6e63 6c75 6465 735f  hidden_includes_
  - 0106c90: 636f 6e73 7472 7563 745f 7275 6e74 696d  construct_runtim
  - 0106ca0: 653a 3a68 6964 6465 6e5f 696e 636c 7564  e::hidden_includ
  - 0106cb0: 653a 3a64 6973 7061 7463 680a 3a3a 4361  e::dispatch.::Ca
  - 0106cc0: 6c6c 6162 6c65 4361 6c6c 466f 723c 5379  llableCallFor<Sy
  - 0106cd0: 7374 656d 2c20 5275 6e74 696d 653e 7365  stem, Runtime>se
  - 0106ce0: 6c66 3a3a 7370 5f61 7069 5f68 6964 6465  lf::sp_api_hidde
  - 0106cf0: 6e5f 696e 636c 7564 6573 5f63 6f6e 7374  n_includes_const
  - 0106d00: 7275 6374 5f72 756e 7469 6d65 3a3a 6869  ruct_runtime::hi
  - 0106d10: 6464 656e 5f69 6e63 6c75 6465 3a3a 6469  dden_include::di
  - 0106d20: 7370 6174 6368 0a3a 3a43 616c 6c61 626c  spatch.::Callabl
  - 0106d30: 6543 616c 6c46 6f72 3c54 696d 6573 7461  eCallFor<Timesta
  - 0106d40: 6d70 2c20 5275 6e74 696d 653e 7365 6c66  mp, Runtime>self
  - 0106d50: 3a3a 7370 5f61 7069 5f68 6964 6465 6e5f  ::sp_api_hidden_
  - 0106d60: 696e 636c 7564 6573 5f63 6f6e 7374 7275  includes_constru
  - 0106d70: 6374 5f72 756e 7469 6d65 3a3a 6869 6464  ct_runtime::hidd
  - 0106d80: 656e 5f69 6e63 6c75 6465 3a3a 6469 7370  en_include::disp
  - 0106d90: 6174 6368 0a3a 3a43 616c 6c61 626c 6543  atch.::CallableC
  - 0106da0: 616c 6c46 6f72 3c47 7261 6e64 7061 2c20  allFor<Grandpa, 
  - 0106db0: 5275 6e74 696d 653e 7365 6c66 3a3a 7370  Runtime>self::sp
  - 0106dc0: 5f61 7069 5f68 6964 6465 6e5f 696e 636c  _api_hidden_incl
  - 0106dd0: 7564 6573 5f63 6f6e 7374 7275 6374 5f72  udes_construct_r
  - 0106de0: 756e 7469 6d65 3a3a 6869 6464 656e 5f69  untime::hidden_i
  - 0106df0: 6e63 6c75 6465 3a3a 6469 7370 6174 6368  nclude::dispatch
  - 0106e00: 0a3a 3a43 616c 6c61 626c 6543 616c 6c46  .::CallableCallF
  - 0106e10: 6f72 3c42 616c 616e 6365 732c 2052 756e  or<Balances, Run
  - 0106e20: 7469 6d65 3e73 656c 663a 3a73 705f 6170  time>self::sp_ap
  - 0106e30: 695f 6869 6464 656e 5f69 6e63 6c75 6465  i_hidden_include
  - 0106e40: 735f 636f 6e73 7472 7563 745f 7275 6e74  s_construct_runt
  - 0106e50: 696d 653a 3a68 6964 6465 6e5f 696e 636c  ime::hidden_incl
  - 0106e60: 7564 653a 3a64 6973 7061 7463 680a 3a3a  ude::dispatch.::
  - 0106e70: 4361 6c6c 6162 6c65 4361 6c6c 466f 723c  CallableCallFor<
  - 0106e80: 5375 646f 2c20 5275 6e74 696d 653e 7365  Sudo, Runtime>se
  - 0106e90: 6c66 3a3a 7370 5f61 7069 5f68 6964 6465  lf::sp_api_hidde
  - 0106ea0: 6e5f 696e 636c 7564 6573 5f63 6f6e 7374  n_includes_const
  - 0106eb0: 7275 6374 5f72 756e 7469 6d65 3a3a 6869  ruct_runtime::hi
  - 0106ec0: 6464 656e 5f69 6e63 6c75 6465 3a3a 6469  dden_include::di
  - 0106ed0: 7370 6174 6368 0a3a 3a43 616c 6c61 626c  spatch.::Callabl
  - 0106ee0: 6543 616c 6c46 6f72 3c54 656d 706c 6174  eCallFor<Templat
  - 0106ef0: 654d 6f64 756c 652c 2052 756e 7469 6d65  eModule, Runtime
  - 0106f00: 3e73 656c 663a 3a73 705f 6170 695f 6869  >self::sp_api_hi
  - 0106f10: 6464 656e 5f69 6e63 6c75 6465 735f 636f  dden_includes_co
  - 0106f20: 6e73 7472 7563 745f 7275 6e74 696d 653a  nstruct_runtime:
  - 0106f30: 3a68 6964 6465 6e5f 696e 636c 7564 653a  :hidden_include:
  - 0106f40: 3a64 6973 7061 7463 680a 3a3a 4361 6c6c  :dispatch.::Call
  - 0106f50: 6162 6c65 4361 6c6c 466f 723c 506f 654d  ableCallFor<PoeM
  - 0106f60: 6f64 756c 652c 2052 756e 7469 6d65 3e00  odule, Runtime>.
  - 0106f70: 2f55 7365 7273 2f74 656e 6768 7569 2f2e  /Users/tenghui/.
  - 0106f80: 6361 7267 6f2f 6769 742f 6368 6563 6b6f  cargo/git/checko
  - 0106f90: 7574 732f 7375 6273 7472 6174 652d 3765  uts/substrate-7e
  - 0106fa0: 3038 3433 3364 3463 3337 3061 3231 2f62  08433d4c370a21/b
  - 0106fb0: 6138 3731 3838 2f66 7261 6d65 2f74 696d  a87188/frame/tim
  - 0106fc0: 6573 7461 6d70 2f73 7263 2f6c 6962 2e72  estamp/src/lib.r
  - 0106fd0: 7374 696d 7374 6170 3054 696d 6573 7461  stimstap0Timesta
  - 0106fe0: 6d70 2069 6e68 6572 656e 7420 6461 7461  mp inherent data
  - 0106ff0: 206e 6f74 2063 6f72 7265 6374 6c79 2065   not correctly e
  - 0107000: 6e63 6f64 6564 0000 9b00 0000 0900 0000  ncoded..........
  - 0107010: 0100 0000 9c00 0000 706f 1000 6100 0000  ........po..a...
  - 0107020: fa00 0000 1200 0000 5469 6d65 7374 616d  ........Timestam
  - 0107030: 7020 696e 6865 7265 6e74 2064 6174 6120  p inherent data 
  - 0107040: 6d75 7374 2062 6520 7072 6f76 6964 6564  must be provided
  - 0107050: 706f 1000 6100 0000 fb00 0000 1200 0000  po..a...........
  - 0107060: 706f 1000 6100 0000 e400 0000 1200 0000  po..a...........
  - 0107070: 706f 1000 6100 0000 e500 0000 1200 0000  po..a...........
  - 0107080: 7365 74e2 9c85 206e 6f20 6d69 6772 6174  set... no migrat
  - 0107090: 696f 6e20 666f 7220 8370 1000 1500 0000  ion for .p......
  - 01070a0: 7275 6e74 696d 653a 3a66 7261 6d65 2d73  runtime::frame-s
  - 01070b0: 7570 706f 7274 7061 6c6c 6574 5f74 696d  upportpallet_tim
  - 01070c0: 6573 7461 6d70 3a3a 7061 6c6c 6574 4163  estamp::palletAc
  - 01070d0: 636f 756e 7449 6e66 6f66 7261 6d65 5f73  countInfoframe_s
  - 01070e0: 7973 7465 6d49 6e64 6578 4163 636f 756e  ystemIndexAccoun
  - 01070f0: 7444 6174 6145 7665 6e74 5265 636f 7264  tDataEventRecord
  - 0107100: 4554 2f55 7365 7273 2f74 656e 6768 7569  ET/Users/tenghui
  - 0107110: 2f2e 6361 7267 6f2f 7265 6769 7374 7279  /.cargo/registry
  - 0107120: 2f73 7263 2f72 7370 726f 7879 2e63 6e2d  /src/rsproxy.cn-
  - 0107130: 3866 3638 3237 6337 3535 3562 6661 6638  8f6827c7555bfaf8
  - 0107140: 2f65 6e76 6972 6f6e 6d65 6e74 616c 2d31  /environmental-1
  - 0107150: 2e31 2e34 2f73 7263 2f6c 6962 2e72 7300  .1.4/src/lib.rs.
  - 0107160: 0271 1000 5d00 0000 8e00 0000 0e00 0000  .q..]...........
  - 0107170: 0271 1000 5d00 0000 9200 0000 0f00 0000  .q..]...........
  - 0107180: 2f55 7365 7273 2f74 656e 6768 7569 2f2e  /Users/tenghui/.
  - 0107190: 6361 7267 6f2f 7265 6769 7374 7279 2f73  cargo/registry/s
  - 01071a0: 7263 2f72 7370 726f 7879 2e63 6e2d 3866  rc/rsproxy.cn-8f
  - 01071b0: 3638 3237 6337 3535 3562 6661 6638 2f65  6827c7555bfaf8/e
  - 01071c0: 6e76 6972 6f6e 6d65 6e74 616c 2d31 2e31  nvironmental-1.1
  - 01071d0: 2e34 2f73 7263 2f6c 6f63 616c 5f6b 6579  .4/src/local_key
  - 01071e0: 2e72 7300 8071 1000 6300 0000 2100 0000  .rs..q..c...!...
  - 01071f0: 1700 0000 8071 1000 6300 0000 2300 0000  .....q..c...#...
  - 0107200: 1900 0000 8071 1000 6300 0000 2800 0000  .....q..c...(...
  - 0107210: 1800 0000 2f55 7365 7273 2f74 656e 6768  ..../Users/tengh
  - 0107220: 7569 2f2e 6361 7267 6f2f 6769 742f 6368  ui/.cargo/git/ch
  - 0107230: 6563 6b6f 7574 732f 7375 6273 7472 6174  eckouts/substrat
  - 0107240: 652d 3765 3038 3433 3364 3463 3337 3061  e-7e08433d4c370a
  - 0107250: 3231 2f62 6138 3731 3838 2f66 7261 6d65  21/ba87188/frame
  - 0107260: 2f73 7570 706f 7274 2f73 7263 2f73 746f  /support/src/sto
  - 0107270: 7261 6765 2f75 6e68 6173 6865 642e 7273  rage/unhashed.rs
  - 0107280: 436f 7272 7570 7465 6420 7374 6174 6520  Corrupted state 
  - 0107290: 6174 2060 3a20 6000 8072 1000 1400 0000  at `: `..r......
  - 01072a0: 9472 1000 0200 0000 9672 1000 0100 0000  .r.......r......
  - 01072b0: 7275 6e74 696d 653a 3a73 746f 7261 6765  runtime::storage
  - 01072c0: 6672 616d 655f 7375 7070 6f72 743a 3a73  frame_support::s
  - 01072d0: 746f 7261 6765 3a3a 756e 6861 7368 6564  torage::unhashed
  - 01072e0: b072 1000 1000 0000 c072 1000 2000 0000  .r.......r.. ...
  - 01072f0: 1472 1000 6c00 0000 1c00 0000 5469 6d65  .r..l.......Time
  - 0107300: 7374 616d 7020 6d75 7374 2062 6520 7570  stamp must be up
  - 0107310: 6461 7465 6420 6f6e 6365 2069 6e20 7468  dated once in th
  - 0107320: 6520 626c 6f63 6b00 fc72 1000 2b00 0000  e block..r..+...
  - 0107330: 706f 1000 6100 0000 b000 0000 0d00 0000  po..a...........
  - 0107340: 2043 7572 7265 6e74 2074 696d 6520 666f   Current time fo
  - 0107350: 7220 7468 6520 6375 7272 656e 7420 626c  r the current bl
  - 0107360: 6f63 6b2e 2044 6964 2074 6865 2074 696d  ock. Did the tim
  - 0107370: 6573 7461 6d70 2067 6574 2075 7064 6174  estamp get updat
  - 0107380: 6564 2069 6e20 7468 6973 2062 6c6f 636b  ed in this block
  - 0107390: 3f20 5468 6520 6d69 6e69 6d75 6d20 7065  ? The minimum pe
  - 01073a0: 7269 6f64 2062 6574 7765 656e 2062 6c6f  riod between blo
  - 01073b0: 636b 732e 2042 6577 6172 6520 7468 6174  cks. Beware that
  - 01073c0: 2074 6869 7320 6973 2064 6966 6665 7265   this is differe
  - 01073d0: 6e74 2074 6f20 7468 6520 2a65 7870 6563  nt to the *expec
  - 01073e0: 7465 642a 2070 6572 696f 6420 7468 6174  ted* period that
  - 01073f0: 2074 6865 2062 6c6f 636b 2070 726f 6475   the block produ
  - 0107400: 6374 696f 6e20 6170 7061 7261 7475 7320  ction apparatus 
  - 0107410: 7072 6f76 6964 6573 2e20 596f 7572 2063  provides. Your c
  - 0107420: 686f 7365 6e20 636f 6e73 656e 7375 7320  hosen consensus 
  - 0107430: 7379 7374 656d 2077 696c 6c20 6765 6e65  system will gene
  - 0107440: 7261 6c6c 7920 776f 726b 2077 6974 6820  rally work with 
  - 0107450: 7468 6973 2074 6f20 6465 7465 726d 696e  this to determin
  - 0107460: 6520 6120 7365 6e73 6962 6c65 2062 6c6f  e a sensible blo
  - 0107470: 636b 2074 696d 652e 2065 2e67 2e20 466f  ck time. e.g. Fo
  - 0107480: 7220 4175 7261 2c20 6974 2077 696c 6c20  r Aura, it will 
  - 0107490: 6265 2064 6f75 626c 6520 7468 6973 2070  be double this p
  - 01074a0: 6572 696f 6420 6f6e 2064 6566 6175 6c74  eriod on default
  - 01074b0: 2073 6574 7469 6e67 732e 4d69 6e69 6d75   settings.Minimu
  - 01074c0: 6d50 6572 696f 6443 616c 6c43 6f6e 7461  mPeriodCallConta
  - 01074d0: 696e 7320 6f6e 6520 7661 7269 616e 7420  ins one variant 
  - 01074e0: 7065 7220 6469 7370 6174 6368 6162 6c65  per dispatchable
  - 01074f0: 2074 6861 7420 6361 6e20 6265 2063 616c   that can be cal
  - 0107500: 6c65 6420 6279 2061 6e20 6578 7472 696e  led by an extrin
  - 0107510: 7369 632e 0000 0000 cb74 1000 4900 0000  sic......t..I...
  - 0107520: 616c 7265 6164 7920 626f 7272 6f77 6564  already borrowed
  - 0107530: 9b00 0000 0000 0000 0100 0000 9d00 0000  ................
  - 0107540: 616c 7265 6164 7920 6d75 7461 626c 7920  already mutably 
  - 0107550: 626f 7272 6f77 6564 9b00 0000 0000 0000  borrowed........
  - 0107560: 0100 0000 9e00 0000 9b00 0000 0400 0000  ................
  - 0107570: 0400 0000 9f00 0000 9b00 0000 0400 0000  ................
  - 0107580: 0400 0000 a000 0000 9b00 0000 0400 0000  ................
  - 0107590: 0400 0000 a100 0000 6173 7365 7274 696f  ........assertio
  - 01075a0: 6e20 6661 696c 6564 3a20 6964 7820 3c20  n failed: idx < 
  - 01075b0: 4341 5041 4349 5459 2f72 7573 7463 2f35  CAPACITY/rustc/5
  - 01075c0: 3734 6236 3461 3937 6635 3231 3632 6639  74b64a97f52162f9
  - 01075d0: 3635 6263 3230 3165 3437 6630 6166 3832  65bc201e47f0af82
  - 01075e0: 3739 6361 3635 642f 6c69 6272 6172 792f  79ca65d/library/
  - 01075f0: 616c 6c6f 632f 7372 632f 636f 6c6c 6563  alloc/src/collec
  - 0107600: 7469 6f6e 732f 6274 7265 652f 6e6f 6465  tions/btree/node
  - 0107610: 2e72 7300 b875 1000 5b00 0000 8e02 0000  .rs..u..[.......
  - 0107620: 0900 0000 6173 7365 7274 696f 6e20 6661  ....assertion fa
  - 0107630: 696c 6564 3a20 7372 632e 6c65 6e28 2920  iled: src.len() 
  - 0107640: 3d3d 2064 7374 2e6c 656e 2829 b875 1000  == dst.len().u..
  - 0107650: 5b00 0000 da06 0000 0500 0000 6173 7365  [...........asse
  - 0107660: 7274 696f 6e20 6661 696c 6564 3a20 6f6c  rtion failed: ol
  - 0107670: 645f 6c65 6674 5f6c 656e 203e 3d20 636f  d_left_len >= co
  - 0107680: 756e 7400 b875 1000 5b00 0000 8a05 0000  unt..u..[.......
  - 0107690: 0d00 0000 6173 7365 7274 696f 6e20 6661  ....assertion fa
  - 01076a0: 696c 6564 3a20 6c65 6e20 3e20 3000 0000  iled: len > 0...
  - 01076b0: b875 1000 5b00 0000 6501 0000 0900 0000  .u..[...e.......
  - 01076c0: 6361 6c6c 6564 2060 4f70 7469 6f6e 3a3a  called `Option::
  - 01076d0: 756e 7772 6170 2829 6020 6f6e 2061 2060  unwrap()` on a `
  - 01076e0: 4e6f 6e65 6020 7661 6c75 652f 7275 7374  None` value/rust
  - 01076f0: 632f 3537 3462 3634 6139 3766 3532 3136  c/574b64a97f5216
  - 0107700: 3266 3936 3562 6332 3031 6534 3766 3061  2f965bc201e47f0a
  - 0107710: 6638 3237 3963 6136 3564 2f6c 6962 7261  f8279ca65d/libra
  - 0107720: 7279 2f61 6c6c 6f63 2f73 7263 2f63 6f6c  ry/alloc/src/col
  - 0107730: 6c65 6374 696f 6e73 2f62 7472 6565 2f6e  lections/btree/n
  - 0107740: 6176 6967 6174 652e 7273 0000 eb76 1000  avigate.rs...v..
  - 0107750: 5f00 0000 4c02 0000 3000 0000 eb76 1000  _...L...0....v..
  - 0107760: 5f00 0000 0a02 0000 2f00 0000 4368 6563  _......./...Chec
  - 0107770: 6b4e 6f6e 5a65 726f 5365 6e64 6572 6465  kNonZeroSenderde
  - 0107780: 636f 6465 6672 616d 655f 7379 7374 656d  codeframe_system
  - 0107790: 3a3a 6578 7465 6e73 696f 6e73 3a3a 6368  ::extensions::ch
  - 01077a0: 6563 6b5f 6e6f 6e5f 7a65 726f 5f73 656e  eck_non_zero_sen
  - 01077b0: 6465 7254 5072 6576 6f74 6566 696e 616c  derTPrevotefinal
  - 01077c0: 6974 795f 6772 616e 6470 6148 4e50 7265  ity_grandpaHNPre
  - 01077d0: 636f 6d6d 6974 4571 7569 766f 6361 7469  commitEquivocati
  - 01077e0: 6f6e 4964 5653 5765 616b 426f 756e 6465  onIdVSWeakBounde
  - 01077f0: 6456 6563 626f 756e 6465 645f 636f 6c6c  dVecbounded_coll
  - 0107800: 6563 7469 6f6e 733a 3a77 6561 6b5f 626f  ections::weak_bo
  - 0107810: 756e 6465 645f 7665 636c 656e 6774 6820  unded_veclength 
  - 0107820: 6f66 2061 2062 6f75 6e64 6564 2076 6563  of a bounded vec
  - 0107830: 746f 7220 696e 2073 636f 7065 2020 6973  tor in scope  is
  - 0107840: 206e 6f74 2072 6573 7065 6374 6564 2e00   not respected..
  - 0107850: 1978 1000 2400 0000 3d78 1000 1200 0000  .x..$...=x......
  - 0107860: 7275 6e74 696d 652f 5573 6572 732f 7465  runtime/Users/te
  - 0107870: 6e67 6875 692f 2e63 6172 676f 2f72 6567  nghui/.cargo/reg
  - 0107880: 6973 7472 792f 7372 632f 7273 7072 6f78  istry/src/rsprox
  - 0107890: 792e 636e 2d38 6636 3832 3763 3735 3535  y.cn-8f6827c7555
  - 01078a0: 6266 6166 382f 626f 756e 6465 642d 636f  bfaf8/bounded-co
  - 01078b0: 6c6c 6563 7469 6f6e 732d 302e 312e 352f  llections-0.1.5/
  - 01078c0: 7372 632f 7765 616b 5f62 6f75 6e64 6564  src/weak_bounded
  - 01078d0: 5f76 6563 2e72 7361 6c72 6561 6479 2062  _vec.rsalready b
  - 01078e0: 6f72 726f 7765 6400 b100 0000 0000 0000  orrowed.........
  - 01078f0: 0100 0000 9d00 0000 2f55 7365 7273 2f74  ......../Users/t
  - 0107900: 656e 6768 7569 2f2e 6361 7267 6f2f 7265  enghui/.cargo/re
  - 0107910: 6769 7374 7279 2f73 7263 2f72 7370 726f  gistry/src/rspro
  - 0107920: 7879 2e63 6e2d 3866 3638 3237 6337 3535  xy.cn-8f6827c755
  - 0107930: 3562 6661 6638 2f65 6e76 6972 6f6e 6d65  5bfaf8/environme
  - 0107940: 6e74 616c 2d31 2e31 2e34 2f73 7263 2f6c  ntal-1.1.4/src/l
  - 0107950: 6962 2e72 7300 0000 f878 1000 5d00 0000  ib.rs....x..]...
  - 0107960: 6300 0000 1b00 0000 2f55 7365 7273 2f74  c......./Users/t
  - 0107970: 656e 6768 7569 2f2e 6361 7267 6f2f 6769  enghui/.cargo/gi
  - 0107980: 742f 6368 6563 6b6f 7574 732f 7375 6273  t/checkouts/subs
  - 0107990: 7472 6174 652d 3765 3038 3433 3364 3463  trate-7e08433d4c
  - 01079a0: 3337 3061 3231 2f62 6138 3731 3838 2f66  370a21/ba87188/f
  - 01079b0: 7261 6d65 2f62 616c 616e 6365 732f 7372  rame/balances/sr
  - 01079c0: 632f 6c69 622e 7273 666f 7263 655f 756e  c/lib.rsforce_un
  - 01079d0: 7265 7365 7276 6574 7261 6e73 6665 725f  reservetransfer_
  - 01079e0: 616c 6c74 7261 6e73 6665 725f 6b65 6570  alltransfer_keep
  - 01079f0: 5f61 6c69 7665 666f 7263 655f 7472 616e  _aliveforce_tran
  - 0107a00: 7366 6572 7365 745f 6261 6c61 6e63 6574  sferset_balancet
  - 0107a10: 7261 6e73 6665 72e2 9c85 206e 6f20 6d69  ransfer... no mi
  - 0107a20: 6772 6174 696f 6e20 666f 7220 177a 1000  gration for .z..
  - 0107a30: 1500 0000 7275 6e74 696d 653a 3a66 7261  ....runtime::fra
  - 0107a40: 6d65 2d73 7570 706f 7274 7061 6c6c 6574  me-supportpallet
  - 0107a50: 5f62 616c 616e 6365 733a 3a70 616c 6c65  _balances::palle
  - 0107a60: 7470 616c 6c65 745f 7472 616e 7361 6374  tpallet_transact
  - 0107a70: 696f 6e5f 7061 796d 656e 743a 3a70 616c  ion_payment::pal
  - 0107a80: 6c65 742f 5573 6572 732f 7465 6e67 6875  let/Users/tenghu
  - 0107a90: 692f 2e63 6172 676f 2f67 6974 2f63 6865  i/.cargo/git/che
  - 0107aa0: 636b 6f75 7473 2f73 7562 7374 7261 7465  ckouts/substrate
  - 0107ab0: 2d37 6530 3834 3333 6434 6333 3730 6132  -7e08433d4c370a2
  - 0107ac0: 312f 6261 3837 3138 382f 6672 616d 652f  1/ba87188/frame/
  - 0107ad0: 7472 616e 7361 6374 696f 6e2d 7061 796d  transaction-paym
  - 0107ae0: 656e 742f 7372 632f 6c69 622e 7273 546f  ent/src/lib.rsTo
  - 0107af0: 6f4d 616e 7952 6573 6572 7665 7344 6561  oManyReservesDea
  - 0107b00: 6441 6363 6f75 6e74 4578 6973 7469 6e67  dAccountExisting
  - 0107b10: 5665 7374 696e 6753 6368 6564 756c 654b  VestingScheduleK
  - 0107b20: 6565 7041 6c69 7665 4578 6973 7465 6e74  eepAliveExistent
  - 0107b30: 6961 6c44 6570 6f73 6974 496e 7375 6666  ialDepositInsuff
  - 0107b40: 6963 6965 6e74 4261 6c61 6e63 654c 6971  icientBalanceLiq
  - 0107b50: 7569 6469 7479 5265 7374 7269 6374 696f  uidityRestrictio
  - 0107b60: 6e73 5665 7374 696e 6742 616c 616e 6365  nsVestingBalance
  - 0107b70: 2054 6865 2074 6f74 616c 2075 6e69 7473   The total units
  - 0107b80: 2069 7373 7565 6420 696e 2074 6865 2073   issued in the s
  - 0107b90: 7973 7465 6d2e 2054 6865 2074 6f74 616c  ystem. The total
  - 0107ba0: 2075 6e69 7473 206f 6620 6f75 7473 7461   units of outsta
  - 0107bb0: 6e64 696e 6720 6465 6163 7469 7661 7465  nding deactivate
  - 0107bc0: 6420 6261 6c61 6e63 6520 696e 2074 6865  d balance in the
  - 0107bd0: 2073 7973 7465 6d2e 2054 6865 2042 616c   system. The Bal
  - 0107be0: 616e 6365 7320 7061 6c6c 6574 2065 7861  ances pallet exa
  - 0107bf0: 6d70 6c65 206f 6620 7374 6f72 696e 6720  mple of storing 
  - 0107c00: 7468 6520 6261 6c61 6e63 6520 6f66 2061  the balance of a
  - 0107c10: 6e20 6163 636f 756e 742e 2023 2045 7861  n account. # Exa
  - 0107c20: 6d70 6c65 2060 6060 6e6f 636f 6d70 696c  mple ```nocompil
  - 0107c30: 6520 2069 6d70 6c20 7061 6c6c 6574 5f62  e  impl pallet_b
  - 0107c40: 616c 616e 6365 733a 3a43 6f6e 6669 6720  alances::Config 
  - 0107c50: 666f 7220 5275 6e74 696d 6520 7b20 2020  for Runtime {   
  - 0107c60: 2074 7970 6520 4163 636f 756e 7453 746f   type AccountSto
  - 0107c70: 7265 203d 2053 746f 7261 6765 4d61 7053  re = StorageMapS
  - 0107c80: 6869 6d3c 5365 6c66 3a3a 4163 636f 756e  him<Self::Accoun
  - 0107c90: 743c 5275 6e74 696d 653e 2c20 6672 616d  t<Runtime>, fram
  - 0107ca0: 655f 7379 7374 656d 3a3a 5072 6f76 6964  e_system::Provid
  - 0107cb0: 6572 3c52 756e 7469 6d65 3e2c 2041 6363  er<Runtime>, Acc
  - 0107cc0: 6f75 6e74 4964 2c20 5365 6c66 3a3a 4163  ountId, Self::Ac
  - 0107cd0: 636f 756e 7444 6174 613c 4261 6c61 6e63  countData<Balanc
  - 0107ce0: 653e 3e20 207d 2060 6060 2059 6f75 2063  e>>  } ``` You c
  - 0107cf0: 616e 2061 6c73 6f20 7374 6f72 6520 7468  an also store th
  - 0107d00: 6520 6261 6c61 6e63 6520 6f66 2061 6e20  e balance of an 
  - 0107d10: 6163 636f 756e 7420 696e 2074 6865 2060  account in the `
  - 0107d20: 5379 7374 656d 6020 7061 6c6c 6574 2e20  System` pallet. 
  - 0107d30: 2020 7479 7065 2041 6363 6f75 6e74 5374    type AccountSt
  - 0107d40: 6f72 6520 3d20 5379 7374 656d 2042 7574  ore = System But
  - 0107d50: 2074 6869 7320 636f 6d65 7320 7769 7468   this comes with
  - 0107d60: 2074 7261 6465 6f66 6673 2c20 7374 6f72   tradeoffs, stor
  - 0107d70: 696e 6720 6163 636f 756e 7420 6261 6c61  ing account bala
  - 0107d80: 6e63 6573 2069 6e20 7468 6520 7379 7374  nces in the syst
  - 0107d90: 656d 2070 616c 6c65 7420 7374 6f72 6573  em pallet stores
  - 0107da0: 2060 6672 616d 655f 7379 7374 656d 6020   `frame_system` 
  - 0107db0: 6461 7461 2061 6c6f 6e67 7369 6465 2074  data alongside t
  - 0107dc0: 6865 2061 6363 6f75 6e74 2064 6174 6120  he account data 
  - 0107dd0: 636f 6e74 7261 7279 2074 6f20 7374 6f72  contrary to stor
  - 0107de0: 696e 6720 6163 636f 756e 7420 6261 6c61  ing account bala
  - 0107df0: 6e63 6573 2069 6e20 7468 6520 6042 616c  nces in the `Bal
  - 0107e00: 616e 6365 7360 2070 616c 6c65 742c 2077  ances` pallet, w
  - 0107e10: 6869 6368 2075 7365 7320 6120 6053 746f  hich uses a `Sto
  - 0107e20: 7261 6765 4d61 7060 2074 6f20 7374 6f72  rageMap` to stor
  - 0107e30: 6520 6261 6c61 6e63 6573 2064 6174 6120  e balances data 
  - 0107e40: 6f6e 6c79 2e20 4e4f 5445 3a20 5468 6973  only. NOTE: This
  - 0107e50: 2069 7320 6f6e 6c79 2075 7365 6420 696e   is only used in
  - 0107e60: 2074 6865 2063 6173 6520 7468 6174 2074   the case that t
  - 0107e70: 6869 7320 7061 6c6c 6574 2069 7320 7573  his pallet is us
  - 0107e80: 6564 2074 6f20 7374 6f72 6520 6261 6c61  ed to store bala
  - 0107e90: 6e63 6573 2e20 416e 7920 6c69 7175 6964  nces. Any liquid
  - 0107ea0: 6974 7920 6c6f 636b 7320 6f6e 2073 6f6d  ity locks on som
  - 0107eb0: 6520 6163 636f 756e 7420 6261 6c61 6e63  e account balanc
  - 0107ec0: 6573 2e20 4e4f 5445 3a20 5368 6f75 6c64  es. NOTE: Should
  - 0107ed0: 206f 6e6c 7920 6265 2061 6363 6573 7365   only be accesse
  - 0107ee0: 6420 7768 656e 2073 6574 7469 6e67 2c20  d when setting, 
  - 0107ef0: 6368 616e 6769 6e67 2061 6e64 2066 7265  changing and fre
  - 0107f00: 6569 6e67 2061 206c 6f63 6b2e 204e 616d  eing a lock. Nam
  - 0107f10: 6564 2072 6573 6572 7665 7320 6f6e 2073  ed reserves on s
  - 0107f20: 6f6d 6520 6163 636f 756e 7420 6261 6c61  ome account bala
  - 0107f30: 6e63 6573 2e20 5468 6520 6d69 6e69 6d75  nces. The minimu
  - 0107f40: 6d20 616d 6f75 6e74 2072 6571 7569 7265  m amount require
  - 0107f50: 6420 746f 206b 6565 7020 616e 2061 6363  d to keep an acc
  - 0107f60: 6f75 6e74 206f 7065 6e2e 2054 6865 206d  ount open. The m
  - 0107f70: 6178 696d 756d 206e 756d 6265 7220 6f66  aximum number of
  - 0107f80: 206c 6f63 6b73 2074 6861 7420 7368 6f75   locks that shou
  - 0107f90: 6c64 2065 7869 7374 206f 6e20 616e 2061  ld exist on an a
  - 0107fa0: 6363 6f75 6e74 2e20 4e6f 7420 7374 7269  ccount. Not stri
  - 0107fb0: 6374 6c79 2065 6e66 6f72 6365 642c 2062  ctly enforced, b
  - 0107fc0: 7574 2075 7365 6420 666f 7220 7765 6967  ut used for weig
  - 0107fd0: 6874 2065 7374 696d 6174 696f 6e2e 4d61  ht estimation.Ma
  - 0107fe0: 784c 6f63 6b73 2054 6865 206d 6178 696d  xLocks The maxim
  - 0107ff0: 756d 206e 756d 6265 7220 6f66 206e 616d  um number of nam
  - 0108000: 6564 2072 6573 6572 7665 7320 7468 6174  ed reserves that
  - 0108010: 2063 616e 2065 7869 7374 206f 6e20 616e   can exist on an
  - 0108020: 2061 6363 6f75 6e74 2e4d 6178 5265 7365   account.MaxRese
  - 0108030: 7276 6573 4361 6c6c 5449 436f 6e74 6169  rvesCallTIContai
  - 0108040: 6e73 206f 6e65 2076 6172 6961 6e74 2070  ns one variant p
  - 0108050: 6572 2064 6973 7061 7463 6861 626c 6520  er dispatchable 
  - 0108060: 7468 6174 2063 616e 2062 6520 6361 6c6c  that can be call
